Archive member included because of file (symbol)

C:/SysGCC/m68k-elf/m68k-elf/lib/m68000\liblvgl.a(lv_tick.o)
                              ./obj/lvgl_nkc.o (lv_tick_inc)
C:/SysGCC/m68k-elf/m68k-elf/lib/m68000\liblvgl.a(lv_init.o)
                              C:/SysGCC/m68k-elf/m68k-elf/lib/m68000\liblvgl.a(lv_tick.o) (lv_global)
C:/SysGCC/m68k-elf/m68k-elf/lib/m68000\liblvgl.a(lv_anim.o)
                              C:/SysGCC/m68k-elf/m68k-elf/lib/m68000\liblvgl.a(lv_init.o) (lv_anim_core_init)
C:/SysGCC/m68k-elf/m68k-elf/lib/m68000\liblvgl.a(lv_fs.o)
                              C:/SysGCC/m68k-elf/m68k-elf/lib/m68000\liblvgl.a(lv_init.o) (lv_fs_init)
C:/SysGCC/m68k-elf/m68k-elf/lib/m68000\liblvgl.a(lv_ll.o)
                              C:/SysGCC/m68k-elf/m68k-elf/lib/m68000\liblvgl.a(lv_init.o) (lv_ll_init)
C:/SysGCC/m68k-elf/m68k-elf/lib/m68000\liblvgl.a(lv_math.o)
                              C:/SysGCC/m68k-elf/m68k-elf/lib/m68000\liblvgl.a(lv_anim.o) (lv_cubic_bezier)
C:/SysGCC/m68k-elf/m68k-elf/lib/m68000\liblvgl.a(lv_timer.o)
                              C:/SysGCC/m68k-elf/m68k-elf/lib/m68000\liblvgl.a(lv_init.o) (lv_timer_core_init)
C:/SysGCC/m68k-elf/m68k-elf/lib/m68000\liblvgl.a(lv_os.o)
                              C:/SysGCC/m68k-elf/m68k-elf/lib/m68000\liblvgl.a(lv_init.o) (lv_os_init)
C:/SysGCC/m68k-elf/m68k-elf/lib/m68000\liblvgl.a(lv_mem_core_builtin.o)
                              C:/SysGCC/m68k-elf/m68k-elf/lib/m68000\liblvgl.a(lv_init.o) (lv_mem_init)
C:/SysGCC/m68k-elf/m68k-elf/lib/m68000\liblvgl.a(lv_sprintf_builtin.o)
                              C:/SysGCC/m68k-elf/m68k-elf/lib/m68000\liblvgl.a(lv_fs.o) (lv_snprintf)
C:/SysGCC/m68k-elf/m68k-elf/lib/m68000\liblvgl.a(lv_string_builtin.o)
                              C:/SysGCC/m68k-elf/m68k-elf/lib/m68000\liblvgl.a(lv_anim.o) (lv_memcpy)
C:/SysGCC/m68k-elf/m68k-elf/lib/m68000\liblvgl.a(lv_tlsf.o)
                              C:/SysGCC/m68k-elf/m68k-elf/lib/m68000\liblvgl.a(lv_mem_core_builtin.o) (lv_tlsf_check)
C:/SysGCC/m68k-elf/m68k-elf/lib/m68000\liblvgl.a(lv_mem.o)
                              C:/SysGCC/m68k-elf/m68k-elf/lib/m68000\liblvgl.a(lv_fs.o) (lv_malloc)
C:/SysGCC/m68k-elf/m68k-elf/lib/m68000\liblvgl.a(lv_theme_mono.o)
                              C:/SysGCC/m68k-elf/m68k-elf/lib/m68000\liblvgl.a(lv_init.o) (lv_theme_mono_deinit)
C:/SysGCC/m68k-elf/m68k-elf/lib/m68000\liblvgl.a(lv_theme_simple.o)
                              C:/SysGCC/m68k-elf/m68k-elf/lib/m68000\liblvgl.a(lv_init.o) (lv_theme_simple_deinit)
C:/SysGCC/m68k-elf/m68k-elf/lib/m68000\liblvgl.a(lv_arc.o)
                              C:/SysGCC/m68k-elf/m68k-elf/lib/m68000\liblvgl.a(lv_theme_mono.o) (lv_arc_class)
C:/SysGCC/m68k-elf/m68k-elf/lib/m68000\liblvgl.a(lv_bar.o)
                              C:/SysGCC/m68k-elf/m68k-elf/lib/m68000\liblvgl.a(lv_theme_mono.o) (lv_bar_class)
C:/SysGCC/m68k-elf/m68k-elf/lib/m68000\liblvgl.a(lv_button.o)
                              C:/SysGCC/m68k-elf/m68k-elf/lib/m68000\liblvgl.a(lv_theme_mono.o) (lv_button_class)
C:/SysGCC/m68k-elf/m68k-elf/lib/m68000\liblvgl.a(lv_buttonmatrix.o)
                              C:/SysGCC/m68k-elf/m68k-elf/lib/m68000\liblvgl.a(lv_theme_mono.o) (lv_buttonmatrix_class)
C:/SysGCC/m68k-elf/m68k-elf/lib/m68000\liblvgl.a(lv_calendar.o)
                              C:/SysGCC/m68k-elf/m68k-elf/lib/m68000\liblvgl.a(lv_theme_mono.o) (lv_calendar_class)
C:/SysGCC/m68k-elf/m68k-elf/lib/m68000\liblvgl.a(lv_chart.o)
                              C:/SysGCC/m68k-elf/m68k-elf/lib/m68000\liblvgl.a(lv_theme_mono.o) (lv_chart_class)
C:/SysGCC/m68k-elf/m68k-elf/lib/m68000\liblvgl.a(lv_checkbox.o)
                              C:/SysGCC/m68k-elf/m68k-elf/lib/m68000\liblvgl.a(lv_theme_mono.o) (lv_checkbox_class)
C:/SysGCC/m68k-elf/m68k-elf/lib/m68000\liblvgl.a(lv_dropdown.o)
                              C:/SysGCC/m68k-elf/m68k-elf/lib/m68000\liblvgl.a(lv_theme_mono.o) (lv_dropdown_class)
C:/SysGCC/m68k-elf/m68k-elf/lib/m68000\liblvgl.a(lv_keyboard.o)
                              C:/SysGCC/m68k-elf/m68k-elf/lib/m68000\liblvgl.a(lv_theme_mono.o) (lv_keyboard_class)
C:/SysGCC/m68k-elf/m68k-elf/lib/m68000\liblvgl.a(lv_label.o)
                              C:/SysGCC/m68k-elf/m68k-elf/lib/m68000\liblvgl.a(lv_dropdown.o) (lv_label_create)
C:/SysGCC/m68k-elf/m68k-elf/lib/m68000\liblvgl.a(lv_led.o)
                              C:/SysGCC/m68k-elf/m68k-elf/lib/m68000\liblvgl.a(lv_theme_mono.o) (lv_led_class)
C:/SysGCC/m68k-elf/m68k-elf/lib/m68000\liblvgl.a(lv_list.o)
                              C:/SysGCC/m68k-elf/m68k-elf/lib/m68000\liblvgl.a(lv_theme_mono.o) (lv_list_class)
C:/SysGCC/m68k-elf/m68k-elf/lib/m68000\liblvgl.a(lv_msgbox.o)
                              C:/SysGCC/m68k-elf/m68k-elf/lib/m68000\liblvgl.a(lv_theme_mono.o) (lv_msgbox_class)
C:/SysGCC/m68k-elf/m68k-elf/lib/m68000\liblvgl.a(lv_roller.o)
                              C:/SysGCC/m68k-elf/m68k-elf/lib/m68000\liblvgl.a(lv_theme_mono.o) (lv_roller_class)
C:/SysGCC/m68k-elf/m68k-elf/lib/m68000\liblvgl.a(lv_slider.o)
                              C:/SysGCC/m68k-elf/m68k-elf/lib/m68000\liblvgl.a(lv_theme_mono.o) (lv_slider_class)
C:/SysGCC/m68k-elf/m68k-elf/lib/m68000\liblvgl.a(lv_span.o)
                              C:/SysGCC/m68k-elf/m68k-elf/lib/m68000\liblvgl.a(lv_init.o) (lv_span_stack_init)
C:/SysGCC/m68k-elf/m68k-elf/lib/m68000\liblvgl.a(lv_spinbox.o)
                              C:/SysGCC/m68k-elf/m68k-elf/lib/m68000\liblvgl.a(lv_theme_mono.o) (lv_spinbox_class)
C:/SysGCC/m68k-elf/m68k-elf/lib/m68000\liblvgl.a(lv_spinner.o)
                              C:/SysGCC/m68k-elf/m68k-elf/lib/m68000\liblvgl.a(lv_theme_simple.o) (lv_spinner_class)
C:/SysGCC/m68k-elf/m68k-elf/lib/m68000\liblvgl.a(lv_switch.o)
                              C:/SysGCC/m68k-elf/m68k-elf/lib/m68000\liblvgl.a(lv_theme_mono.o) (lv_switch_class)
C:/SysGCC/m68k-elf/m68k-elf/lib/m68000\liblvgl.a(lv_table.o)
                              C:/SysGCC/m68k-elf/m68k-elf/lib/m68000\liblvgl.a(lv_theme_mono.o) (lv_table_class)
C:/SysGCC/m68k-elf/m68k-elf/lib/m68000\liblvgl.a(lv_tabview.o)
                              C:/SysGCC/m68k-elf/m68k-elf/lib/m68000\liblvgl.a(lv_theme_mono.o) (lv_tabview_class)
C:/SysGCC/m68k-elf/m68k-elf/lib/m68000\liblvgl.a(lv_textarea.o)
                              C:/SysGCC/m68k-elf/m68k-elf/lib/m68000\liblvgl.a(lv_theme_mono.o) (lv_textarea_class)
C:/SysGCC/m68k-elf/m68k-elf/lib/m68000\liblvgl.a(lv_tileview.o)
                              C:/SysGCC/m68k-elf/m68k-elf/lib/m68000\liblvgl.a(lv_theme_mono.o) (lv_tileview_class)
C:/SysGCC/m68k-elf/m68k-elf/lib/m68000\liblvgl.a(lv_win.o)
                              C:/SysGCC/m68k-elf/m68k-elf/lib/m68000\liblvgl.a(lv_theme_mono.o) (lv_win_class)
C:/SysGCC/m68k-elf/m68k-elf/lib/m68000\liblvgl.a(lv_group.o)
                              C:/SysGCC/m68k-elf/m68k-elf/lib/m68000\liblvgl.a(lv_init.o) (lv_group_init)
C:/SysGCC/m68k-elf/m68k-elf/lib/m68000\liblvgl.a(lv_obj.o)
                              C:/SysGCC/m68k-elf/m68k-elf/lib/m68000\liblvgl.a(lv_tabview.o) (lv_obj_create)
C:/SysGCC/m68k-elf/m68k-elf/lib/m68000\liblvgl.a(lv_obj_class.o)
                              C:/SysGCC/m68k-elf/m68k-elf/lib/m68000\liblvgl.a(lv_arc.o) (lv_obj_class_create_obj)
C:/SysGCC/m68k-elf/m68k-elf/lib/m68000\liblvgl.a(lv_obj_draw.o)
                              C:/SysGCC/m68k-elf/m68k-elf/lib/m68000\liblvgl.a(lv_arc.o) (lv_obj_init_draw_rect_dsc)
C:/SysGCC/m68k-elf/m68k-elf/lib/m68000\liblvgl.a(lv_obj_event.o)
                              C:/SysGCC/m68k-elf/m68k-elf/lib/m68000\liblvgl.a(lv_arc.o) (lv_obj_event_base)
C:/SysGCC/m68k-elf/m68k-elf/lib/m68000\liblvgl.a(lv_obj_pos.o)
                              C:/SysGCC/m68k-elf/m68k-elf/lib/m68000\liblvgl.a(lv_roller.o) (lv_obj_set_x)
C:/SysGCC/m68k-elf/m68k-elf/lib/m68000\liblvgl.a(lv_obj_scroll.o)
                              C:/SysGCC/m68k-elf/m68k-elf/lib/m68000\liblvgl.a(lv_tabview.o) (lv_obj_set_scrollbar_mode)
C:/SysGCC/m68k-elf/m68k-elf/lib/m68000\liblvgl.a(lv_obj_style.o)
                              C:/SysGCC/m68k-elf/m68k-elf/lib/m68000\liblvgl.a(lv_init.o) (lv_obj_style_init)
C:/SysGCC/m68k-elf/m68k-elf/lib/m68000\liblvgl.a(lv_obj_style_gen.o)
                              C:/SysGCC/m68k-elf/m68k-elf/lib/m68000\liblvgl.a(lv_obj_pos.o) (lv_obj_set_style_width)
C:/SysGCC/m68k-elf/m68k-elf/lib/m68000\liblvgl.a(lv_obj_tree.o)
                              C:/SysGCC/m68k-elf/m68k-elf/lib/m68000\liblvgl.a(lv_msgbox.o) (lv_obj_delete_async)
C:/SysGCC/m68k-elf/m68k-elf/lib/m68000\liblvgl.a(lv_observer.o)
                              C:/SysGCC/m68k-elf/m68k-elf/lib/m68000\liblvgl.a(lv_obj_style.o) (lv_subject_get_int)
C:/SysGCC/m68k-elf/m68k-elf/lib/m68000\liblvgl.a(lv_refr.o)
                              C:/SysGCC/m68k-elf/m68k-elf/lib/m68000\liblvgl.a(lv_init.o) (lv_refr_init)
C:/SysGCC/m68k-elf/m68k-elf/lib/m68000\liblvgl.a(lv_display.o)
                              C:/SysGCC/m68k-elf/m68k-elf/lib/m68000\liblvgl.a(lv_init.o) (lv_display_set_default)
C:/SysGCC/m68k-elf/m68k-elf/lib/m68000\liblvgl.a(lv_draw.o)
                              C:/SysGCC/m68k-elf/m68k-elf/lib/m68000\liblvgl.a(lv_init.o) (lv_draw_init)
C:/SysGCC/m68k-elf/m68k-elf/lib/m68000\liblvgl.a(lv_draw_arc.o)
                              C:/SysGCC/m68k-elf/m68k-elf/lib/m68000\liblvgl.a(lv_arc.o) (lv_draw_arc_dsc_init)
C:/SysGCC/m68k-elf/m68k-elf/lib/m68000\liblvgl.a(lv_draw_blur.o)
                              C:/SysGCC/m68k-elf/m68k-elf/lib/m68000\liblvgl.a(lv_bar.o) (lv_draw_blur_dsc_init)
C:/SysGCC/m68k-elf/m68k-elf/lib/m68000\liblvgl.a(lv_draw_buf.o)
                              C:/SysGCC/m68k-elf/m68k-elf/lib/m68000\liblvgl.a(lv_init.o) (lv_draw_buf_init_handlers)
C:/SysGCC/m68k-elf/m68k-elf/lib/m68000\liblvgl.a(lv_draw_image.o)
                              C:/SysGCC/m68k-elf/m68k-elf/lib/m68000\liblvgl.a(lv_bar.o) (lv_draw_image_dsc_init)
C:/SysGCC/m68k-elf/m68k-elf/lib/m68000\liblvgl.a(lv_draw_label.o)
                              C:/SysGCC/m68k-elf/m68k-elf/lib/m68000\liblvgl.a(lv_buttonmatrix.o) (lv_draw_label_dsc_init)
C:/SysGCC/m68k-elf/m68k-elf/lib/m68000\liblvgl.a(lv_draw_line.o)
                              C:/SysGCC/m68k-elf/m68k-elf/lib/m68000\liblvgl.a(lv_chart.o) (lv_draw_line_dsc_init)
C:/SysGCC/m68k-elf/m68k-elf/lib/m68000\liblvgl.a(lv_draw_mask.o)
                              C:/SysGCC/m68k-elf/m68k-elf/lib/m68000\liblvgl.a(lv_bar.o) (lv_draw_mask_rect_dsc_init)
C:/SysGCC/m68k-elf/m68k-elf/lib/m68000\liblvgl.a(lv_draw_rect.o)
                              C:/SysGCC/m68k-elf/m68k-elf/lib/m68000\liblvgl.a(lv_arc.o) (lv_draw_rect_dsc_init)
C:/SysGCC/m68k-elf/m68k-elf/lib/m68000\liblvgl.a(lv_image_decoder.o)
                              C:/SysGCC/m68k-elf/m68k-elf/lib/m68000\liblvgl.a(lv_init.o) (lv_image_decoder_init)
C:/SysGCC/m68k-elf/m68k-elf/lib/m68000\liblvgl.a(lv_draw_sw.o)
                              C:/SysGCC/m68k-elf/m68k-elf/lib/m68000\liblvgl.a(lv_init.o) (lv_draw_sw_init)
C:/SysGCC/m68k-elf/m68k-elf/lib/m68000\liblvgl.a(lv_draw_sw_arc.o)
                              C:/SysGCC/m68k-elf/m68k-elf/lib/m68000\liblvgl.a(lv_draw_sw.o) (lv_draw_sw_arc)
C:/SysGCC/m68k-elf/m68k-elf/lib/m68000\liblvgl.a(lv_draw_sw_blur.o)
                              C:/SysGCC/m68k-elf/m68k-elf/lib/m68000\liblvgl.a(lv_draw_sw.o) (lv_draw_sw_blur)
C:/SysGCC/m68k-elf/m68k-elf/lib/m68000\liblvgl.a(lv_draw_sw_border.o)
                              C:/SysGCC/m68k-elf/m68k-elf/lib/m68000\liblvgl.a(lv_draw_sw.o) (lv_draw_sw_border)
C:/SysGCC/m68k-elf/m68k-elf/lib/m68000\liblvgl.a(lv_draw_sw_box_shadow.o)
                              C:/SysGCC/m68k-elf/m68k-elf/lib/m68000\liblvgl.a(lv_draw_sw.o) (lv_draw_sw_box_shadow)
C:/SysGCC/m68k-elf/m68k-elf/lib/m68000\liblvgl.a(lv_draw_sw_fill.o)
                              C:/SysGCC/m68k-elf/m68k-elf/lib/m68000\liblvgl.a(lv_draw_sw.o) (lv_draw_sw_fill)
C:/SysGCC/m68k-elf/m68k-elf/lib/m68000\liblvgl.a(lv_draw_sw_grad.o)
                              C:/SysGCC/m68k-elf/m68k-elf/lib/m68000\liblvgl.a(lv_draw_sw_fill.o) (lv_draw_sw_grad_get)
C:/SysGCC/m68k-elf/m68k-elf/lib/m68000\liblvgl.a(lv_draw_sw_img.o)
                              C:/SysGCC/m68k-elf/m68k-elf/lib/m68000\liblvgl.a(lv_draw_sw.o) (lv_draw_sw_image)
C:/SysGCC/m68k-elf/m68k-elf/lib/m68000\liblvgl.a(lv_draw_sw_letter.o)
                              C:/SysGCC/m68k-elf/m68k-elf/lib/m68000\liblvgl.a(lv_draw_sw.o) (lv_draw_sw_letter)
C:/SysGCC/m68k-elf/m68k-elf/lib/m68000\liblvgl.a(lv_draw_sw_line.o)
                              C:/SysGCC/m68k-elf/m68k-elf/lib/m68000\liblvgl.a(lv_draw_sw.o) (lv_draw_sw_line)
C:/SysGCC/m68k-elf/m68k-elf/lib/m68000\liblvgl.a(lv_draw_sw_mask.o)
                              C:/SysGCC/m68k-elf/m68k-elf/lib/m68000\liblvgl.a(lv_draw_sw.o) (lv_draw_sw_mask_init)
C:/SysGCC/m68k-elf/m68k-elf/lib/m68000\liblvgl.a(lv_draw_sw_mask_rect.o)
                              C:/SysGCC/m68k-elf/m68k-elf/lib/m68000\liblvgl.a(lv_draw_sw.o) (lv_draw_sw_mask_rect)
C:/SysGCC/m68k-elf/m68k-elf/lib/m68000\liblvgl.a(lv_draw_sw_transform.o)
                              C:/SysGCC/m68k-elf/m68k-elf/lib/m68000\liblvgl.a(lv_draw_sw_img.o) (lv_draw_sw_transform)
C:/SysGCC/m68k-elf/m68k-elf/lib/m68000\liblvgl.a(lv_draw_sw_triangle.o)
                              C:/SysGCC/m68k-elf/m68k-elf/lib/m68000\liblvgl.a(lv_draw_sw.o) (lv_draw_sw_triangle)
C:/SysGCC/m68k-elf/m68k-elf/lib/m68000\liblvgl.a(lv_font.o)
                              C:/SysGCC/m68k-elf/m68k-elf/lib/m68000\liblvgl.a(lv_draw_label.o) (lv_font_get_glyph_bitmap)
C:/SysGCC/m68k-elf/m68k-elf/lib/m68000\liblvgl.a(lv_font_montserrat_12.o)
                              C:/SysGCC/m68k-elf/m68k-elf/lib/m68000\liblvgl.a(lv_theme_mono.o) (lv_font_montserrat_12)
C:/SysGCC/m68k-elf/m68k-elf/lib/m68000\liblvgl.a(lv_indev.o)
                              C:/SysGCC/m68k-elf/m68k-elf/lib/m68000\liblvgl.a(lv_buttonmatrix.o) (lv_indev_get_next)
C:/SysGCC/m68k-elf/m68k-elf/lib/m68000\liblvgl.a(lv_indev_scroll.o)
                              C:/SysGCC/m68k-elf/m68k-elf/lib/m68000\liblvgl.a(lv_indev.o) (lv_indev_scroll_throw_handler)
C:/SysGCC/m68k-elf/m68k-elf/lib/m68000\liblvgl.a(lv_flex.o)
                              C:/SysGCC/m68k-elf/m68k-elf/lib/m68000\liblvgl.a(lv_calendar.o) (lv_obj_set_flex_flow)
C:/SysGCC/m68k-elf/m68k-elf/lib/m68000\liblvgl.a(lv_layout.o)
                              C:/SysGCC/m68k-elf/m68k-elf/lib/m68000\liblvgl.a(lv_init.o) (lv_layout_init)
C:/SysGCC/m68k-elf/m68k-elf/lib/m68000\liblvgl.a(lv_bin_decoder.o)
                              C:/SysGCC/m68k-elf/m68k-elf/lib/m68000\liblvgl.a(lv_init.o) (lv_bin_decoder_init)
C:/SysGCC/m68k-elf/m68k-elf/lib/m68000\liblvgl.a(lv_image_cache.o)
                              C:/SysGCC/m68k-elf/m68k-elf/lib/m68000\liblvgl.a(lv_image_decoder.o) (lv_image_cache_init)
C:/SysGCC/m68k-elf/m68k-elf/lib/m68000\liblvgl.a(lv_image_header_cache.o)
                              C:/SysGCC/m68k-elf/m68k-elf/lib/m68000\liblvgl.a(lv_image_decoder.o) (lv_image_header_cache_init)
C:/SysGCC/m68k-elf/m68k-elf/lib/m68000\liblvgl.a(lv_cache.o)
                              C:/SysGCC/m68k-elf/m68k-elf/lib/m68000\liblvgl.a(lv_image_cache.o) (lv_cache_create)
C:/SysGCC/m68k-elf/m68k-elf/lib/m68000\liblvgl.a(lv_cache_entry.o)
                              C:/SysGCC/m68k-elf/m68k-elf/lib/m68000\liblvgl.a(lv_cache.o) (lv_cache_entry_get_ref)
C:/SysGCC/m68k-elf/m68k-elf/lib/m68000\liblvgl.a(lv_anim_timeline.o)
                              C:/SysGCC/m68k-elf/m68k-elf/lib/m68000\liblvgl.a(lv_obj.o) (lv_anim_timeline_set_reverse)
C:/SysGCC/m68k-elf/m68k-elf/lib/m68000\liblvgl.a(lv_area.o)
                              C:/SysGCC/m68k-elf/m68k-elf/lib/m68000\liblvgl.a(lv_arc.o) (lv_area_set)
C:/SysGCC/m68k-elf/m68k-elf/lib/m68000\liblvgl.a(lv_async.o)
                              C:/SysGCC/m68k-elf/m68k-elf/lib/m68000\liblvgl.a(lv_obj_tree.o) (lv_async_call)
C:/SysGCC/m68k-elf/m68k-elf/lib/m68000\liblvgl.a(lv_color.o)
                              C:/SysGCC/m68k-elf/m68k-elf/lib/m68000\liblvgl.a(lv_draw_buf.o) (lv_color_format_get_bpp)
C:/SysGCC/m68k-elf/m68k-elf/lib/m68000\liblvgl.a(lv_color_op.o)
                              C:/SysGCC/m68k-elf/m68k-elf/lib/m68000\liblvgl.a(lv_led.o) (lv_color_mix)
C:/SysGCC/m68k-elf/m68k-elf/lib/m68000\liblvgl.a(lv_event.o)
                              C:/SysGCC/m68k-elf/m68k-elf/lib/m68000\liblvgl.a(lv_obj_event.o) (lv_event_push)
C:/SysGCC/m68k-elf/m68k-elf/lib/m68000\liblvgl.a(lv_iter.o)
                              C:/SysGCC/m68k-elf/m68k-elf/lib/m68000\liblvgl.a(lv_image_cache.o) (lv_iter_destroy)
C:/SysGCC/m68k-elf/m68k-elf/lib/m68000\liblvgl.a(lv_palette.o)
                              C:/SysGCC/m68k-elf/m68k-elf/lib/m68000\liblvgl.a(lv_theme_simple.o) (lv_palette_main)
C:/SysGCC/m68k-elf/m68k-elf/lib/m68000\liblvgl.a(lv_style.o)
                              C:/SysGCC/m68k-elf/m68k-elf/lib/m68000\liblvgl.a(lv_theme_mono.o) (lv_style_init)
C:/SysGCC/m68k-elf/m68k-elf/lib/m68000\liblvgl.a(lv_style_gen.o)
                              C:/SysGCC/m68k-elf/m68k-elf/lib/m68000\liblvgl.a(lv_theme_mono.o) (lv_style_set_width)
C:/SysGCC/m68k-elf/m68k-elf/lib/m68000\liblvgl.a(lv_text.o)
                              C:/SysGCC/m68k-elf/m68k-elf/lib/m68000\liblvgl.a(lv_label.o) (lv_text_is_cmd)
C:/SysGCC/m68k-elf/m68k-elf/lib/m68000\liblvgl.a(lv_theme.o)
                              C:/SysGCC/m68k-elf/m68k-elf/lib/m68000\liblvgl.a(lv_obj_class.o) (lv_theme_apply)
C:/SysGCC/m68k-elf/m68k-elf/lib/m68000\liblvgl.a(lv_image.o)
                              C:/SysGCC/m68k-elf/m68k-elf/lib/m68000\liblvgl.a(lv_list.o) (lv_image_create)
C:/SysGCC/m68k-elf/m68k-elf/lib/m68000\liblvgl.a(lv_draw_buf_convert.o)
                              C:/SysGCC/m68k-elf/m68k-elf/lib/m68000\liblvgl.a(lv_draw_buf.o) (lv_draw_buf_convert_premultiply)
C:/SysGCC/m68k-elf/m68k-elf/lib/m68000\liblvgl.a(lv_draw_sw_blend.o)
                              C:/SysGCC/m68k-elf/m68k-elf/lib/m68000\liblvgl.a(lv_draw_sw_arc.o) (lv_draw_sw_blend)
C:/SysGCC/m68k-elf/m68k-elf/lib/m68000\liblvgl.a(lv_draw_sw_blend_to_a8.o)
                              C:/SysGCC/m68k-elf/m68k-elf/lib/m68000\liblvgl.a(lv_draw_sw_blend.o) (lv_draw_sw_blend_color_to_a8)
C:/SysGCC/m68k-elf/m68k-elf/lib/m68000\liblvgl.a(lv_draw_sw_blend_to_al88.o)
                              C:/SysGCC/m68k-elf/m68k-elf/lib/m68000\liblvgl.a(lv_draw_sw_blend.o) (lv_draw_sw_blend_color_to_al88)
C:/SysGCC/m68k-elf/m68k-elf/lib/m68000\liblvgl.a(lv_draw_sw_blend_to_argb8888.o)
                              C:/SysGCC/m68k-elf/m68k-elf/lib/m68000\liblvgl.a(lv_draw_sw_blend.o) (lv_draw_sw_blend_color_to_argb8888)
C:/SysGCC/m68k-elf/m68k-elf/lib/m68000\liblvgl.a(lv_draw_sw_blend_to_argb8888_premultiplied.o)
                              C:/SysGCC/m68k-elf/m68k-elf/lib/m68000\liblvgl.a(lv_draw_sw_blend.o) (lv_draw_sw_blend_color_to_argb8888_premultiplied)
C:/SysGCC/m68k-elf/m68k-elf/lib/m68000\liblvgl.a(lv_draw_sw_blend_to_i1.o)
                              C:/SysGCC/m68k-elf/m68k-elf/lib/m68000\liblvgl.a(lv_draw_sw_blend.o) (lv_draw_sw_blend_color_to_i1)
C:/SysGCC/m68k-elf/m68k-elf/lib/m68000\liblvgl.a(lv_draw_sw_blend_to_l8.o)
                              C:/SysGCC/m68k-elf/m68k-elf/lib/m68000\liblvgl.a(lv_draw_sw_blend.o) (lv_draw_sw_blend_color_to_l8)
C:/SysGCC/m68k-elf/m68k-elf/lib/m68000\liblvgl.a(lv_draw_sw_blend_to_rgb565.o)
                              C:/SysGCC/m68k-elf/m68k-elf/lib/m68000\liblvgl.a(lv_draw_sw_blend.o) (lv_draw_sw_blend_color_to_rgb565)
C:/SysGCC/m68k-elf/m68k-elf/lib/m68000\liblvgl.a(lv_draw_sw_blend_to_rgb565_swapped.o)
                              C:/SysGCC/m68k-elf/m68k-elf/lib/m68000\liblvgl.a(lv_draw_sw_blend.o) (lv_draw_sw_blend_color_to_rgb565_swapped)
C:/SysGCC/m68k-elf/m68k-elf/lib/m68000\liblvgl.a(lv_draw_sw_blend_to_rgb888.o)
                              C:/SysGCC/m68k-elf/m68k-elf/lib/m68000\liblvgl.a(lv_draw_sw_blend.o) (lv_draw_sw_blend_color_to_rgb888)
C:/SysGCC/m68k-elf/m68k-elf/lib/m68000\liblvgl.a(lv_draw_sw_utils.o)
                              C:/SysGCC/m68k-elf/m68k-elf/lib/m68000\liblvgl.a(lv_draw_sw_blend_to_rgb565.o) (lv_draw_sw_rgb565_swap)
C:/SysGCC/m68k-elf/m68k-elf/lib/m68000\liblvgl.a(lv_font_fmt_txt.o)
                              C:/SysGCC/m68k-elf/m68k-elf/lib/m68000\liblvgl.a(lv_font_montserrat_12.o) (lv_font_get_bitmap_fmt_txt)
C:/SysGCC/m68k-elf/m68k-elf/lib/m68000\liblvgl.a(lv_grid.o)
                              C:/SysGCC/m68k-elf/m68k-elf/lib/m68000\liblvgl.a(lv_layout.o) (lv_grid_init)
C:/SysGCC/m68k-elf/m68k-elf/lib/m68000\liblvgl.a(lv_cache_lru_rb.o)
                              C:/SysGCC/m68k-elf/m68k-elf/lib/m68000\liblvgl.a(lv_image_cache.o) (lv_cache_class_lru_rb_size)
C:/SysGCC/m68k-elf/m68k-elf/lib/m68000\liblvgl.a(lv_array.o)
                              C:/SysGCC/m68k-elf/m68k-elf/lib/m68000\liblvgl.a(lv_event.o) (lv_array_init)
C:/SysGCC/m68k-elf/m68k-elf/lib/m68000\liblvgl.a(lv_circle_buf.o)
                              C:/SysGCC/m68k-elf/m68k-elf/lib/m68000\liblvgl.a(lv_iter.o) (lv_circle_buf_create)
C:/SysGCC/m68k-elf/m68k-elf/lib/m68000\liblvgl.a(lv_rb.o)
                              C:/SysGCC/m68k-elf/m68k-elf/lib/m68000\liblvgl.a(lv_cache_lru_rb.o) (lv_rb_init)
C:/SysGCC/m68k-elf/m68k-elf/lib/m68000\liblvgl.a(lv_utils.o)
                              C:/SysGCC/m68k-elf/m68k-elf/lib/m68000\liblvgl.a(lv_font_fmt_txt.o) (lv_utils_bsearch)
c:/sysgcc/m68k-elf/bin/../lib/gcc/m68k-elf/4.8.0/m68000\libgcc.a(_mulsi3.o)
                              C:/SysGCC/m68k-elf/m68k-elf/lib/m68000\liblvgl.a(lv_anim.o) (__mulsi3)
c:/sysgcc/m68k-elf/bin/../lib/gcc/m68k-elf/4.8.0/m68000\libgcc.a(_udivsi3.o)
                              C:/SysGCC/m68k-elf/m68k-elf/lib/m68000\liblvgl.a(lv_anim.o) (__udivsi3)
c:/sysgcc/m68k-elf/bin/../lib/gcc/m68k-elf/4.8.0/m68000\libgcc.a(_divsi3.o)
                              C:/SysGCC/m68k-elf/m68k-elf/lib/m68000\liblvgl.a(lv_anim.o) (__divsi3)
c:/sysgcc/m68k-elf/bin/../lib/gcc/m68k-elf/4.8.0/m68000\libgcc.a(_umodsi3.o)
                              C:/SysGCC/m68k-elf/m68k-elf/lib/m68000\liblvgl.a(lv_math.o) (__umodsi3)
c:/sysgcc/m68k-elf/bin/../lib/gcc/m68k-elf/4.8.0/m68000\libgcc.a(_modsi3.o)
                              C:/SysGCC/m68k-elf/m68k-elf/lib/m68000\liblvgl.a(lv_calendar.o) (__modsi3)
c:/sysgcc/m68k-elf/bin/../lib/gcc/m68k-elf/4.8.0/m68000\libgcc.a(_muldi3.o)
                              C:/SysGCC/m68k-elf/m68k-elf/lib/m68000\liblvgl.a(lv_math.o) (__muldi3)
c:/sysgcc/m68k-elf/bin/../lib/gcc/m68k-elf/4.8.0/m68000\libgcc.a(_ffssi2.o)
                              C:/SysGCC/m68k-elf/m68k-elf/lib/m68000\liblvgl.a(lv_tlsf.o) (__ffssi2)
c:/sysgcc/m68k-elf/bin/../lib/gcc/m68k-elf/4.8.0/m68000\libgcc.a(_clz.o)
                              c:/sysgcc/m68k-elf/bin/../lib/gcc/m68k-elf/4.8.0/m68000\libgcc.a(_ffssi2.o) (__clz_tab)
c:/sysgcc/m68k-elf/bin/../lib/gcc/m68k-elf/4.8.0/m68000\libgcc.a(_clzsi2.o)
                              C:/SysGCC/m68k-elf/m68k-elf/lib/m68000\liblvgl.a(lv_tlsf.o) (__clzsi2)
c:/sysgcc/m68k-elf/bin/../lib/gcc/m68k-elf/4.8.0/m68000\libgcc.a(_divdi3.o)
                              C:/SysGCC/m68k-elf/m68k-elf/lib/m68000\liblvgl.a(lv_math.o) (__divdi3)
c:/sysgcc/m68k-elf/bin/../lib/gcc/m68k-elf/4.8.0/m68000\libgcc.a(_udivdi3.o)
                              C:/SysGCC/m68k-elf/m68k-elf/lib/m68000\liblvgl.a(lv_mem_core_builtin.o) (__udivdi3)
c:/sysgcc/m68k-elf/bin/../lib/gcc/m68k-elf/4.8.0/m68000\libgcc.a(_umoddi3.o)
                              C:/SysGCC/m68k-elf/m68k-elf/lib/m68000\liblvgl.a(lv_sprintf_builtin.o) (__umoddi3)
C:/SysGCC/m68k-elf/m68k-elf/lib/m68000\libc.a(lib_a-environ.o)
                              obj/crt0.o (environ)
C:/SysGCC/m68k-elf/m68k-elf/lib/m68000\libc.a(lib_a-findfp.o)
                              obj/crt0.o (_cleanup)
C:/SysGCC/m68k-elf/m68k-elf/lib/m68000\libc.a(lib_a-fwalk.o)
                              C:/SysGCC/m68k-elf/m68k-elf/lib/m68000\libc.a(lib_a-findfp.o) (_fwalk)
C:/SysGCC/m68k-elf/m68k-elf/lib/m68000\libc.a(lib_a-getenv.o)
                              obj/crt0.o (getenv)
C:/SysGCC/m68k-elf/m68k-elf/lib/m68000\libc.a(lib_a-getenv_r.o)
                              C:/SysGCC/m68k-elf/m68k-elf/lib/m68000\libc.a(lib_a-getenv.o) (_findenv_r)
C:/SysGCC/m68k-elf/m68k-elf/lib/m68000\libc.a(lib_a-impure.o)
                              C:/SysGCC/m68k-elf/m68k-elf/lib/m68000\libc.a(lib_a-findfp.o) (_global_impure_ptr)
C:/SysGCC/m68k-elf/m68k-elf/lib/m68000\libc.a(lib_a-mallocr.o)
                              C:/SysGCC/m68k-elf/m68k-elf/lib/m68000\libc.a(lib_a-findfp.o) (_malloc_r)
C:/SysGCC/m68k-elf/m68k-elf/lib/m68000\libc.a(lib_a-memcpy.o)
                              C:/SysGCC/m68k-elf/m68k-elf/lib/m68000\liblvgl.a(lv_theme_mono.o) (memcpy)
C:/SysGCC/m68k-elf/m68k-elf/lib/m68000\libc.a(lib_a-memset.o)
                              C:/SysGCC/m68k-elf/m68k-elf/lib/m68000\liblvgl.a(lv_buttonmatrix.o) (memset)
C:/SysGCC/m68k-elf/m68k-elf/lib/m68000\libc.a(lib_a-mlock.o)
                              C:/SysGCC/m68k-elf/m68k-elf/lib/m68000\libc.a(lib_a-mallocr.o) (__malloc_lock)
C:/SysGCC/m68k-elf/m68k-elf/lib/m68000\libc.a(lib_a-printf.o)
                              ./obj/lvgl_nkc.o (printf)
C:/SysGCC/m68k-elf/m68k-elf/lib/m68000\libc.a(lib_a-puts.o)
                              ./obj/lvgl_nkc.o (puts)
C:/SysGCC/m68k-elf/m68k-elf/lib/m68000\libc.a(lib_a-sbrkr.o)
                              C:/SysGCC/m68k-elf/m68k-elf/lib/m68000\libc.a(lib_a-mallocr.o) (_sbrk_r)
C:/SysGCC/m68k-elf/m68k-elf/lib/m68000\libc.a(lib_a-stdio.o)
                              C:/SysGCC/m68k-elf/m68k-elf/lib/m68000\libc.a(lib_a-findfp.o) (__sread)
C:/SysGCC/m68k-elf/m68k-elf/lib/m68000\libc.a(lib_a-strlen.o)
                              C:/SysGCC/m68k-elf/m68k-elf/lib/m68000\libc.a(lib_a-puts.o) (strlen)
C:/SysGCC/m68k-elf/m68k-elf/lib/m68000\libc.a(lib_a-strncmp.o)
                              C:/SysGCC/m68k-elf/m68k-elf/lib/m68000\libc.a(lib_a-getenv_r.o) (strncmp)
C:/SysGCC/m68k-elf/m68k-elf/lib/m68000\libc.a(lib_a-vfprintf.o)
                              C:/SysGCC/m68k-elf/m68k-elf/lib/m68000\libc.a(lib_a-printf.o) (_vfprintf_r)
C:/SysGCC/m68k-elf/m68k-elf/lib/m68000\libc.a(lib_a-writer.o)
                              C:/SysGCC/m68k-elf/m68k-elf/lib/m68000\libc.a(lib_a-stdio.o) (_write_r)
C:/SysGCC/m68k-elf/m68k-elf/lib/m68000\libc.a(lib_a-wsetup.o)
                              C:/SysGCC/m68k-elf/m68k-elf/lib/m68000\libc.a(lib_a-vfprintf.o) (__swsetup_r)
C:/SysGCC/m68k-elf/m68k-elf/lib/m68000\libc.a(lib_a-closer.o)
                              C:/SysGCC/m68k-elf/m68k-elf/lib/m68000\libc.a(lib_a-stdio.o) (_close_r)
C:/SysGCC/m68k-elf/m68k-elf/lib/m68000\libc.a(lib_a-dtoa.o)
                              C:/SysGCC/m68k-elf/m68k-elf/lib/m68000\libc.a(lib_a-vfprintf.o) (_dtoa_r)
C:/SysGCC/m68k-elf/m68k-elf/lib/m68000\libc.a(lib_a-envlock.o)
                              C:/SysGCC/m68k-elf/m68k-elf/lib/m68000\libc.a(lib_a-getenv_r.o) (__env_lock)
C:/SysGCC/m68k-elf/m68k-elf/lib/m68000\libc.a(lib_a-fclose.o)
                              C:/SysGCC/m68k-elf/m68k-elf/lib/m68000\libc.a(lib_a-findfp.o) (fclose)
C:/SysGCC/m68k-elf/m68k-elf/lib/m68000\libc.a(lib_a-fflush.o)
                              C:/SysGCC/m68k-elf/m68k-elf/lib/m68000\libc.a(lib_a-vfprintf.o) (_fflush_r)
C:/SysGCC/m68k-elf/m68k-elf/lib/m68000\libc.a(lib_a-freer.o)
                              C:/SysGCC/m68k-elf/m68k-elf/lib/m68000\libc.a(lib_a-mallocr.o) (_free_r)
C:/SysGCC/m68k-elf/m68k-elf/lib/m68000\libc.a(lib_a-fvwrite.o)
                              C:/SysGCC/m68k-elf/m68k-elf/lib/m68000\libc.a(lib_a-puts.o) (__sfvwrite_r)
C:/SysGCC/m68k-elf/m68k-elf/lib/m68000\libc.a(lib_a-locale.o)
                              C:/SysGCC/m68k-elf/m68k-elf/lib/m68000\libc.a(lib_a-vfprintf.o) (_localeconv_r)
C:/SysGCC/m68k-elf/m68k-elf/lib/m68000\libc.a(lib_a-lseekr.o)
                              C:/SysGCC/m68k-elf/m68k-elf/lib/m68000\libc.a(lib_a-stdio.o) (_lseek_r)
C:/SysGCC/m68k-elf/m68k-elf/lib/m68000\libc.a(lib_a-makebuf.o)
                              C:/SysGCC/m68k-elf/m68k-elf/lib/m68000\libc.a(lib_a-wsetup.o) (__smakebuf_r)
C:/SysGCC/m68k-elf/m68k-elf/lib/m68000\libc.a(lib_a-memchr.o)
                              C:/SysGCC/m68k-elf/m68k-elf/lib/m68000\libc.a(lib_a-vfprintf.o) (memchr)
C:/SysGCC/m68k-elf/m68k-elf/lib/m68000\libc.a(lib_a-memmove.o)
                              C:/SysGCC/m68k-elf/m68k-elf/lib/m68000\libc.a(lib_a-fvwrite.o) (memmove)
C:/SysGCC/m68k-elf/m68k-elf/lib/m68000\libc.a(lib_a-mprec.o)
                              C:/SysGCC/m68k-elf/m68k-elf/lib/m68000\libc.a(lib_a-dtoa.o) (_Balloc)
C:/SysGCC/m68k-elf/m68k-elf/lib/m68000\libc.a(lib_a-readr.o)
                              C:/SysGCC/m68k-elf/m68k-elf/lib/m68000\libc.a(lib_a-stdio.o) (_read_r)
C:/SysGCC/m68k-elf/m68k-elf/lib/m68000\libc.a(lib_a-reallocr.o)
                              C:/SysGCC/m68k-elf/m68k-elf/lib/m68000\libc.a(lib_a-fvwrite.o) (_realloc_r)
C:/SysGCC/m68k-elf/m68k-elf/lib/m68000\libc.a(lib_a-s_fpclassify.o)
                              C:/SysGCC/m68k-elf/m68k-elf/lib/m68000\libc.a(lib_a-vfprintf.o) (__fpclassifyd)
C:/SysGCC/m68k-elf/m68k-elf/lib/m68000\libc.a(lib_a-strcmp.o)
                              C:/SysGCC/m68k-elf/m68k-elf/lib/m68000\libc.a(lib_a-locale.o) (strcmp)
C:/SysGCC/m68k-elf/m68k-elf/lib/m68000\libc.a(lib_a-vfiprintf.o)
                              C:/SysGCC/m68k-elf/m68k-elf/lib/m68000\libc.a(lib_a-vfprintf.o) (__sprint_r)
C:/SysGCC/m68k-elf/m68k-elf/lib/m68000\libc.a(lib_a-callocr.o)
                              C:/SysGCC/m68k-elf/m68k-elf/lib/m68000\libc.a(lib_a-mprec.o) (_calloc_r)
C:/SysGCC/m68k-elf/m68k-elf/lib/m68000\libc.a(lib_a-fputwc.o)
                              C:/SysGCC/m68k-elf/m68k-elf/lib/m68000\libc.a(lib_a-vfiprintf.o) (_fputwc_r)
C:/SysGCC/m68k-elf/m68k-elf/lib/m68000\libc.a(lib_a-fstatr.o)
                              C:/SysGCC/m68k-elf/m68k-elf/lib/m68000\libc.a(lib_a-makebuf.o) (_fstat_r)
C:/SysGCC/m68k-elf/m68k-elf/lib/m68000\libc.a(lib_a-isattyr.o)
                              C:/SysGCC/m68k-elf/m68k-elf/lib/m68000\libc.a(lib_a-makebuf.o) (_isatty_r)
C:/SysGCC/m68k-elf/m68k-elf/lib/m68000\libc.a(lib_a-wbuf.o)
                              C:/SysGCC/m68k-elf/m68k-elf/lib/m68000\libc.a(lib_a-fputwc.o) (__swbuf_r)
C:/SysGCC/m68k-elf/m68k-elf/lib/m68000\libc.a(lib_a-wcrtomb.o)
                              C:/SysGCC/m68k-elf/m68k-elf/lib/m68000\libc.a(lib_a-fputwc.o) (_wcrtomb_r)
C:/SysGCC/m68k-elf/m68k-elf/lib/m68000\libc.a(lib_a-wctomb_r.o)
                              C:/SysGCC/m68k-elf/m68k-elf/lib/m68000\libc.a(lib_a-wcrtomb.o) (__wctomb)
c:/sysgcc/m68k-elf/bin/../lib/gcc/m68k-elf/4.8.0/m68000\libgcc.a(_double.o)
                              C:/SysGCC/m68k-elf/m68k-elf/lib/m68000\libc.a(lib_a-dtoa.o) (__adddf3)
c:/sysgcc/m68k-elf/bin/../lib/gcc/m68k-elf/4.8.0/m68000\libgcc.a(_floatex.o)
                              c:/sysgcc/m68k-elf/bin/../lib/gcc/m68k-elf/4.8.0/m68000\libgcc.a(_double.o) (_fpCCR)
c:/sysgcc/m68k-elf/bin/../lib/gcc/m68k-elf/4.8.0/m68000\libgcc.a(_eqdf2.o)
                              C:/SysGCC/m68k-elf/m68k-elf/lib/m68000\libc.a(lib_a-vfprintf.o) (__eqdf2)
c:/sysgcc/m68k-elf/bin/../lib/gcc/m68k-elf/4.8.0/m68000\libgcc.a(_nedf2.o)
                              C:/SysGCC/m68k-elf/m68k-elf/lib/m68000\libc.a(lib_a-vfprintf.o) (__nedf2)
c:/sysgcc/m68k-elf/bin/../lib/gcc/m68k-elf/4.8.0/m68000\libgcc.a(_gtdf2.o)
                              C:/SysGCC/m68k-elf/m68k-elf/lib/m68000\libc.a(lib_a-dtoa.o) (__gtdf2)
c:/sysgcc/m68k-elf/bin/../lib/gcc/m68k-elf/4.8.0/m68000\libgcc.a(_gedf2.o)
                              C:/SysGCC/m68k-elf/m68k-elf/lib/m68000\libc.a(lib_a-dtoa.o) (__gedf2)
c:/sysgcc/m68k-elf/bin/../lib/gcc/m68k-elf/4.8.0/m68000\libgcc.a(_ltdf2.o)
                              C:/SysGCC/m68k-elf/m68k-elf/lib/m68000\libc.a(lib_a-vfprintf.o) (__ltdf2)
c:/sysgcc/m68k-elf/bin/../lib/gcc/m68k-elf/4.8.0/m68000\libgcc.a(fpgnulib.o)
                              C:/SysGCC/m68k-elf/m68k-elf/lib/m68000\libc.a(lib_a-dtoa.o) (__floatunsidf)
c:/sysgcc/m68k-elf/bin/../lib/gcc/m68k-elf/4.8.0/m68000\libgcc.a(xfgnulib.o)
                              C:/SysGCC/m68k-elf/m68k-elf/lib/m68000\libc.a(lib_a-vfprintf.o) (__truncxfdf2)
C:/SysGCC/m68k-elf/m68k-elf/lib/m68000\libnkc.a(newlib_stubs.o)
                              obj/crt0.o (_device_ary)
C:/SysGCC/m68k-elf/m68k-elf/lib/m68000\libnkc.a(open.o)
                              C:/SysGCC/m68k-elf/m68k-elf/lib/m68000\libnkc.a(newlib_stubs.o) (open)
C:/SysGCC/m68k-elf/m68k-elf/lib/m68000\libnkc.a(close.o)
                              C:/SysGCC/m68k-elf/m68k-elf/lib/m68000\libc.a(lib_a-closer.o) (close)
C:/SysGCC/m68k-elf/m68k-elf/lib/m68000\libnkc.a(isatty.o)
                              C:/SysGCC/m68k-elf/m68k-elf/lib/m68000\libc.a(lib_a-isattyr.o) (isatty)
C:/SysGCC/m68k-elf/m68k-elf/lib/m68000\libnkc.a(lseek.o)
                              C:/SysGCC/m68k-elf/m68k-elf/lib/m68000\libc.a(lib_a-lseekr.o) (lseek)
C:/SysGCC/m68k-elf/m68k-elf/lib/m68000\libnkc.a(read.o)
                              C:/SysGCC/m68k-elf/m68k-elf/lib/m68000\libc.a(lib_a-readr.o) (read)
C:/SysGCC/m68k-elf/m68k-elf/lib/m68000\libnkc.a(stat.o)
                              C:/SysGCC/m68k-elf/m68k-elf/lib/m68000\libc.a(lib_a-fstatr.o) (fstat)
C:/SysGCC/m68k-elf/m68k-elf/lib/m68000\libnkc.a(write.o)
                              C:/SysGCC/m68k-elf/m68k-elf/lib/m68000\libc.a(lib_a-writer.o) (write)
C:/SysGCC/m68k-elf/m68k-elf/lib/m68000\libc.a(lib_a-ctype_.o)
                              C:/SysGCC/m68k-elf/m68k-elf/lib/m68000\libnkc.a(read.o) (__ctype_ptr__)
C:/SysGCC/m68k-elf/m68k-elf/lib/m68000\libc.a(lib_a-errno.o)
                              C:/SysGCC/m68k-elf/m68k-elf/lib/m68000\libnkc.a(open.o) (__errno)
C:/SysGCC/m68k-elf/m68k-elf/lib/m68000\libc.a(lib_a-mktime.o)
                              C:/SysGCC/m68k-elf/m68k-elf/lib/m68000\libnkc.a(newlib_stubs.o) (mktime)
C:/SysGCC/m68k-elf/m68k-elf/lib/m68000\libc.a(lib_a-mktm_r.o)
                              C:/SysGCC/m68k-elf/m68k-elf/lib/m68000\libc.a(lib_a-mktime.o) (__tzcalc_limits)
C:/SysGCC/m68k-elf/m68k-elf/lib/m68000\libc.a(lib_a-signal.o)
                              C:/SysGCC/m68k-elf/m68k-elf/lib/m68000\libnkc.a(read.o) (raise)
C:/SysGCC/m68k-elf/m68k-elf/lib/m68000\libc.a(lib_a-signalr.o)
                              C:/SysGCC/m68k-elf/m68k-elf/lib/m68000\libc.a(lib_a-signal.o) (_kill_r)
C:/SysGCC/m68k-elf/m68k-elf/lib/m68000\libc.a(lib_a-tzlock.o)
                              C:/SysGCC/m68k-elf/m68k-elf/lib/m68000\libc.a(lib_a-mktime.o) (__tz_lock)
C:/SysGCC/m68k-elf/m68k-elf/lib/m68000\libc.a(lib_a-tzvars.o)
                              C:/SysGCC/m68k-elf/m68k-elf/lib/m68000\libc.a(lib_a-mktime.o) (_daylight)
C:/SysGCC/m68k-elf/m68k-elf/lib/m68000\libc.a(lib_a-div.o)
                              C:/SysGCC/m68k-elf/m68k-elf/lib/m68000\libc.a(lib_a-mktime.o) (div)
C:/SysGCC/m68k-elf/m68k-elf/lib/m68000\libc.a(lib_a-gettzinfo.o)
                              C:/SysGCC/m68k-elf/m68k-elf/lib/m68000\libc.a(lib_a-mktime.o) (__gettzinfo)

Allocating common symbols
Common symbol       size              file

args                0x14              obj/crt0.o
errno               0x4               obj/crt0.o
_static_top         0x4               obj/crt0.o
_path               0x8e0             C:/SysGCC/m68k-elf/m68k-elf/lib/m68000\libnkc.a(open.o)
AYchannel           0x4               obj/crt0.o
_mem_top            0x4               obj/crt0.o
AYregister          0x4               obj/crt0.o
lv_global           0x1f4             C:/SysGCC/m68k-elf/m68k-elf/lib/m68000\liblvgl.a(lv_init.o)

Memory Configuration

Name             Origin             Length             Attributes
ram              0x00000000         0x00080000         xrw
*default*        0x00000000         0xffffffff

Linker script and memory map

LOAD obj/crt0.o
LOAD ./obj/lvgl_nkc.o
LOAD C:/SysGCC/m68k-elf/m68k-elf/lib/m68000\liblvgl.a
LOAD c:/sysgcc/m68k-elf/bin/../lib/gcc/m68k-elf/4.8.0/m68000\libgcc.a
LOAD C:/SysGCC/m68k-elf/m68k-elf/lib/m68000\libc.a
LOAD c:/sysgcc/m68k-elf/bin/../lib/gcc/m68k-elf/4.8.0/m68000\libgcc.a
START GROUP
LOAD C:/SysGCC/m68k-elf/m68k-elf/lib/m68000\libnkc.a
LOAD c:/sysgcc/m68k-elf/bin/../lib/gcc/m68k-elf/4.8.0/m68000\libgcc.a
LOAD C:/SysGCC/m68k-elf/m68k-elf/lib/m68000\libc.a
LOAD C:/SysGCC/m68k-elf/m68k-elf/lib/m68000\libm.a
END GROUP
                0x00000000                __DYNAMIC = 0x0
                0x00000000                __ram_start = 0x0
                0x00000400                __prog_start = (__ram_start + 0x400)
                0x00000000                PROVIDE (hardware_init_hook, 0x0)
                0x00000000                PROVIDE (_hardware_init_hook, 0x0)
                0x00000000                PROVIDE (software_init_hook, 0x0)
                0x00000000                PROVIDE (_software_init_hook, 0x0)

/DISCARD/
 */libgcc.a:unwind-dw2.o()

.text           0x00000400    0x114d0
 *(.startup)
 .startup       0x00000400      0x1b4 obj/crt0.o
                0x00000400                _start
 *(.startup)
 *(.rodata .rodata.*)
 .rodata.jados_cmd
                0x000005b4        0x5 obj/crt0.o
 .rodata.str1.1
                0x000005b9       0x88 ./obj/lvgl_nkc.o
 .rodata.str1.1
                0x00000641       0x1e C:/SysGCC/m68k-elf/m68k-elf/lib/m68000\liblvgl.a(lv_fs.o)
                                 0x21 (size before relaxing)
 .rodata.sqq_table.8041
                0x0000065f      0x100 C:/SysGCC/m68k-elf/m68k-elf/lib/m68000\liblvgl.a(lv_math.o)
 *fill*         0x0000075f        0x1 
 .rodata.sin0_90_table
                0x00000760       0xb6 C:/SysGCC/m68k-elf/m68k-elf/lib/m68000\liblvgl.a(lv_math.o)
 .rodata.str1.1
                0x00000816        0x7 C:/SysGCC/m68k-elf/m68k-elf/lib/m68000\liblvgl.a(lv_arc.o)
 *fill*         0x0000081d        0x1 
 .rodata.lv_arc_class
                0x0000081e       0x24 C:/SysGCC/m68k-elf/m68k-elf/lib/m68000\liblvgl.a(lv_arc.o)
                0x0000081e                lv_arc_class
 .rodata.str1.1
                0x00000842        0x7 C:/SysGCC/m68k-elf/m68k-elf/lib/m68000\liblvgl.a(lv_bar.o)
 *fill*         0x00000849        0x1 
 .rodata.lv_bar_class
                0x0000084a       0x24 C:/SysGCC/m68k-elf/m68k-elf/lib/m68000\liblvgl.a(lv_bar.o)
                0x0000084a                lv_bar_class
 .rodata.str1.1
                0x0000086e        0xa C:/SysGCC/m68k-elf/m68k-elf/lib/m68000\liblvgl.a(lv_button.o)
 .rodata.lv_button_class
                0x00000878       0x24 C:/SysGCC/m68k-elf/m68k-elf/lib/m68000\liblvgl.a(lv_button.o)
                0x00000878                lv_button_class
 .rodata.str1.1
                0x0000089c       0x29 C:/SysGCC/m68k-elf/m68k-elf/lib/m68000\liblvgl.a(lv_buttonmatrix.o)
                                 0x2c (size before relaxing)
 *fill*         0x000008c5        0x1 
 .rodata.lv_buttonmatrix_class
                0x000008c6       0x24 C:/SysGCC/m68k-elf/m68k-elf/lib/m68000\liblvgl.a(lv_buttonmatrix.o)
                0x000008c6                lv_buttonmatrix_class
 .rodata.lv_buttonmatrix_def_map
                0x000008ea       0x1c C:/SysGCC/m68k-elf/m68k-elf/lib/m68000\liblvgl.a(lv_buttonmatrix.o)
 .rodata.str1.1
                0x00000906       0x24 C:/SysGCC/m68k-elf/m68k-elf/lib/m68000\liblvgl.a(lv_calendar.o)
                                 0x27 (size before relaxing)
 .rodata.day_names_def
                0x0000092a       0x1c C:/SysGCC/m68k-elf/m68k-elf/lib/m68000\liblvgl.a(lv_calendar.o)
 .rodata.lv_calendar_class
                0x00000946       0x24 C:/SysGCC/m68k-elf/m68k-elf/lib/m68000\liblvgl.a(lv_calendar.o)
                0x00000946                lv_calendar_class
 .rodata.str1.1
                0x0000096a        0x9 C:/SysGCC/m68k-elf/m68k-elf/lib/m68000\liblvgl.a(lv_chart.o)
 *fill*         0x00000973        0x1 
 .rodata.lv_chart_class
                0x00000974       0x24 C:/SysGCC/m68k-elf/m68k-elf/lib/m68000\liblvgl.a(lv_chart.o)
                0x00000974                lv_chart_class
 .rodata.str1.1
                0x00000998       0x16 C:/SysGCC/m68k-elf/m68k-elf/lib/m68000\liblvgl.a(lv_checkbox.o)
 .rodata.lv_checkbox_class
                0x000009ae       0x24 C:/SysGCC/m68k-elf/m68k-elf/lib/m68000\liblvgl.a(lv_checkbox.o)
                0x000009ae                lv_checkbox_class
 .rodata.str1.1
                0x000009d2       0x3c C:/SysGCC/m68k-elf/m68k-elf/lib/m68000\liblvgl.a(lv_dropdown.o)
                                 0x3f (size before relaxing)
 .rodata.lv_dropdownlist_class
                0x00000a0e       0x24 C:/SysGCC/m68k-elf/m68k-elf/lib/m68000\liblvgl.a(lv_dropdown.o)
                0x00000a0e                lv_dropdownlist_class
 .rodata.lv_dropdown_class
                0x00000a32       0x24 C:/SysGCC/m68k-elf/m68k-elf/lib/m68000\liblvgl.a(lv_dropdown.o)
                0x00000a32                lv_dropdown_class
 .rodata.str1.1
                0x00000a56       0x95 C:/SysGCC/m68k-elf/m68k-elf/lib/m68000\liblvgl.a(lv_keyboard.o)
                                 0xf6 (size before relaxing)
 *fill*         0x00000aeb        0x1 
 .rodata.default_kb_ctrl_num_map
                0x00000aec       0x44 C:/SysGCC/m68k-elf/m68k-elf/lib/m68000\liblvgl.a(lv_keyboard.o)
 .rodata.default_kb_map_num
                0x00000b30       0x54 C:/SysGCC/m68k-elf/m68k-elf/lib/m68000\liblvgl.a(lv_keyboard.o)
 .rodata.default_kb_ctrl_spec_map
                0x00000b84       0xa0 C:/SysGCC/m68k-elf/m68k-elf/lib/m68000\liblvgl.a(lv_keyboard.o)
 .rodata.default_kb_map_spec
                0x00000c24       0xb0 C:/SysGCC/m68k-elf/m68k-elf/lib/m68000\liblvgl.a(lv_keyboard.o)
 .rodata.default_kb_ctrl_uc_map
                0x00000cd4       0xa0 C:/SysGCC/m68k-elf/m68k-elf/lib/m68000\liblvgl.a(lv_keyboard.o)
 .rodata.default_kb_map_uc
                0x00000d74       0xb0 C:/SysGCC/m68k-elf/m68k-elf/lib/m68000\liblvgl.a(lv_keyboard.o)
 .rodata.default_kb_ctrl_lc_map
                0x00000e24       0xa0 C:/SysGCC/m68k-elf/m68k-elf/lib/m68000\liblvgl.a(lv_keyboard.o)
 .rodata.default_kb_map_lc
                0x00000ec4       0xb0 C:/SysGCC/m68k-elf/m68k-elf/lib/m68000\liblvgl.a(lv_keyboard.o)
 .rodata.lv_keyboard_class
                0x00000f74       0x24 C:/SysGCC/m68k-elf/m68k-elf/lib/m68000\liblvgl.a(lv_keyboard.o)
                0x00000f74                lv_keyboard_class
 .rodata.str1.1
                0x00000f98        0xe C:/SysGCC/m68k-elf/m68k-elf/lib/m68000\liblvgl.a(lv_label.o)
                                 0x11 (size before relaxing)
 .rodata.lv_label_class
                0x00000fa6       0x24 C:/SysGCC/m68k-elf/m68k-elf/lib/m68000\liblvgl.a(lv_label.o)
                0x00000fa6                lv_label_class
 .rodata.str1.1
                0x00000fca        0x7 C:/SysGCC/m68k-elf/m68k-elf/lib/m68000\liblvgl.a(lv_led.o)
 *fill*         0x00000fd1        0x1 
 .rodata.lv_led_class
                0x00000fd2       0x24 C:/SysGCC/m68k-elf/m68k-elf/lib/m68000\liblvgl.a(lv_led.o)
                0x00000fd2                lv_led_class
 .rodata.str1.1
                0x00000ff6       0x24 C:/SysGCC/m68k-elf/m68k-elf/lib/m68000\liblvgl.a(lv_list.o)
                                 0x25 (size before relaxing)
 .rodata.lv_list_text_class
                0x0000101a       0x24 C:/SysGCC/m68k-elf/m68k-elf/lib/m68000\liblvgl.a(lv_list.o)
                0x0000101a                lv_list_text_class
 .rodata.lv_list_button_class
                0x0000103e       0x24 C:/SysGCC/m68k-elf/m68k-elf/lib/m68000\liblvgl.a(lv_list.o)
                0x0000103e                lv_list_button_class
 .rodata.lv_list_class
                0x00001062       0x24 C:/SysGCC/m68k-elf/m68k-elf/lib/m68000\liblvgl.a(lv_list.o)
                0x00001062                lv_list_class
 .rodata.str1.1
                0x00001086       0x81 C:/SysGCC/m68k-elf/m68k-elf/lib/m68000\liblvgl.a(lv_msgbox.o)
                                 0x86 (size before relaxing)
 *fill*         0x00001107        0x1 
 .rodata.lv_msgbox_backdrop_class
                0x00001108       0x24 C:/SysGCC/m68k-elf/m68k-elf/lib/m68000\liblvgl.a(lv_msgbox.o)
                0x00001108                lv_msgbox_backdrop_class
 .rodata.lv_msgbox_header_button_class
                0x0000112c       0x24 C:/SysGCC/m68k-elf/m68k-elf/lib/m68000\liblvgl.a(lv_msgbox.o)
                0x0000112c                lv_msgbox_header_button_class
 .rodata.lv_msgbox_footer_button_class
                0x00001150       0x24 C:/SysGCC/m68k-elf/m68k-elf/lib/m68000\liblvgl.a(lv_msgbox.o)
                0x00001150                lv_msgbox_footer_button_class
 .rodata.lv_msgbox_footer_class
                0x00001174       0x24 C:/SysGCC/m68k-elf/m68k-elf/lib/m68000\liblvgl.a(lv_msgbox.o)
                0x00001174                lv_msgbox_footer_class
 .rodata.lv_msgbox_content_class
                0x00001198       0x24 C:/SysGCC/m68k-elf/m68k-elf/lib/m68000\liblvgl.a(lv_msgbox.o)
                0x00001198                lv_msgbox_content_class
 .rodata.lv_msgbox_header_class
                0x000011bc       0x24 C:/SysGCC/m68k-elf/m68k-elf/lib/m68000\liblvgl.a(lv_msgbox.o)
                0x000011bc                lv_msgbox_header_class
 .rodata.lv_msgbox_class
                0x000011e0       0x24 C:/SysGCC/m68k-elf/m68k-elf/lib/m68000\liblvgl.a(lv_msgbox.o)
                0x000011e0                lv_msgbox_class
 .rodata.str1.1
                0x00001204       0x47 C:/SysGCC/m68k-elf/m68k-elf/lib/m68000\liblvgl.a(lv_roller.o)
 *fill*         0x0000124b        0x1 
 .rodata.lv_roller_label_class
                0x0000124c       0x24 C:/SysGCC/m68k-elf/m68k-elf/lib/m68000\liblvgl.a(lv_roller.o)
                0x0000124c                lv_roller_label_class
 .rodata.lv_roller_class
                0x00001270       0x24 C:/SysGCC/m68k-elf/m68k-elf/lib/m68000\liblvgl.a(lv_roller.o)
                0x00001270                lv_roller_class
 .rodata.str1.1
                0x00001294        0xa C:/SysGCC/m68k-elf/m68k-elf/lib/m68000\liblvgl.a(lv_slider.o)
 .rodata.lv_slider_class
                0x0000129e       0x24 C:/SysGCC/m68k-elf/m68k-elf/lib/m68000\liblvgl.a(lv_slider.o)
                0x0000129e                lv_slider_class
 .rodata.str1.1
                0x000012c2       0x10 C:/SysGCC/m68k-elf/m68k-elf/lib/m68000\liblvgl.a(lv_span.o)
                                 0x18 (size before relaxing)
 .rodata.lv_spangroup_class
                0x000012d2       0x24 C:/SysGCC/m68k-elf/m68k-elf/lib/m68000\liblvgl.a(lv_span.o)
                0x000012d2                lv_spangroup_class
 .rodata.str1.1
                0x000012f6        0xb C:/SysGCC/m68k-elf/m68k-elf/lib/m68000\liblvgl.a(lv_spinbox.o)
                                  0xe (size before relaxing)
 *fill*         0x00001301        0x1 
 .rodata.lv_spinbox_class
                0x00001302       0x24 C:/SysGCC/m68k-elf/m68k-elf/lib/m68000\liblvgl.a(lv_spinbox.o)
                0x00001302                lv_spinbox_class
 .rodata.str1.1
                0x00001326        0xb C:/SysGCC/m68k-elf/m68k-elf/lib/m68000\liblvgl.a(lv_spinner.o)
 *fill*         0x00001331        0x1 
 .rodata.lv_spinner_class
                0x00001332       0x24 C:/SysGCC/m68k-elf/m68k-elf/lib/m68000\liblvgl.a(lv_spinner.o)
                0x00001332                lv_spinner_class
 .rodata.str1.1
                0x00001356        0xa C:/SysGCC/m68k-elf/m68k-elf/lib/m68000\liblvgl.a(lv_switch.o)
 .rodata.lv_switch_class
                0x00001360       0x24 C:/SysGCC/m68k-elf/m68k-elf/lib/m68000\liblvgl.a(lv_switch.o)
                0x00001360                lv_switch_class
 .rodata.str1.1
                0x00001384        0x9 C:/SysGCC/m68k-elf/m68k-elf/lib/m68000\liblvgl.a(lv_table.o)
                                  0xa (size before relaxing)
 *fill*         0x0000138d        0x1 
 .rodata.lv_table_class
                0x0000138e       0x24 C:/SysGCC/m68k-elf/m68k-elf/lib/m68000\liblvgl.a(lv_table.o)
                0x0000138e                lv_table_class
 .rodata.str1.1
                0x000013b2        0xb C:/SysGCC/m68k-elf/m68k-elf/lib/m68000\liblvgl.a(lv_tabview.o)
 *fill*         0x000013bd        0x1 
 .rodata.lv_tabview_class
                0x000013be       0x24 C:/SysGCC/m68k-elf/m68k-elf/lib/m68000\liblvgl.a(lv_tabview.o)
                0x000013be                lv_tabview_class
 .rodata.str1.1
                0x000013e2       0x10 C:/SysGCC/m68k-elf/m68k-elf/lib/m68000\liblvgl.a(lv_textarea.o)
                                 0x13 (size before relaxing)
 .rodata.lv_textarea_class
                0x000013f2       0x24 C:/SysGCC/m68k-elf/m68k-elf/lib/m68000\liblvgl.a(lv_textarea.o)
                0x000013f2                lv_textarea_class
 .rodata.str1.1
                0x00001416       0x14 C:/SysGCC/m68k-elf/m68k-elf/lib/m68000\liblvgl.a(lv_tileview.o)
 .rodata.lv_tileview_tile_class
                0x0000142a       0x24 C:/SysGCC/m68k-elf/m68k-elf/lib/m68000\liblvgl.a(lv_tileview.o)
                0x0000142a                lv_tileview_tile_class
 .rodata.lv_tileview_class
                0x0000144e       0x24 C:/SysGCC/m68k-elf/m68k-elf/lib/m68000\liblvgl.a(lv_tileview.o)
                0x0000144e                lv_tileview_class
 .rodata.str1.1
                0x00001472        0x7 C:/SysGCC/m68k-elf/m68k-elf/lib/m68000\liblvgl.a(lv_win.o)
 *fill*         0x00001479        0x1 
 .rodata.lv_win_class
                0x0000147a       0x24 C:/SysGCC/m68k-elf/m68k-elf/lib/m68000\liblvgl.a(lv_win.o)
                0x0000147a                lv_win_class
 .rodata.str1.1
                0x0000149e        0x7 C:/SysGCC/m68k-elf/m68k-elf/lib/m68000\liblvgl.a(lv_obj.o)
 *fill*         0x000014a5        0x1 
 .rodata.lv_obj_class
                0x000014a6       0x24 C:/SysGCC/m68k-elf/m68k-elf/lib/m68000\liblvgl.a(lv_obj.o)
                0x000014a6                lv_obj_class
 .rodata.str1.1
                0x00000000        0x1 C:/SysGCC/m68k-elf/m68k-elf/lib/m68000\liblvgl.a(lv_observer.o)
 .rodata.CSWTCH.7
                0x000014ca        0xd C:/SysGCC/m68k-elf/m68k-elf/lib/m68000\liblvgl.a(lv_draw.o)
 *fill*         0x000014d7        0x1 
 .rodata        0x000014d8       0x10 C:/SysGCC/m68k-elf/m68k-elf/lib/m68000\liblvgl.a(lv_draw_image.o)
 .rodata.str1.1
                0x000014e8        0x3 C:/SysGCC/m68k-elf/m68k-elf/lib/m68000\liblvgl.a(lv_draw_sw.o)
 .rodata.wcorr.7753
                0x000014eb       0x21 C:/SysGCC/m68k-elf/m68k-elf/lib/m68000\liblvgl.a(lv_draw_sw_line.o)
 .rodata.lv_font_montserrat_12
                0x0000150c       0x24 C:/SysGCC/m68k-elf/m68k-elf/lib/m68000\liblvgl.a(lv_font_montserrat_12.o)
                0x0000150c                lv_font_montserrat_12
 .rodata.font_dsc
                0x00001530       0x16 C:/SysGCC/m68k-elf/m68k-elf/lib/m68000\liblvgl.a(lv_font_montserrat_12.o)
 .rodata.kern_classes
                0x00001546        0xe C:/SysGCC/m68k-elf/m68k-elf/lib/m68000\liblvgl.a(lv_font_montserrat_12.o)
 .rodata.kern_class_values
                0x00001554      0xbad C:/SysGCC/m68k-elf/m68k-elf/lib/m68000\liblvgl.a(lv_font_montserrat_12.o)
 .rodata.kern_right_class_mapping
                0x00002101       0x9e C:/SysGCC/m68k-elf/m68k-elf/lib/m68000\liblvgl.a(lv_font_montserrat_12.o)
 .rodata.kern_left_class_mapping
                0x0000219f       0x9e C:/SysGCC/m68k-elf/m68k-elf/lib/m68000\liblvgl.a(lv_font_montserrat_12.o)
 *fill*         0x0000223d        0x1 
 .rodata.cmaps  0x0000223e       0x2c C:/SysGCC/m68k-elf/m68k-elf/lib/m68000\liblvgl.a(lv_font_montserrat_12.o)
 .rodata.unicode_list_1
                0x0000226a       0x7c C:/SysGCC/m68k-elf/m68k-elf/lib/m68000\liblvgl.a(lv_font_montserrat_12.o)
 .rodata.glyph_dsc
                0x000022e6      0x4f0 C:/SysGCC/m68k-elf/m68k-elf/lib/m68000\liblvgl.a(lv_font_montserrat_12.o)
 .rodata.glyph_bitmap
                0x000027d6     0x1a0f C:/SysGCC/m68k-elf/m68k-elf/lib/m68000\liblvgl.a(lv_font_montserrat_12.o)
 .rodata.str1.1
                0x000041e5        0x8 C:/SysGCC/m68k-elf/m68k-elf/lib/m68000\liblvgl.a(lv_bin_decoder.o)
 .rodata.str1.1
                0x000041ed        0x6 C:/SysGCC/m68k-elf/m68k-elf/lib/m68000\liblvgl.a(lv_image_cache.o)
 *fill*         0x000041f3        0x1 
 .rodata        0x000041f4        0xc C:/SysGCC/m68k-elf/m68k-elf/lib/m68000\liblvgl.a(lv_image_cache.o)
 .rodata.str1.1
                0x00004200        0xd C:/SysGCC/m68k-elf/m68k-elf/lib/m68000\liblvgl.a(lv_image_header_cache.o)
 *fill*         0x0000420d        0x1 
 .rodata        0x0000420e        0xc C:/SysGCC/m68k-elf/m68k-elf/lib/m68000\liblvgl.a(lv_image_header_cache.o)
 .rodata.CSWTCH.7
                0x0000421a       0x30 C:/SysGCC/m68k-elf/m68k-elf/lib/m68000\liblvgl.a(lv_color.o)
 .rodata.lv_color_filter_shade
                0x0000424a        0x8 C:/SysGCC/m68k-elf/m68k-elf/lib/m68000\liblvgl.a(lv_color.o)
                0x0000424a                lv_color_filter_shade
 .rodata.str1.1
                0x00004252      0x50a C:/SysGCC/m68k-elf/m68k-elf/lib/m68000\liblvgl.a(lv_event.o)
 .rodata.CSWTCH.38
                0x0000475c      0x114 C:/SysGCC/m68k-elf/m68k-elf/lib/m68000\liblvgl.a(lv_event.o)
 .rodata.colors.2052
                0x00004870       0xe4 C:/SysGCC/m68k-elf/m68k-elf/lib/m68000\liblvgl.a(lv_palette.o)
 .rodata.colors.2047
                0x00004954      0x11d C:/SysGCC/m68k-elf/m68k-elf/lib/m68000\liblvgl.a(lv_palette.o)
 .rodata.colors.2042
                0x00004a71       0x39 C:/SysGCC/m68k-elf/m68k-elf/lib/m68000\liblvgl.a(lv_palette.o)
 .rodata.white.8076
                0x00004aaa        0x3 C:/SysGCC/m68k-elf/m68k-elf/lib/m68000\liblvgl.a(lv_style.o)
 .rodata.lv_style_builtin_prop_flag_lookup_table
                0x00004aad       0xb1 C:/SysGCC/m68k-elf/m68k-elf/lib/m68000\liblvgl.a(lv_style.o)
                0x00004aad                lv_style_builtin_prop_flag_lookup_table
 .rodata.lv_style_const_prop_id_inv
                0x00004b5e        0x1 C:/SysGCC/m68k-elf/m68k-elf/lib/m68000\liblvgl.a(lv_style.o)
                0x00004b5e                lv_style_const_prop_id_inv
 .rodata.str1.1
                0x00000000        0x8 C:/SysGCC/m68k-elf/m68k-elf/lib/m68000\liblvgl.a(lv_text.o)
 *fill*         0x00004b5f        0x1 
 .rodata.lv_text_get_encoded_length
                0x00004b60        0x4 C:/SysGCC/m68k-elf/m68k-elf/lib/m68000\liblvgl.a(lv_text.o)
                0x00004b60                lv_text_get_encoded_length
 .rodata.lv_text_encoded_get_char_id
                0x00004b64        0x4 C:/SysGCC/m68k-elf/m68k-elf/lib/m68000\liblvgl.a(lv_text.o)
                0x00004b64                lv_text_encoded_get_char_id
 .rodata.lv_text_encoded_get_byte_id
                0x00004b68        0x4 C:/SysGCC/m68k-elf/m68k-elf/lib/m68000\liblvgl.a(lv_text.o)
                0x00004b68                lv_text_encoded_get_byte_id
 .rodata.lv_text_encoded_prev
                0x00004b6c        0x4 C:/SysGCC/m68k-elf/m68k-elf/lib/m68000\liblvgl.a(lv_text.o)
                0x00004b6c                lv_text_encoded_prev
 .rodata.lv_text_encoded_next
                0x00004b70        0x4 C:/SysGCC/m68k-elf/m68k-elf/lib/m68000\liblvgl.a(lv_text.o)
                0x00004b70                lv_text_encoded_next
 .rodata.lv_text_encoded_conv_wc
                0x00004b74        0x4 C:/SysGCC/m68k-elf/m68k-elf/lib/m68000\liblvgl.a(lv_text.o)
                0x00004b74                lv_text_encoded_conv_wc
 .rodata.lv_text_unicode_to_encoded
                0x00004b78        0x4 C:/SysGCC/m68k-elf/m68k-elf/lib/m68000\liblvgl.a(lv_text.o)
                0x00004b78                lv_text_unicode_to_encoded
 .rodata.lv_text_encoded_size
                0x00004b7c        0x4 C:/SysGCC/m68k-elf/m68k-elf/lib/m68000\liblvgl.a(lv_text.o)
                0x00004b7c                lv_text_encoded_size
 .rodata.str1.1
                0x00004b80        0x9 C:/SysGCC/m68k-elf/m68k-elf/lib/m68000\liblvgl.a(lv_image.o)
 *fill*         0x00004b89        0x1 
 .rodata.lv_image_class
                0x00004b8a       0x24 C:/SysGCC/m68k-elf/m68k-elf/lib/m68000\liblvgl.a(lv_image.o)
                0x00004b8a                lv_image_class
 .rodata.lv_builtin_font_class
                0x00004bae       0x10 C:/SysGCC/m68k-elf/m68k-elf/lib/m68000\liblvgl.a(lv_font_fmt_txt.o)
                0x00004bae                lv_builtin_font_class
 .rodata.opa2_table
                0x00004bbe        0x4 C:/SysGCC/m68k-elf/m68k-elf/lib/m68000\liblvgl.a(lv_font_fmt_txt.o)
 .rodata.opa4_table
                0x00004bc2       0x10 C:/SysGCC/m68k-elf/m68k-elf/lib/m68000\liblvgl.a(lv_font_fmt_txt.o)
 .rodata.lv_cache_class_lru_rb_size
                0x00004bd2       0x2c C:/SysGCC/m68k-elf/m68k-elf/lib/m68000\liblvgl.a(lv_cache_lru_rb.o)
                0x00004bd2                lv_cache_class_lru_rb_size
 .rodata.lv_cache_class_lru_rb_count
                0x00004bfe       0x2c C:/SysGCC/m68k-elf/m68k-elf/lib/m68000\liblvgl.a(lv_cache_lru_rb.o)
                0x00004bfe                lv_cache_class_lru_rb_count
 .rodata        0x00004c2a      0x100 c:/sysgcc/m68k-elf/bin/../lib/gcc/m68k-elf/4.8.0/m68000\libgcc.a(_clz.o)
                0x00004c2a                __clz_tab
 .rodata        0x00004d2a        0x4 C:/SysGCC/m68k-elf/m68k-elf/lib/m68000\libc.a(lib_a-impure.o)
                0x00004d2a                _global_impure_ptr
 .rodata.str1.1
                0x00000000        0x2 C:/SysGCC/m68k-elf/m68k-elf/lib/m68000\libc.a(lib_a-impure.o)
 .rodata.str1.1
                0x00000000        0x2 C:/SysGCC/m68k-elf/m68k-elf/lib/m68000\libc.a(lib_a-puts.o)
 .rodata.str1.1
                0x00004d2e       0x39 C:/SysGCC/m68k-elf/m68k-elf/lib/m68000\libc.a(lib_a-vfprintf.o)
                                 0x3b (size before relaxing)
 .rodata        0x00004d67       0x20 C:/SysGCC/m68k-elf/m68k-elf/lib/m68000\libc.a(lib_a-vfprintf.o)
 .rodata.str1.1
                0x00004d87        0xd C:/SysGCC/m68k-elf/m68k-elf/lib/m68000\libc.a(lib_a-dtoa.o)
                                  0xf (size before relaxing)
 .rodata.str1.1
                0x00004d94        0x6 C:/SysGCC/m68k-elf/m68k-elf/lib/m68000\libc.a(lib_a-locale.o)
                                  0xb (size before relaxing)
 .rodata        0x00004d9a      0x124 C:/SysGCC/m68k-elf/m68k-elf/lib/m68000\libc.a(lib_a-mprec.o)
                0x00004da6                __mprec_tinytens
                0x00004dce                __mprec_bigtens
                0x00004df6                __mprec_tens
 .rodata.str1.1
                0x00000000       0x29 C:/SysGCC/m68k-elf/m68k-elf/lib/m68000\libc.a(lib_a-vfiprintf.o)
 .rodata        0x00004ebe       0x20 C:/SysGCC/m68k-elf/m68k-elf/lib/m68000\libc.a(lib_a-vfiprintf.o)
 .rodata        0x00004ede       0x42 C:/SysGCC/m68k-elf/m68k-elf/lib/m68000\libnkc.a(newlib_stubs.o)
 .rodata.str1.1
                0x00004f20        0xa C:/SysGCC/m68k-elf/m68k-elf/lib/m68000\libnkc.a(newlib_stubs.o)
 .rodata.str1.1
                0x00004f2a       0x1a C:/SysGCC/m68k-elf/m68k-elf/lib/m68000\libnkc.a(open.o)
 .rodata.str1.1
                0x00004f44        0x4 C:/SysGCC/m68k-elf/m68k-elf/lib/m68000\libnkc.a(read.o)
 .rodata        0x00004f48      0x101 C:/SysGCC/m68k-elf/m68k-elf/lib/m68000\libc.a(lib_a-ctype_.o)
                0x00004f48                _ctype_
 *fill*         0x00005049        0x1 
 .rodata        0x0000504a       0x60 C:/SysGCC/m68k-elf/m68k-elf/lib/m68000\libc.a(lib_a-mktime.o)
 .rodata        0x000050aa       0x68 C:/SysGCC/m68k-elf/m68k-elf/lib/m68000\libc.a(lib_a-mktm_r.o)
 .rodata.str1.1
                0x00005112        0x4 C:/SysGCC/m68k-elf/m68k-elf/lib/m68000\libc.a(lib_a-tzvars.o)
 *(.gcc_except_table)
 *(.eh_frame)
 *fill*         0x00005116        0x2 
 .eh_frame      0x00005118       0x44 c:/sysgcc/m68k-elf/bin/../lib/gcc/m68k-elf/4.8.0/m68000\libgcc.a(_divdi3.o)
 .eh_frame      0x0000515c       0x2c c:/sysgcc/m68k-elf/bin/../lib/gcc/m68k-elf/4.8.0/m68000\libgcc.a(_udivdi3.o)
                                 0x44 (size before relaxing)
 .eh_frame      0x00005188       0x2c c:/sysgcc/m68k-elf/bin/../lib/gcc/m68k-elf/4.8.0/m68000\libgcc.a(_umoddi3.o)
                                 0x44 (size before relaxing)
 *(.text)
 .text          0x000051b4        0x0 obj/crt0.o
 .text          0x000051b4        0x0 ./obj/lvgl_nkc.o
 .text          0x000051b4        0x0 C:/SysGCC/m68k-elf/m68k-elf/lib/m68000\liblvgl.a(lv_tick.o)
 .text          0x000051b4        0x0 C:/SysGCC/m68k-elf/m68k-elf/lib/m68000\liblvgl.a(lv_init.o)
 .text          0x000051b4        0x0 C:/SysGCC/m68k-elf/m68k-elf/lib/m68000\liblvgl.a(lv_anim.o)
 .text          0x000051b4        0x0 C:/SysGCC/m68k-elf/m68k-elf/lib/m68000\liblvgl.a(lv_fs.o)
 .text          0x000051b4        0x0 C:/SysGCC/m68k-elf/m68k-elf/lib/m68000\liblvgl.a(lv_ll.o)
 .text          0x000051b4        0x0 C:/SysGCC/m68k-elf/m68k-elf/lib/m68000\liblvgl.a(lv_math.o)
 .text          0x000051b4        0x0 C:/SysGCC/m68k-elf/m68k-elf/lib/m68000\liblvgl.a(lv_timer.o)
 .text          0x000051b4        0x0 C:/SysGCC/m68k-elf/m68k-elf/lib/m68000\liblvgl.a(lv_os.o)
 .text          0x000051b4        0x0 C:/SysGCC/m68k-elf/m68k-elf/lib/m68000\liblvgl.a(lv_mem_core_builtin.o)
 .text          0x000051b4        0x0 C:/SysGCC/m68k-elf/m68k-elf/lib/m68000\liblvgl.a(lv_sprintf_builtin.o)
 .text          0x000051b4        0x0 C:/SysGCC/m68k-elf/m68k-elf/lib/m68000\liblvgl.a(lv_string_builtin.o)
 .text          0x000051b4        0x0 C:/SysGCC/m68k-elf/m68k-elf/lib/m68000\liblvgl.a(lv_tlsf.o)
 .text          0x000051b4        0x0 C:/SysGCC/m68k-elf/m68k-elf/lib/m68000\liblvgl.a(lv_mem.o)
 .text          0x000051b4        0x0 C:/SysGCC/m68k-elf/m68k-elf/lib/m68000\liblvgl.a(lv_theme_mono.o)
 .text          0x000051b4        0x0 C:/SysGCC/m68k-elf/m68k-elf/lib/m68000\liblvgl.a(lv_theme_simple.o)
 .text          0x000051b4        0x0 C:/SysGCC/m68k-elf/m68k-elf/lib/m68000\liblvgl.a(lv_arc.o)
 .text          0x000051b4        0x0 C:/SysGCC/m68k-elf/m68k-elf/lib/m68000\liblvgl.a(lv_bar.o)
 .text          0x000051b4        0x0 C:/SysGCC/m68k-elf/m68k-elf/lib/m68000\liblvgl.a(lv_button.o)
 .text          0x000051b4        0x0 C:/SysGCC/m68k-elf/m68k-elf/lib/m68000\liblvgl.a(lv_buttonmatrix.o)
 .text          0x000051b4        0x0 C:/SysGCC/m68k-elf/m68k-elf/lib/m68000\liblvgl.a(lv_calendar.o)
 .text          0x000051b4        0x0 C:/SysGCC/m68k-elf/m68k-elf/lib/m68000\liblvgl.a(lv_chart.o)
 .text          0x000051b4        0x0 C:/SysGCC/m68k-elf/m68k-elf/lib/m68000\liblvgl.a(lv_checkbox.o)
 .text          0x000051b4        0x0 C:/SysGCC/m68k-elf/m68k-elf/lib/m68000\liblvgl.a(lv_dropdown.o)
 .text          0x000051b4        0x0 C:/SysGCC/m68k-elf/m68k-elf/lib/m68000\liblvgl.a(lv_keyboard.o)
 .text          0x000051b4        0x0 C:/SysGCC/m68k-elf/m68k-elf/lib/m68000\liblvgl.a(lv_label.o)
 .text          0x000051b4        0x0 C:/SysGCC/m68k-elf/m68k-elf/lib/m68000\liblvgl.a(lv_led.o)
 .text          0x000051b4        0x0 C:/SysGCC/m68k-elf/m68k-elf/lib/m68000\liblvgl.a(lv_list.o)
 .text          0x000051b4        0x0 C:/SysGCC/m68k-elf/m68k-elf/lib/m68000\liblvgl.a(lv_msgbox.o)
 .text          0x000051b4        0x0 C:/SysGCC/m68k-elf/m68k-elf/lib/m68000\liblvgl.a(lv_roller.o)
 .text          0x000051b4        0x0 C:/SysGCC/m68k-elf/m68k-elf/lib/m68000\liblvgl.a(lv_slider.o)
 .text          0x000051b4        0x0 C:/SysGCC/m68k-elf/m68k-elf/lib/m68000\liblvgl.a(lv_span.o)
 .text          0x000051b4        0x0 C:/SysGCC/m68k-elf/m68k-elf/lib/m68000\liblvgl.a(lv_spinbox.o)
 .text          0x000051b4        0x0 C:/SysGCC/m68k-elf/m68k-elf/lib/m68000\liblvgl.a(lv_spinner.o)
 .text          0x000051b4        0x0 C:/SysGCC/m68k-elf/m68k-elf/lib/m68000\liblvgl.a(lv_switch.o)
 .text          0x000051b4        0x0 C:/SysGCC/m68k-elf/m68k-elf/lib/m68000\liblvgl.a(lv_table.o)
 .text          0x000051b4        0x0 C:/SysGCC/m68k-elf/m68k-elf/lib/m68000\liblvgl.a(lv_tabview.o)
 .text          0x000051b4        0x0 C:/SysGCC/m68k-elf/m68k-elf/lib/m68000\liblvgl.a(lv_textarea.o)
 .text          0x000051b4        0x0 C:/SysGCC/m68k-elf/m68k-elf/lib/m68000\liblvgl.a(lv_tileview.o)
 .text          0x000051b4        0x0 C:/SysGCC/m68k-elf/m68k-elf/lib/m68000\liblvgl.a(lv_win.o)
 .text          0x000051b4        0x0 C:/SysGCC/m68k-elf/m68k-elf/lib/m68000\liblvgl.a(lv_group.o)
 .text          0x000051b4        0x0 C:/SysGCC/m68k-elf/m68k-elf/lib/m68000\liblvgl.a(lv_obj.o)
 .text          0x000051b4        0x0 C:/SysGCC/m68k-elf/m68k-elf/lib/m68000\liblvgl.a(lv_obj_class.o)
 .text          0x000051b4        0x0 C:/SysGCC/m68k-elf/m68k-elf/lib/m68000\liblvgl.a(lv_obj_draw.o)
 .text          0x000051b4        0x0 C:/SysGCC/m68k-elf/m68k-elf/lib/m68000\liblvgl.a(lv_obj_event.o)
 .text          0x000051b4        0x0 C:/SysGCC/m68k-elf/m68k-elf/lib/m68000\liblvgl.a(lv_obj_pos.o)
 .text          0x000051b4        0x0 C:/SysGCC/m68k-elf/m68k-elf/lib/m68000\liblvgl.a(lv_obj_scroll.o)
 .text          0x000051b4        0x0 C:/SysGCC/m68k-elf/m68k-elf/lib/m68000\liblvgl.a(lv_obj_style.o)
 .text          0x000051b4        0x0 C:/SysGCC/m68k-elf/m68k-elf/lib/m68000\liblvgl.a(lv_obj_style_gen.o)
 .text          0x000051b4        0x0 C:/SysGCC/m68k-elf/m68k-elf/lib/m68000\liblvgl.a(lv_obj_tree.o)
 .text          0x000051b4        0x0 C:/SysGCC/m68k-elf/m68k-elf/lib/m68000\liblvgl.a(lv_observer.o)
 .text          0x000051b4        0x0 C:/SysGCC/m68k-elf/m68k-elf/lib/m68000\liblvgl.a(lv_refr.o)
 .text          0x000051b4        0x0 C:/SysGCC/m68k-elf/m68k-elf/lib/m68000\liblvgl.a(lv_display.o)
 .text          0x000051b4        0x0 C:/SysGCC/m68k-elf/m68k-elf/lib/m68000\liblvgl.a(lv_draw.o)
 .text          0x000051b4        0x0 C:/SysGCC/m68k-elf/m68k-elf/lib/m68000\liblvgl.a(lv_draw_arc.o)
 .text          0x000051b4        0x0 C:/SysGCC/m68k-elf/m68k-elf/lib/m68000\liblvgl.a(lv_draw_blur.o)
 .text          0x000051b4        0x0 C:/SysGCC/m68k-elf/m68k-elf/lib/m68000\liblvgl.a(lv_draw_buf.o)
 .text          0x000051b4        0x0 C:/SysGCC/m68k-elf/m68k-elf/lib/m68000\liblvgl.a(lv_draw_image.o)
 .text          0x000051b4        0x0 C:/SysGCC/m68k-elf/m68k-elf/lib/m68000\liblvgl.a(lv_draw_label.o)
 .text          0x000051b4        0x0 C:/SysGCC/m68k-elf/m68k-elf/lib/m68000\liblvgl.a(lv_draw_line.o)
 .text          0x000051b4        0x0 C:/SysGCC/m68k-elf/m68k-elf/lib/m68000\liblvgl.a(lv_draw_mask.o)
 .text          0x000051b4        0x0 C:/SysGCC/m68k-elf/m68k-elf/lib/m68000\liblvgl.a(lv_draw_rect.o)
 .text          0x000051b4        0x0 C:/SysGCC/m68k-elf/m68k-elf/lib/m68000\liblvgl.a(lv_image_decoder.o)
 .text          0x000051b4        0x0 C:/SysGCC/m68k-elf/m68k-elf/lib/m68000\liblvgl.a(lv_draw_sw.o)
 .text          0x000051b4        0x0 C:/SysGCC/m68k-elf/m68k-elf/lib/m68000\liblvgl.a(lv_draw_sw_arc.o)
 .text          0x000051b4        0x0 C:/SysGCC/m68k-elf/m68k-elf/lib/m68000\liblvgl.a(lv_draw_sw_blur.o)
 .text          0x000051b4        0x0 C:/SysGCC/m68k-elf/m68k-elf/lib/m68000\liblvgl.a(lv_draw_sw_border.o)
 .text          0x000051b4        0x0 C:/SysGCC/m68k-elf/m68k-elf/lib/m68000\liblvgl.a(lv_draw_sw_box_shadow.o)
 .text          0x000051b4        0x0 C:/SysGCC/m68k-elf/m68k-elf/lib/m68000\liblvgl.a(lv_draw_sw_fill.o)
 .text          0x000051b4        0x0 C:/SysGCC/m68k-elf/m68k-elf/lib/m68000\liblvgl.a(lv_draw_sw_grad.o)
 .text          0x000051b4        0x0 C:/SysGCC/m68k-elf/m68k-elf/lib/m68000\liblvgl.a(lv_draw_sw_img.o)
 .text          0x000051b4        0x0 C:/SysGCC/m68k-elf/m68k-elf/lib/m68000\liblvgl.a(lv_draw_sw_letter.o)
 .text          0x000051b4        0x0 C:/SysGCC/m68k-elf/m68k-elf/lib/m68000\liblvgl.a(lv_draw_sw_line.o)
 .text          0x000051b4        0x0 C:/SysGCC/m68k-elf/m68k-elf/lib/m68000\liblvgl.a(lv_draw_sw_mask.o)
 .text          0x000051b4        0x0 C:/SysGCC/m68k-elf/m68k-elf/lib/m68000\liblvgl.a(lv_draw_sw_mask_rect.o)
 .text          0x000051b4        0x0 C:/SysGCC/m68k-elf/m68k-elf/lib/m68000\liblvgl.a(lv_draw_sw_transform.o)
 .text          0x000051b4        0x0 C:/SysGCC/m68k-elf/m68k-elf/lib/m68000\liblvgl.a(lv_draw_sw_triangle.o)
 .text          0x000051b4        0x0 C:/SysGCC/m68k-elf/m68k-elf/lib/m68000\liblvgl.a(lv_font.o)
 .text          0x000051b4        0x0 C:/SysGCC/m68k-elf/m68k-elf/lib/m68000\liblvgl.a(lv_font_montserrat_12.o)
 .text          0x000051b4        0x0 C:/SysGCC/m68k-elf/m68k-elf/lib/m68000\liblvgl.a(lv_indev.o)
 .text          0x000051b4        0x0 C:/SysGCC/m68k-elf/m68k-elf/lib/m68000\liblvgl.a(lv_indev_scroll.o)
 .text          0x000051b4        0x0 C:/SysGCC/m68k-elf/m68k-elf/lib/m68000\liblvgl.a(lv_flex.o)
 .text          0x000051b4        0x0 C:/SysGCC/m68k-elf/m68k-elf/lib/m68000\liblvgl.a(lv_layout.o)
 .text          0x000051b4        0x0 C:/SysGCC/m68k-elf/m68k-elf/lib/m68000\liblvgl.a(lv_bin_decoder.o)
 .text          0x000051b4        0x0 C:/SysGCC/m68k-elf/m68k-elf/lib/m68000\liblvgl.a(lv_image_cache.o)
 .text          0x000051b4        0x0 C:/SysGCC/m68k-elf/m68k-elf/lib/m68000\liblvgl.a(lv_image_header_cache.o)
 .text          0x000051b4        0x0 C:/SysGCC/m68k-elf/m68k-elf/lib/m68000\liblvgl.a(lv_cache.o)
 .text          0x000051b4        0x0 C:/SysGCC/m68k-elf/m68k-elf/lib/m68000\liblvgl.a(lv_cache_entry.o)
 .text          0x000051b4        0x0 C:/SysGCC/m68k-elf/m68k-elf/lib/m68000\liblvgl.a(lv_anim_timeline.o)
 .text          0x000051b4        0x0 C:/SysGCC/m68k-elf/m68k-elf/lib/m68000\liblvgl.a(lv_area.o)
 .text          0x000051b4        0x0 C:/SysGCC/m68k-elf/m68k-elf/lib/m68000\liblvgl.a(lv_async.o)
 .text          0x000051b4        0x0 C:/SysGCC/m68k-elf/m68k-elf/lib/m68000\liblvgl.a(lv_color.o)
 .text          0x000051b4        0x0 C:/SysGCC/m68k-elf/m68k-elf/lib/m68000\liblvgl.a(lv_color_op.o)
 .text          0x000051b4        0x0 C:/SysGCC/m68k-elf/m68k-elf/lib/m68000\liblvgl.a(lv_event.o)
 .text          0x000051b4        0x0 C:/SysGCC/m68k-elf/m68k-elf/lib/m68000\liblvgl.a(lv_iter.o)
 .text          0x000051b4        0x0 C:/SysGCC/m68k-elf/m68k-elf/lib/m68000\liblvgl.a(lv_palette.o)
 .text          0x000051b4        0x0 C:/SysGCC/m68k-elf/m68k-elf/lib/m68000\liblvgl.a(lv_style.o)
 .text          0x000051b4        0x0 C:/SysGCC/m68k-elf/m68k-elf/lib/m68000\liblvgl.a(lv_style_gen.o)
 .text          0x000051b4        0x0 C:/SysGCC/m68k-elf/m68k-elf/lib/m68000\liblvgl.a(lv_text.o)
 .text          0x000051b4        0x0 C:/SysGCC/m68k-elf/m68k-elf/lib/m68000\liblvgl.a(lv_theme.o)
 .text          0x000051b4        0x0 C:/SysGCC/m68k-elf/m68k-elf/lib/m68000\liblvgl.a(lv_image.o)
 .text          0x000051b4        0x0 C:/SysGCC/m68k-elf/m68k-elf/lib/m68000\liblvgl.a(lv_draw_buf_convert.o)
 .text          0x000051b4        0x0 C:/SysGCC/m68k-elf/m68k-elf/lib/m68000\liblvgl.a(lv_draw_sw_blend.o)
 .text          0x000051b4        0x0 C:/SysGCC/m68k-elf/m68k-elf/lib/m68000\liblvgl.a(lv_draw_sw_blend_to_a8.o)
 .text          0x000051b4        0x0 C:/SysGCC/m68k-elf/m68k-elf/lib/m68000\liblvgl.a(lv_draw_sw_blend_to_al88.o)
 .text          0x000051b4        0x0 C:/SysGCC/m68k-elf/m68k-elf/lib/m68000\liblvgl.a(lv_draw_sw_blend_to_argb8888.o)
 .text          0x000051b4        0x0 C:/SysGCC/m68k-elf/m68k-elf/lib/m68000\liblvgl.a(lv_draw_sw_blend_to_argb8888_premultiplied.o)
 .text          0x000051b4        0x0 C:/SysGCC/m68k-elf/m68k-elf/lib/m68000\liblvgl.a(lv_draw_sw_blend_to_i1.o)
 .text          0x000051b4        0x0 C:/SysGCC/m68k-elf/m68k-elf/lib/m68000\liblvgl.a(lv_draw_sw_blend_to_l8.o)
 .text          0x000051b4        0x0 C:/SysGCC/m68k-elf/m68k-elf/lib/m68000\liblvgl.a(lv_draw_sw_blend_to_rgb565.o)
 .text          0x000051b4        0x0 C:/SysGCC/m68k-elf/m68k-elf/lib/m68000\liblvgl.a(lv_draw_sw_blend_to_rgb565_swapped.o)
 .text          0x000051b4        0x0 C:/SysGCC/m68k-elf/m68k-elf/lib/m68000\liblvgl.a(lv_draw_sw_blend_to_rgb888.o)
 .text          0x000051b4        0x0 C:/SysGCC/m68k-elf/m68k-elf/lib/m68000\liblvgl.a(lv_draw_sw_utils.o)
 .text          0x000051b4        0x0 C:/SysGCC/m68k-elf/m68k-elf/lib/m68000\liblvgl.a(lv_font_fmt_txt.o)
 .text          0x000051b4        0x0 C:/SysGCC/m68k-elf/m68k-elf/lib/m68000\liblvgl.a(lv_grid.o)
 .text          0x000051b4        0x0 C:/SysGCC/m68k-elf/m68k-elf/lib/m68000\liblvgl.a(lv_cache_lru_rb.o)
 .text          0x000051b4        0x0 C:/SysGCC/m68k-elf/m68k-elf/lib/m68000\liblvgl.a(lv_array.o)
 .text          0x000051b4        0x0 C:/SysGCC/m68k-elf/m68k-elf/lib/m68000\liblvgl.a(lv_circle_buf.o)
 .text          0x000051b4        0x0 C:/SysGCC/m68k-elf/m68k-elf/lib/m68000\liblvgl.a(lv_rb.o)
 .text          0x000051b4        0x0 C:/SysGCC/m68k-elf/m68k-elf/lib/m68000\liblvgl.a(lv_utils.o)
 .text          0x000051b4       0x22 c:/sysgcc/m68k-elf/bin/../lib/gcc/m68k-elf/4.8.0/m68000\libgcc.a(_mulsi3.o)
                0x000051b4                __mulsi3
 *fill*         0x000051d6        0x2 
 .text          0x000051d8       0x5c c:/sysgcc/m68k-elf/bin/../lib/gcc/m68k-elf/4.8.0/m68000\libgcc.a(_udivsi3.o)
                0x000051d8                __udivsi3
 .text          0x00005234       0x2e c:/sysgcc/m68k-elf/bin/../lib/gcc/m68k-elf/4.8.0/m68000\libgcc.a(_divsi3.o)
                0x00005234                __divsi3
 *fill*         0x00005262        0x2 
 .text          0x00005264       0x2e c:/sysgcc/m68k-elf/bin/../lib/gcc/m68k-elf/4.8.0/m68000\libgcc.a(_umodsi3.o)
                0x00005264                __umodsi3
 *fill*         0x00005292        0x2 
 .text          0x00005294       0x2e c:/sysgcc/m68k-elf/bin/../lib/gcc/m68k-elf/4.8.0/m68000\libgcc.a(_modsi3.o)
                0x00005294                __modsi3
 *fill*         0x000052c2        0x2 
 .text          0x000052c4       0x74 c:/sysgcc/m68k-elf/bin/../lib/gcc/m68k-elf/4.8.0/m68000\libgcc.a(_muldi3.o)
                0x000052c4                __muldi3
 .text          0x00005338       0x8e c:/sysgcc/m68k-elf/bin/../lib/gcc/m68k-elf/4.8.0/m68000\libgcc.a(_ffssi2.o)
                0x00005338                __ffssi2
 *fill*         0x000053c6        0x2 
 .text          0x000053c8        0x0 c:/sysgcc/m68k-elf/bin/../lib/gcc/m68k-elf/4.8.0/m68000\libgcc.a(_clz.o)
 .text          0x000053c8       0x9a c:/sysgcc/m68k-elf/bin/../lib/gcc/m68k-elf/4.8.0/m68000\libgcc.a(_clzsi2.o)
                0x000053c8                __clzsi2
 *fill*         0x00005462        0x2 
 .text          0x00005464      0x5b0 c:/sysgcc/m68k-elf/bin/../lib/gcc/m68k-elf/4.8.0/m68000\libgcc.a(_divdi3.o)
                0x00005464                __divdi3
 .text          0x00005a14      0x5ea c:/sysgcc/m68k-elf/bin/../lib/gcc/m68k-elf/4.8.0/m68000\libgcc.a(_udivdi3.o)
                0x00005a14                __udivdi3
 *fill*         0x00005ffe        0x2 
 .text          0x00006000      0x532 c:/sysgcc/m68k-elf/bin/../lib/gcc/m68k-elf/4.8.0/m68000\libgcc.a(_umoddi3.o)
                0x00006000                __umoddi3
 *fill*         0x00006532        0x2 
 .text          0x00006534        0x0 C:/SysGCC/m68k-elf/m68k-elf/lib/m68000\libc.a(lib_a-environ.o)
 .text          0x00006534      0x338 C:/SysGCC/m68k-elf/m68k-elf/lib/m68000\libc.a(lib_a-findfp.o)
                0x00006548                _cleanup_r
                0x00006562                __sfmoreglue
                0x000065be                _cleanup
                0x000065da                __sinit
                0x00006736                __sfp
                0x00006818                __sfp_lock_acquire
                0x00006820                __sfp_lock_release
                0x00006828                __sinit_lock_acquire
                0x00006830                __sinit_lock_release
                0x00006838                __fp_lock_all
                0x00006852                __fp_unlock_all
 .text          0x0000686c       0xc4 C:/SysGCC/m68k-elf/m68k-elf/lib/m68000\libc.a(lib_a-fwalk.o)
                0x0000686c                _fwalk
                0x000068cc                _fwalk_reent
 .text          0x00006930       0x38 C:/SysGCC/m68k-elf/m68k-elf/lib/m68000\libc.a(lib_a-getenv.o)
                0x00006930                _findenv
                0x0000694c                getenv
 .text          0x00006968       0xc0 C:/SysGCC/m68k-elf/m68k-elf/lib/m68000\libc.a(lib_a-getenv_r.o)
                0x00006968                _findenv_r
                0x00006a10                _getenv_r
 .text          0x00006a28        0x0 C:/SysGCC/m68k-elf/m68k-elf/lib/m68000\libc.a(lib_a-impure.o)
 .text          0x00006a28      0x77a C:/SysGCC/m68k-elf/m68k-elf/lib/m68000\libc.a(lib_a-mallocr.o)
                0x00006a28                _malloc_r
 *fill*         0x000071a2        0x2 
 .text          0x000071a4       0x6e C:/SysGCC/m68k-elf/m68k-elf/lib/m68000\libc.a(lib_a-memcpy.o)
                0x000071a4                memcpy
 *fill*         0x00007212        0x2 
 .text          0x00007214       0x72 C:/SysGCC/m68k-elf/m68k-elf/lib/m68000\libc.a(lib_a-memset.o)
                0x00007214                memset
 *fill*         0x00007286        0x2 
 .text          0x00007288       0x10 C:/SysGCC/m68k-elf/m68k-elf/lib/m68000\libc.a(lib_a-mlock.o)
                0x00007288                __malloc_lock
                0x00007290                __malloc_unlock
 .text          0x00007298       0x42 C:/SysGCC/m68k-elf/m68k-elf/lib/m68000\libc.a(lib_a-printf.o)
                0x00007298                _printf_r
                0x000072b8                printf
 *fill*         0x000072da        0x2 
 .text          0x000072dc       0xa0 C:/SysGCC/m68k-elf/m68k-elf/lib/m68000\libc.a(lib_a-puts.o)
                0x000072dc                _puts_r
                0x00007366                puts
 .text          0x0000737c       0x32 C:/SysGCC/m68k-elf/m68k-elf/lib/m68000\libc.a(lib_a-sbrkr.o)
                0x0000737c                _sbrk_r
 *fill*         0x000073ae        0x2 
 .text          0x000073b0      0x144 C:/SysGCC/m68k-elf/m68k-elf/lib/m68000\libc.a(lib_a-stdio.o)
                0x000073b0                __sread
                0x000073f4                __seofread
                0x000073fe                __swrite
                0x00007490                __sseek
                0x000074dc                __sclose
 .text          0x000074f4       0x1a C:/SysGCC/m68k-elf/m68k-elf/lib/m68000\libc.a(lib_a-strlen.o)
                0x000074f4                strlen
 *fill*         0x0000750e        0x2 
 .text          0x00007510       0xe8 C:/SysGCC/m68k-elf/m68k-elf/lib/m68000\libc.a(lib_a-strncmp.o)
                0x00007510                strncmp
 .text          0x000075f8     0x1ca2 C:/SysGCC/m68k-elf/m68k-elf/lib/m68000\libc.a(lib_a-vfprintf.o)
                0x000075f8                _vfprintf_r
                0x000091de                vfprintf
 *fill*         0x0000929a        0x2 
 .text          0x0000929c       0x3c C:/SysGCC/m68k-elf/m68k-elf/lib/m68000\libc.a(lib_a-writer.o)
                0x0000929c                _write_r
 .text          0x000092d8      0x14e C:/SysGCC/m68k-elf/m68k-elf/lib/m68000\libc.a(lib_a-wsetup.o)
                0x000092d8                __swsetup_r
 *fill*         0x00009426        0x2 
 .text          0x00009428       0x32 C:/SysGCC/m68k-elf/m68k-elf/lib/m68000\libc.a(lib_a-closer.o)
                0x00009428                _close_r
 *fill*         0x0000945a        0x2 
 .text          0x0000945c     0x1774 C:/SysGCC/m68k-elf/m68k-elf/lib/m68000\libc.a(lib_a-dtoa.o)
                0x0000960c                _dtoa_r
 .text          0x0000abd0       0x10 C:/SysGCC/m68k-elf/m68k-elf/lib/m68000\libc.a(lib_a-envlock.o)
                0x0000abd0                __env_lock
                0x0000abd8                __env_unlock
 .text          0x0000abe0       0xf8 C:/SysGCC/m68k-elf/m68k-elf/lib/m68000\libc.a(lib_a-fclose.o)
                0x0000abe0                _fclose_r
                0x0000acc2                fclose
 .text          0x0000acd8      0x238 C:/SysGCC/m68k-elf/m68k-elf/lib/m68000\libc.a(lib_a-fflush.o)
                0x0000acd8                __sflush_r
                0x0000ae88                _fflush_r
                0x0000aede                fflush
 .text          0x0000af10      0x3ea C:/SysGCC/m68k-elf/m68k-elf/lib/m68000\libc.a(lib_a-freer.o)
                0x0000af10                _malloc_trim_r
                0x0000affc                _free_r
 *fill*         0x0000b2fa        0x2 
 .text          0x0000b2fc      0x3e6 C:/SysGCC/m68k-elf/m68k-elf/lib/m68000\libc.a(lib_a-fvwrite.o)
                0x0000b2fc                __sfvwrite_r
 *fill*         0x0000b6e2        0x2 
 .text          0x0000b6e4       0xd8 C:/SysGCC/m68k-elf/m68k-elf/lib/m68000\libc.a(lib_a-locale.o)
                0x0000b6e4                _setlocale_r
                0x0000b752                __locale_charset
                0x0000b760                __locale_mb_cur_max
                0x0000b76e                __locale_msgcharset
                0x0000b77c                __locale_cjk_lang
                0x0000b786                _localeconv_r
                0x0000b794                setlocale
                0x0000b7ae                localeconv
 .text          0x0000b7bc       0x3c C:/SysGCC/m68k-elf/m68k-elf/lib/m68000\libc.a(lib_a-lseekr.o)
                0x0000b7bc                _lseek_r
 .text          0x0000b7f8      0x132 C:/SysGCC/m68k-elf/m68k-elf/lib/m68000\libc.a(lib_a-makebuf.o)
                0x0000b7f8                __smakebuf_r
 *fill*         0x0000b92a        0x2 
 .text          0x0000b92c       0xc2 C:/SysGCC/m68k-elf/m68k-elf/lib/m68000\libc.a(lib_a-memchr.o)
                0x0000b92c                memchr
 *fill*         0x0000b9ee        0x2 
 .text          0x0000b9f0       0xf2 C:/SysGCC/m68k-elf/m68k-elf/lib/m68000\libc.a(lib_a-memmove.o)
                0x0000b9f0                memmove
 *fill*         0x0000bae2        0x2 
 .text          0x0000bae4      0xd34 C:/SysGCC/m68k-elf/m68k-elf/lib/m68000\libc.a(lib_a-mprec.o)
                0x0000bae4                _Balloc
                0x0000bb80                _Bfree
                0x0000bbaa                __multadd
                0x0000bc90                __s2b
                0x0000bd52                __hi0bits
                0x0000bdb6                __lo0bits
                0x0000be3a                __i2b
                0x0000be5c                __multiply
                0x0000c02e                __pow5mult
                0x0000c112                __lshift
                0x0000c1d6                __mcmp
                0x0000c226                __mdiff
                0x0000c3ca                __ulp
                0x0000c426                __b2d
                0x0000c524                __d2b
                0x0000c63e                __ratio
                0x0000c6d2                _mprec_log10
                0x0000c73c                __copybits
                0x0000c798                __any_on
 .text          0x0000c818       0x3c C:/SysGCC/m68k-elf/m68k-elf/lib/m68000\libc.a(lib_a-readr.o)
                0x0000c818                _read_r
 .text          0x0000c854      0x65c C:/SysGCC/m68k-elf/m68k-elf/lib/m68000\libc.a(lib_a-reallocr.o)
                0x0000c854                _realloc_r
 .text          0x0000ceb0       0x62 C:/SysGCC/m68k-elf/m68k-elf/lib/m68000\libc.a(lib_a-s_fpclassify.o)
                0x0000ceb0                __fpclassifyd
 *fill*         0x0000cf12        0x2 
 .text          0x0000cf14       0x98 C:/SysGCC/m68k-elf/m68k-elf/lib/m68000\libc.a(lib_a-strcmp.o)
                0x0000cf14                strcmp
 .text          0x0000cfac      0xfb2 C:/SysGCC/m68k-elf/m68k-elf/lib/m68000\libc.a(lib_a-vfiprintf.o)
                0x0000d05c                __sprint_r
                0x0000d07a                _vfiprintf_r
                0x0000dea2                vfiprintf
 *fill*         0x0000df5e        0x2 
 .text          0x0000df60       0xd6 C:/SysGCC/m68k-elf/m68k-elf/lib/m68000\libc.a(lib_a-callocr.o)
                0x0000df60                _calloc_r
 *fill*         0x0000e036        0x2 
 .text          0x0000e038      0x17c C:/SysGCC/m68k-elf/m68k-elf/lib/m68000\libc.a(lib_a-fputwc.o)
                0x0000e038                _fputwc_r
                0x0000e156                fputwc
 .text          0x0000e1b4       0x36 C:/SysGCC/m68k-elf/m68k-elf/lib/m68000\libc.a(lib_a-fstatr.o)
                0x0000e1b4                _fstat_r
 *fill*         0x0000e1ea        0x2 
 .text          0x0000e1ec       0x32 C:/SysGCC/m68k-elf/m68k-elf/lib/m68000\libc.a(lib_a-isattyr.o)
                0x0000e1ec                _isatty_r
 *fill*         0x0000e21e        0x2 
 .text          0x0000e220      0x148 C:/SysGCC/m68k-elf/m68k-elf/lib/m68000\libc.a(lib_a-wbuf.o)
                0x0000e220                __swbuf_r
                0x0000e34e                __swbuf
 .text          0x0000e368       0xfa C:/SysGCC/m68k-elf/m68k-elf/lib/m68000\libc.a(lib_a-wcrtomb.o)
                0x0000e368                _wcrtomb_r
                0x0000e3e0                wcrtomb
 *fill*         0x0000e462        0x2 
 .text          0x0000e464       0x66 C:/SysGCC/m68k-elf/m68k-elf/lib/m68000\libc.a(lib_a-wctomb_r.o)
                0x0000e464                __ascii_wctomb
                0x0000e49c                _wctomb_r
 *fill*         0x0000e4ca        0x2 
 .text          0x0000e4cc      0x9cc c:/sysgcc/m68k-elf/bin/../lib/gcc/m68k-elf/4.8.0/m68000\libgcc.a(_double.o)
                0x0000e526                __subdf3
                0x0000e52c                __adddf3
                0x0000e8c2                __muldf3
                0x0000ea70                __divdf3
                0x0000ece4                __negdf2
                0x0000ed42                __cmpdf2_internal
                0x0000ee12                __cmpdf2
 .text          0x0000ee98       0x6a c:/sysgcc/m68k-elf/bin/../lib/gcc/m68k-elf/4.8.0/m68000\libgcc.a(_floatex.o)
                0x0000ee98                __clear_sticky_bit
                0x0000eea6                $_exception_handler
 *fill*         0x0000ef02        0x2 
 .text          0x0000ef04       0x22 c:/sysgcc/m68k-elf/bin/../lib/gcc/m68k-elf/4.8.0/m68000\libgcc.a(_eqdf2.o)
                0x0000ef04                __eqdf2
 *fill*         0x0000ef26        0x2 
 .text          0x0000ef28       0x22 c:/sysgcc/m68k-elf/bin/../lib/gcc/m68k-elf/4.8.0/m68000\libgcc.a(_nedf2.o)
                0x0000ef28                __nedf2
 *fill*         0x0000ef4a        0x2 
 .text          0x0000ef4c       0x22 c:/sysgcc/m68k-elf/bin/../lib/gcc/m68k-elf/4.8.0/m68000\libgcc.a(_gtdf2.o)
                0x0000ef4c                __gtdf2
 *fill*         0x0000ef6e        0x2 
 .text          0x0000ef70       0x22 c:/sysgcc/m68k-elf/bin/../lib/gcc/m68k-elf/4.8.0/m68000\libgcc.a(_gedf2.o)
                0x0000ef70                __gedf2
 *fill*         0x0000ef92        0x2 
 .text          0x0000ef94       0x22 c:/sysgcc/m68k-elf/bin/../lib/gcc/m68k-elf/4.8.0/m68000\libgcc.a(_ltdf2.o)
                0x0000ef94                __ltdf2
 *fill*         0x0000efb6        0x2 
 .text          0x0000efb8      0x44c c:/sysgcc/m68k-elf/bin/../lib/gcc/m68k-elf/4.8.0/m68000\libgcc.a(fpgnulib.o)
                0x0000efb8                __unordsf2
                0x0000f00e                __unorddf2
                0x0000f084                __floatunsidf
                0x0000f0f0                __floatsidf
                0x0000f198                __floatunsisf
                0x0000f1b2                __floatsisf
                0x0000f1cc                __extendsfdf2
                0x0000f24a                __truncdfsf2
                0x0000f354                __fixdfsi
                0x0000f3ea                __fixsfsi
 .text          0x0000f404      0x7be c:/sysgcc/m68k-elf/bin/../lib/gcc/m68k-elf/4.8.0/m68000\libgcc.a(xfgnulib.o)
                0x0000f404                __unordxf2
                0x0000f488                __extenddfxf2
                0x0000f542                __truncxfdf2
                0x0000f628                __extendsfxf2
                0x0000f66c                __truncxfsf2
                0x0000f694                __floatsixf
                0x0000f6da                __floatunsixf
                0x0000f720                __fixxfsi
                0x0000f748                __addxf3
                0x0000f7be                __subxf3
                0x0000f834                __mulxf3
                0x0000f8aa                __divxf3
                0x0000f920                __negxf2
                0x0000f976                __cmpxf2
                0x0000f9ca                __eqxf2
                0x0000fa1e                __nexf2
                0x0000fa72                __ltxf2
                0x0000fac6                __lexf2
                0x0000fb1a                __gtxf2
                0x0000fb6e                __gexf2
 *fill*         0x0000fbc2        0x2 
 .text          0x0000fbc4      0x6aa C:/SysGCC/m68k-elf/m68k-elf/lib/m68000\libnkc.a(newlib_stubs.o)
                0x0000fbc4                _ctlcon
                0x0000fbc8                _initcon
                0x0000fbcc                _putcon
                0x0000fbe4                _opencon
                0x0000fbe8                _closecon
                0x0000fbec                _ctlser
                0x0000fe32                _initser
                0x0000fe74                _putser
                0x0000fe8e                _openser
                0x0000fe92                _closeser
                0x0000fea6                _getcon
                0x0000ffd0                _getser
                0x0001005e                _getserint
                0x000100b2                _init_dev
                0x000100be                _test_port
                0x000100c2                _init_port
                0x000100d6                _open
                0x000100dc                _gettime
                0x00010172                time
                0x00010188                _execve
                0x00010194                _fork
                0x000101a0                getpid
                0x000101a4                kill
                0x000101b0                _link
                0x000101bc                sbrk
                0x000101ee                get_heap_ptr
                0x000101fe                _times
                0x00010206                _unlink
                0x00010212                _wait
                0x0001021e                _clock
 *fill*         0x0001026e        0x2 
 .text          0x00010270      0x180 C:/SysGCC/m68k-elf/m68k-elf/lib/m68000\libnkc.a(open.o)
                0x00010270                open
 .text          0x000103f0       0x7a C:/SysGCC/m68k-elf/m68k-elf/lib/m68000\libnkc.a(close.o)
                0x000103f0                close
 *fill*         0x0001046a        0x2 
 .text          0x0001046c       0x44 C:/SysGCC/m68k-elf/m68k-elf/lib/m68000\libnkc.a(isatty.o)
                0x0001046c                isatty
 .text          0x000104b0        0x4 C:/SysGCC/m68k-elf/m68k-elf/lib/m68000\libnkc.a(lseek.o)
                0x000104b0                lseek
 .text          0x000104b4      0x29c C:/SysGCC/m68k-elf/m68k-elf/lib/m68000\libnkc.a(read.o)
                0x000104b4                read
 .text          0x00010750       0x46 C:/SysGCC/m68k-elf/m68k-elf/lib/m68000\libnkc.a(stat.o)
                0x00010750                stat
                0x00010790                fstat
 *fill*         0x00010796        0x2 
 .text          0x00010798       0xb8 C:/SysGCC/m68k-elf/m68k-elf/lib/m68000\libnkc.a(write.o)
                0x00010798                write
 .text          0x00010850        0x0 C:/SysGCC/m68k-elf/m68k-elf/lib/m68000\libc.a(lib_a-ctype_.o)
 .text          0x00010850        0xe C:/SysGCC/m68k-elf/m68k-elf/lib/m68000\libc.a(lib_a-errno.o)
                0x00010850                __errno
 *fill*         0x0001085e        0x2 
 .text          0x00010860      0x686 C:/SysGCC/m68k-elf/m68k-elf/lib/m68000\libc.a(lib_a-mktime.o)
                0x00010b12                mktime
 *fill*         0x00010ee6        0x2 
 .text          0x00010ee8      0x696 C:/SysGCC/m68k-elf/m68k-elf/lib/m68000\libc.a(lib_a-mktm_r.o)
                0x00010ee8                __tzcalc_limits
                0x000110ec                _mktm_r
 *fill*         0x0001157e        0x2 
 .text          0x00011580      0x266 C:/SysGCC/m68k-elf/m68k-elf/lib/m68000\libc.a(lib_a-signal.o)
                0x00011580                _init_signal_r
                0x000115d0                _signal_r
                0x00011648                _raise_r
                0x000116f4                __sigtramp_r
                0x0001178e                raise
                0x000117a4                signal
                0x000117be                _init_signal
                0x000117d0                __sigtramp
 *fill*         0x000117e6        0x2 
 .text          0x000117e8       0x42 C:/SysGCC/m68k-elf/m68k-elf/lib/m68000\libc.a(lib_a-signalr.o)
                0x000117e8                _kill_r
                0x0001181e                _getpid_r
 *fill*         0x0001182a        0x2 
 .text          0x0001182c       0x10 C:/SysGCC/m68k-elf/m68k-elf/lib/m68000\libc.a(lib_a-tzlock.o)
                0x0001182c                __tz_lock
                0x00011834                __tz_unlock
 .text          0x0001183c        0x0 C:/SysGCC/m68k-elf/m68k-elf/lib/m68000\libc.a(lib_a-tzvars.o)
 .text          0x0001183c       0x64 C:/SysGCC/m68k-elf/m68k-elf/lib/m68000\libc.a(lib_a-div.o)
                0x0001183c                div
 .text          0x000118a0        0xe C:/SysGCC/m68k-elf/m68k-elf/lib/m68000\libc.a(lib_a-gettzinfo.o)
                0x000118a0                __gettzinfo
                0x000118b0                . = ALIGN (0x4)
 *fill*         0x000118ae        0x2 
                0x000118b0                __CTOR_LIST__ = .
                0x000118b0                ___CTOR_LIST__ = .
                0x000118b0        0x4 LONG 0x0 (((__CTOR_END__ - __CTOR_LIST__) / 0x4) - 0x2)
 *(.ctors)
 *(.ctors)
                0x000118b4        0x4 LONG 0x0
                0x000118b8                __CTOR_END__ = .
                0x000118b8                __DTOR_LIST__ = .
                0x000118b8                ___DTOR_LIST__ = .
                0x000118b8        0x4 LONG 0x0 (((__DTOR_END__ - __DTOR_LIST__) / 0x4) - 0x2)
 *(.dtors)
 *(.dtors)
                0x000118bc        0x4 LONG 0x0
                0x000118c0                __DTOR_END__ = .
                0x000118c0                . = ALIGN (0x4)
                0x000118c0                __INIT_SECTION__ = .
                0x000118c0        0x4 LONG 0x4e560000
 *(.init)
 *(.init)
                0x000118c4        0x2 SHORT 0x4e5e
                0x000118c6        0x2 SHORT 0x4e75
                0x000118c8                __FINI_SECTION__ = .
                0x000118c8        0x4 LONG 0x4e560000
 *(.fini)
 *(.fini)
                0x000118cc        0x2 SHORT 0x4e5e
                0x000118ce        0x2 SHORT 0x4e75
 *(.lit)
 *(.lit)
                0x000118d0                _etext = .
                0x000118d0                PROVIDE (etext, .)

.text._exit     0x000118d0       0x3a
 .text._exit    0x000118d0       0x3a obj/crt0.o
                0x000118d0                _exit

.text.hardware_init
                0x0001190a       0x1a
 .text.hardware_init
                0x0001190a       0x1a ./obj/lvgl_nkc.o
                0x0001190a                hardware_init

.text.startup.main
                0x00011924       0x8a
 .text.startup.main
                0x00011924       0x8a ./obj/lvgl_nkc.o
                0x00011924                main

.text.lv_tick_inc
                0x000119ae       0x18
 .text.lv_tick_inc
                0x000119ae       0x18 C:/SysGCC/m68k-elf/m68k-elf/lib/m68000\liblvgl.a(lv_tick.o)
                0x000119ae                lv_tick_inc

.text.lv_tick_get
                0x000119c6       0x26
 .text.lv_tick_get
                0x000119c6       0x26 C:/SysGCC/m68k-elf/m68k-elf/lib/m68000\liblvgl.a(lv_tick.o)
                0x000119c6                lv_tick_get

.text.lv_tick_elaps
                0x000119ec        0xc
 .text.lv_tick_elaps
                0x000119ec        0xc C:/SysGCC/m68k-elf/m68k-elf/lib/m68000\liblvgl.a(lv_tick.o)
                0x000119ec                lv_tick_elaps

.text.lv_tick_diff
                0x000119f8        0xa
 .text.lv_tick_diff
                0x000119f8        0xa C:/SysGCC/m68k-elf/m68k-elf/lib/m68000\liblvgl.a(lv_tick.o)
                0x000119f8                lv_tick_diff

.text.lv_delay_ms
                0x00011a02       0x62
 .text.lv_delay_ms
                0x00011a02       0x62 C:/SysGCC/m68k-elf/m68k-elf/lib/m68000\liblvgl.a(lv_tick.o)
                0x00011a02                lv_delay_ms

.text.lv_tick_set_cb
                0x00011a64        0xa
 .text.lv_tick_set_cb
                0x00011a64        0xa C:/SysGCC/m68k-elf/m68k-elf/lib/m68000\liblvgl.a(lv_tick.o)
                0x00011a64                lv_tick_set_cb

.text.lv_tick_get_cb
                0x00011a6e        0x8
 .text.lv_tick_get_cb
                0x00011a6e        0x8 C:/SysGCC/m68k-elf/m68k-elf/lib/m68000\liblvgl.a(lv_tick.o)
                0x00011a6e                lv_tick_get_cb

.text.lv_delay_set_cb
                0x00011a76        0xa
 .text.lv_delay_set_cb
                0x00011a76        0xa C:/SysGCC/m68k-elf/m68k-elf/lib/m68000\liblvgl.a(lv_tick.o)
                0x00011a76                lv_delay_set_cb

.text.lv_is_initialized
                0x00011a80        0x8
 .text.lv_is_initialized
                0x00011a80        0x8 C:/SysGCC/m68k-elf/m68k-elf/lib/m68000\liblvgl.a(lv_init.o)
                0x00011a80                lv_is_initialized

.text.lv_init   0x00011a88       0xe0
 .text.lv_init  0x00011a88       0xe0 C:/SysGCC/m68k-elf/m68k-elf/lib/m68000\liblvgl.a(lv_init.o)
                0x00011a88                lv_init

.text.lv_deinit
                0x00011b68       0xaa
 .text.lv_deinit
                0x00011b68       0xaa C:/SysGCC/m68k-elf/m68k-elf/lib/m68000\liblvgl.a(lv_init.o)
                0x00011b68                lv_deinit

.text.remove_anim
                0x00011c12       0x32
 .text.remove_anim
                0x00011c12       0x32 C:/SysGCC/m68k-elf/m68k-elf/lib/m68000\liblvgl.a(lv_anim.o)

.text.lv_anim_path_linear
                0x00011c44       0x42
 .text.lv_anim_path_linear
                0x00011c44       0x42 C:/SysGCC/m68k-elf/m68k-elf/lib/m68000\liblvgl.a(lv_anim.o)
                0x00011c44                lv_anim_path_linear

.text.lv_anim_path_cubic_bezier
                0x00011c86       0x5a
 .text.lv_anim_path_cubic_bezier
                0x00011c86       0x5a C:/SysGCC/m68k-elf/m68k-elf/lib/m68000\liblvgl.a(lv_anim.o)

.text.anim_mark_list_change
                0x00011ce0       0x84
 .text.anim_mark_list_change
                0x00011ce0       0x84 C:/SysGCC/m68k-elf/m68k-elf/lib/m68000\liblvgl.a(lv_anim.o)

.text.remove_concurrent_anims
                0x00011d64       0xc0
 .text.remove_concurrent_anims
                0x00011d64       0xc0 C:/SysGCC/m68k-elf/m68k-elf/lib/m68000\liblvgl.a(lv_anim.o)

.text.lv_anim_core_init
                0x00011e24       0x40
 .text.lv_anim_core_init
                0x00011e24       0x40 C:/SysGCC/m68k-elf/m68k-elf/lib/m68000\liblvgl.a(lv_anim.o)
                0x00011e24                lv_anim_core_init

.text.lv_anim_enable_vsync_mode
                0x00011e64       0x6c
 .text.lv_anim_enable_vsync_mode
                0x00011e64       0x6c C:/SysGCC/m68k-elf/m68k-elf/lib/m68000\liblvgl.a(lv_anim.o)
                0x00011e64                lv_anim_enable_vsync_mode

.text.lv_anim_init
                0x00011ed0       0x44
 .text.lv_anim_init
                0x00011ed0       0x44 C:/SysGCC/m68k-elf/m68k-elf/lib/m68000\liblvgl.a(lv_anim.o)
                0x00011ed0                lv_anim_init

.text.lv_anim_get_playtime
                0x00011f14       0x38
 .text.lv_anim_get_playtime
                0x00011f14       0x38 C:/SysGCC/m68k-elf/m68k-elf/lib/m68000\liblvgl.a(lv_anim.o)
                0x00011f14                lv_anim_get_playtime

.text.lv_anim_delete
                0x00011f4c       0x74
 .text.lv_anim_delete
                0x00011f4c       0x74 C:/SysGCC/m68k-elf/m68k-elf/lib/m68000\liblvgl.a(lv_anim.o)
                0x00011f4c                lv_anim_delete

.text.lv_anim_delete_all
                0x00011fc0       0x1a
 .text.lv_anim_delete_all
                0x00011fc0       0x1a C:/SysGCC/m68k-elf/m68k-elf/lib/m68000\liblvgl.a(lv_anim.o)
                0x00011fc0                lv_anim_delete_all

.text.lv_anim_core_deinit
                0x00011fda        0x6
 .text.lv_anim_core_deinit
                0x00011fda        0x6 C:/SysGCC/m68k-elf/m68k-elf/lib/m68000\liblvgl.a(lv_anim.o)
                0x00011fda                lv_anim_core_deinit

.text.lv_anim_get
                0x00011fe0       0x48
 .text.lv_anim_get
                0x00011fe0       0x48 C:/SysGCC/m68k-elf/m68k-elf/lib/m68000\liblvgl.a(lv_anim.o)
                0x00011fe0                lv_anim_get

.text.lv_anim_get_timer
                0x00012028        0x8
 .text.lv_anim_get_timer
                0x00012028        0x8 C:/SysGCC/m68k-elf/m68k-elf/lib/m68000\liblvgl.a(lv_anim.o)
                0x00012028                lv_anim_get_timer

.text.lv_anim_count_running
                0x00012030       0x36
 .text.lv_anim_count_running
                0x00012030       0x36 C:/SysGCC/m68k-elf/m68k-elf/lib/m68000\liblvgl.a(lv_anim.o)
                0x00012030                lv_anim_count_running

.text.lv_anim_speed_clamped
                0x00012066       0x80
 .text.lv_anim_speed_clamped
                0x00012066       0x80 C:/SysGCC/m68k-elf/m68k-elf/lib/m68000\liblvgl.a(lv_anim.o)
                0x00012066                lv_anim_speed_clamped

.text.lv_anim_speed
                0x000120e6       0x16
 .text.lv_anim_speed
                0x000120e6       0x16 C:/SysGCC/m68k-elf/m68k-elf/lib/m68000\liblvgl.a(lv_anim.o)
                0x000120e6                lv_anim_speed

.text.lv_anim_speed_to_time
                0x000120fc       0x38
 .text.lv_anim_speed_to_time
                0x000120fc       0x38 C:/SysGCC/m68k-elf/m68k-elf/lib/m68000\liblvgl.a(lv_anim.o)
                0x000120fc                lv_anim_speed_to_time

.text.lv_anim_path_ease_in
                0x00012134       0x1e
 .text.lv_anim_path_ease_in
                0x00012134       0x1e C:/SysGCC/m68k-elf/m68k-elf/lib/m68000\liblvgl.a(lv_anim.o)
                0x00012134                lv_anim_path_ease_in

.text.lv_anim_path_ease_out
                0x00012152       0x1c
 .text.lv_anim_path_ease_out
                0x00012152       0x1c C:/SysGCC/m68k-elf/m68k-elf/lib/m68000\liblvgl.a(lv_anim.o)
                0x00012152                lv_anim_path_ease_out

.text.lv_anim_path_ease_in_out
                0x0001216e       0x1e
 .text.lv_anim_path_ease_in_out
                0x0001216e       0x1e C:/SysGCC/m68k-elf/m68k-elf/lib/m68000\liblvgl.a(lv_anim.o)
                0x0001216e                lv_anim_path_ease_in_out

.text.lv_anim_path_overshoot
                0x0001218c       0x1e
 .text.lv_anim_path_overshoot
                0x0001218c       0x1e C:/SysGCC/m68k-elf/m68k-elf/lib/m68000\liblvgl.a(lv_anim.o)
                0x0001218c                lv_anim_path_overshoot

.text.lv_anim_path_bounce
                0x000121aa      0x15e
 .text.lv_anim_path_bounce
                0x000121aa      0x15e C:/SysGCC/m68k-elf/m68k-elf/lib/m68000\liblvgl.a(lv_anim.o)
                0x000121aa                lv_anim_path_bounce

.text.lv_anim_path_step
                0x00012308       0x1a
 .text.lv_anim_path_step
                0x00012308       0x1a C:/SysGCC/m68k-elf/m68k-elf/lib/m68000\liblvgl.a(lv_anim.o)
                0x00012308                lv_anim_path_step

.text.lv_anim_path_custom_bezier3
                0x00012322       0x2a
 .text.lv_anim_path_custom_bezier3
                0x00012322       0x2a C:/SysGCC/m68k-elf/m68k-elf/lib/m68000\liblvgl.a(lv_anim.o)
                0x00012322                lv_anim_path_custom_bezier3

.text.lv_anim_set_var
                0x0001234c        0xa
 .text.lv_anim_set_var
                0x0001234c        0xa C:/SysGCC/m68k-elf/m68k-elf/lib/m68000\liblvgl.a(lv_anim.o)
                0x0001234c                lv_anim_set_var

.text.lv_anim_set_exec_cb
                0x00012356        0xc
 .text.lv_anim_set_exec_cb
                0x00012356        0xc C:/SysGCC/m68k-elf/m68k-elf/lib/m68000\liblvgl.a(lv_anim.o)
                0x00012356                lv_anim_set_exec_cb

.text.lv_anim_set_duration
                0x00012362        0xc
 .text.lv_anim_set_duration
                0x00012362        0xc C:/SysGCC/m68k-elf/m68k-elf/lib/m68000\liblvgl.a(lv_anim.o)
                0x00012362                lv_anim_set_duration

.text.lv_anim_set_delay
                0x0001236e       0x10
 .text.lv_anim_set_delay
                0x0001236e       0x10 C:/SysGCC/m68k-elf/m68k-elf/lib/m68000\liblvgl.a(lv_anim.o)
                0x0001236e                lv_anim_set_delay

.text.lv_anim_set_values
                0x0001237e       0x1a
 .text.lv_anim_set_values
                0x0001237e       0x1a C:/SysGCC/m68k-elf/m68k-elf/lib/m68000\liblvgl.a(lv_anim.o)
                0x0001237e                lv_anim_set_values

.text.lv_anim_set_custom_exec_cb
                0x00012398        0xc
 .text.lv_anim_set_custom_exec_cb
                0x00012398        0xc C:/SysGCC/m68k-elf/m68k-elf/lib/m68000\liblvgl.a(lv_anim.o)
                0x00012398                lv_anim_set_custom_exec_cb

.text.lv_anim_set_path_cb
                0x000123a4        0xc
 .text.lv_anim_set_path_cb
                0x000123a4        0xc C:/SysGCC/m68k-elf/m68k-elf/lib/m68000\liblvgl.a(lv_anim.o)
                0x000123a4                lv_anim_set_path_cb

.text.lv_anim_set_start_cb
                0x000123b0        0xc
 .text.lv_anim_set_start_cb
                0x000123b0        0xc C:/SysGCC/m68k-elf/m68k-elf/lib/m68000\liblvgl.a(lv_anim.o)
                0x000123b0                lv_anim_set_start_cb

.text.lv_anim_set_get_value_cb
                0x000123bc        0xc
 .text.lv_anim_set_get_value_cb
                0x000123bc        0xc C:/SysGCC/m68k-elf/m68k-elf/lib/m68000\liblvgl.a(lv_anim.o)
                0x000123bc                lv_anim_set_get_value_cb

.text.lv_anim_set_completed_cb
                0x000123c8        0xc
 .text.lv_anim_set_completed_cb
                0x000123c8        0xc C:/SysGCC/m68k-elf/m68k-elf/lib/m68000\liblvgl.a(lv_anim.o)
                0x000123c8                lv_anim_set_completed_cb

.text.lv_anim_set_deleted_cb
                0x000123d4        0xc
 .text.lv_anim_set_deleted_cb
                0x000123d4        0xc C:/SysGCC/m68k-elf/m68k-elf/lib/m68000\liblvgl.a(lv_anim.o)
                0x000123d4                lv_anim_set_deleted_cb

.text.lv_anim_set_reverse_duration
                0x000123e0        0xc
 .text.lv_anim_set_reverse_duration
                0x000123e0        0xc C:/SysGCC/m68k-elf/m68k-elf/lib/m68000\liblvgl.a(lv_anim.o)
                0x000123e0                lv_anim_set_reverse_duration

.text.lv_anim_set_reverse_time
                0x000123ec        0xc
 .text.lv_anim_set_reverse_time
                0x000123ec        0xc C:/SysGCC/m68k-elf/m68k-elf/lib/m68000\liblvgl.a(lv_anim.o)
                0x000123ec                lv_anim_set_reverse_time

.text.lv_anim_set_reverse_delay
                0x000123f8        0xc
 .text.lv_anim_set_reverse_delay
                0x000123f8        0xc C:/SysGCC/m68k-elf/m68k-elf/lib/m68000\liblvgl.a(lv_anim.o)
                0x000123f8                lv_anim_set_reverse_delay

.text.lv_anim_set_repeat_count
                0x00012404        0xc
 .text.lv_anim_set_repeat_count
                0x00012404        0xc C:/SysGCC/m68k-elf/m68k-elf/lib/m68000\liblvgl.a(lv_anim.o)
                0x00012404                lv_anim_set_repeat_count

.text.lv_anim_set_repeat_delay
                0x00012410        0xc
 .text.lv_anim_set_repeat_delay
                0x00012410        0xc C:/SysGCC/m68k-elf/m68k-elf/lib/m68000\liblvgl.a(lv_anim.o)
                0x00012410                lv_anim_set_repeat_delay

.text.lv_anim_set_early_apply
                0x0001241c       0x1e
 .text.lv_anim_set_early_apply
                0x0001241c       0x1e C:/SysGCC/m68k-elf/m68k-elf/lib/m68000\liblvgl.a(lv_anim.o)
                0x0001241c                lv_anim_set_early_apply

.text.lv_anim_set_user_data
                0x0001243a        0xc
 .text.lv_anim_set_user_data
                0x0001243a        0xc C:/SysGCC/m68k-elf/m68k-elf/lib/m68000\liblvgl.a(lv_anim.o)
                0x0001243a                lv_anim_set_user_data

.text.lv_anim_set_bezier3_param
                0x00012446       0x1e
 .text.lv_anim_set_bezier3_param
                0x00012446       0x1e C:/SysGCC/m68k-elf/m68k-elf/lib/m68000\liblvgl.a(lv_anim.o)
                0x00012446                lv_anim_set_bezier3_param

.text.lv_anim_get_delay
                0x00012464        0xc
 .text.lv_anim_get_delay
                0x00012464        0xc C:/SysGCC/m68k-elf/m68k-elf/lib/m68000\liblvgl.a(lv_anim.o)
                0x00012464                lv_anim_get_delay

.text.lv_anim_get_time
                0x00012470        0xa
 .text.lv_anim_get_time
                0x00012470        0xa C:/SysGCC/m68k-elf/m68k-elf/lib/m68000\liblvgl.a(lv_anim.o)
                0x00012470                lv_anim_get_time

.text.lv_anim_get_repeat_count
                0x0001247a        0xa
 .text.lv_anim_get_repeat_count
                0x0001247a        0xa C:/SysGCC/m68k-elf/m68k-elf/lib/m68000\liblvgl.a(lv_anim.o)
                0x0001247a                lv_anim_get_repeat_count

.text.lv_anim_get_user_data
                0x00012484        0xa
 .text.lv_anim_get_user_data
                0x00012484        0xa C:/SysGCC/m68k-elf/m68k-elf/lib/m68000\liblvgl.a(lv_anim.o)
                0x00012484                lv_anim_get_user_data

.text.lv_anim_custom_delete
                0x0001248e       0x22
 .text.lv_anim_custom_delete
                0x0001248e       0x22 C:/SysGCC/m68k-elf/m68k-elf/lib/m68000\liblvgl.a(lv_anim.o)
                0x0001248e                lv_anim_custom_delete

.text.lv_anim_custom_get
                0x000124b0       0x22
 .text.lv_anim_custom_get
                0x000124b0       0x22 C:/SysGCC/m68k-elf/m68k-elf/lib/m68000\liblvgl.a(lv_anim.o)
                0x000124b0                lv_anim_custom_get

.text.lv_anim_resolve_speed
                0x000124d2       0x78
 .text.lv_anim_resolve_speed
                0x000124d2       0x78 C:/SysGCC/m68k-elf/m68k-elf/lib/m68000\liblvgl.a(lv_anim.o)
                0x000124d2                lv_anim_resolve_speed

.text.resolve_time
                0x0001254a       0x64
 .text.resolve_time
                0x0001254a       0x64 C:/SysGCC/m68k-elf/m68k-elf/lib/m68000\liblvgl.a(lv_anim.o)

.text.anim_timer
                0x000125ae      0x2b8
 .text.anim_timer
                0x000125ae      0x2b8 C:/SysGCC/m68k-elf/m68k-elf/lib/m68000\liblvgl.a(lv_anim.o)

.text.anim_vsync_event
                0x00012866        0xa
 .text.anim_vsync_event
                0x00012866        0xa C:/SysGCC/m68k-elf/m68k-elf/lib/m68000\liblvgl.a(lv_anim.o)

.text.lv_anim_refr_now
                0x00012870        0xc
 .text.lv_anim_refr_now
                0x00012870        0xc C:/SysGCC/m68k-elf/m68k-elf/lib/m68000\liblvgl.a(lv_anim.o)
                0x00012870                lv_anim_refr_now

.text.lv_anim_start
                0x0001287c       0xee
 .text.lv_anim_start
                0x0001287c       0xee C:/SysGCC/m68k-elf/m68k-elf/lib/m68000\liblvgl.a(lv_anim.o)
                0x0001287c                lv_anim_start

.text.lv_anim_is_paused
                0x0001296a        0xc
 .text.lv_anim_is_paused
                0x0001296a        0xc C:/SysGCC/m68k-elf/m68k-elf/lib/m68000\liblvgl.a(lv_anim.o)
                0x0001296a                lv_anim_is_paused

.text.lv_anim_pause
                0x00012976       0x20
 .text.lv_anim_pause
                0x00012976       0x20 C:/SysGCC/m68k-elf/m68k-elf/lib/m68000\liblvgl.a(lv_anim.o)
                0x00012976                lv_anim_pause

.text.lv_anim_pause_for
                0x00012996       0x20
 .text.lv_anim_pause_for
                0x00012996       0x20 C:/SysGCC/m68k-elf/m68k-elf/lib/m68000\liblvgl.a(lv_anim.o)
                0x00012996                lv_anim_pause_for

.text.lv_anim_resume
                0x000129b6       0x24
 .text.lv_anim_resume
                0x000129b6       0x24 C:/SysGCC/m68k-elf/m68k-elf/lib/m68000\liblvgl.a(lv_anim.o)
                0x000129b6                lv_anim_resume

.text.lv_fs_init
                0x000129da       0x14
 .text.lv_fs_init
                0x000129da       0x14 C:/SysGCC/m68k-elf/m68k-elf/lib/m68000\liblvgl.a(lv_fs.o)
                0x000129da                lv_fs_init

.text.lv_fs_deinit
                0x000129ee       0x10
 .text.lv_fs_deinit
                0x000129ee       0x10 C:/SysGCC/m68k-elf/m68k-elf/lib/m68000\liblvgl.a(lv_fs.o)
                0x000129ee                lv_fs_deinit

.text.lv_fs_make_path_from_buffer
                0x000129fe       0x62
 .text.lv_fs_make_path_from_buffer
                0x000129fe       0x62 C:/SysGCC/m68k-elf/m68k-elf/lib/m68000\liblvgl.a(lv_fs.o)
                0x000129fe                lv_fs_make_path_from_buffer

.text.lv_fs_get_buffer_from_path
                0x00012a60       0x9c
 .text.lv_fs_get_buffer_from_path
                0x00012a60       0x9c C:/SysGCC/m68k-elf/m68k-elf/lib/m68000\liblvgl.a(lv_fs.o)
                0x00012a60                lv_fs_get_buffer_from_path

.text.lv_fs_close
                0x00012afc       0x74
 .text.lv_fs_close
                0x00012afc       0x74 C:/SysGCC/m68k-elf/m68k-elf/lib/m68000\liblvgl.a(lv_fs.o)
                0x00012afc                lv_fs_close

.text.lv_fs_read
                0x00012b70      0x23e
 .text.lv_fs_read
                0x00012b70      0x23e C:/SysGCC/m68k-elf/m68k-elf/lib/m68000\liblvgl.a(lv_fs.o)
                0x00012b70                lv_fs_read

.text.lv_fs_write
                0x00012dae      0x14c
 .text.lv_fs_write
                0x00012dae      0x14c C:/SysGCC/m68k-elf/m68k-elf/lib/m68000\liblvgl.a(lv_fs.o)
                0x00012dae                lv_fs_write

.text.lv_fs_seek
                0x00012efa       0xc6
 .text.lv_fs_seek
                0x00012efa       0xc6 C:/SysGCC/m68k-elf/m68k-elf/lib/m68000\liblvgl.a(lv_fs.o)
                0x00012efa                lv_fs_seek

.text.lv_fs_tell
                0x00012fc0       0x50
 .text.lv_fs_tell
                0x00012fc0       0x50 C:/SysGCC/m68k-elf/m68k-elf/lib/m68000\liblvgl.a(lv_fs.o)
                0x00012fc0                lv_fs_tell

.text.lv_fs_get_size
                0x00013010       0x72
 .text.lv_fs_get_size
                0x00013010       0x72 C:/SysGCC/m68k-elf/m68k-elf/lib/m68000\liblvgl.a(lv_fs.o)
                0x00013010                lv_fs_get_size

.text.lv_fs_dir_read
                0x00013082       0x48
 .text.lv_fs_dir_read
                0x00013082       0x48 C:/SysGCC/m68k-elf/m68k-elf/lib/m68000\liblvgl.a(lv_fs.o)
                0x00013082                lv_fs_dir_read

.text.lv_fs_dir_close
                0x000130ca       0x38
 .text.lv_fs_dir_close
                0x000130ca       0x38 C:/SysGCC/m68k-elf/m68k-elf/lib/m68000\liblvgl.a(lv_fs.o)
                0x000130ca                lv_fs_dir_close

.text.lv_fs_drv_init
                0x00013102       0x16
 .text.lv_fs_drv_init
                0x00013102       0x16 C:/SysGCC/m68k-elf/m68k-elf/lib/m68000\liblvgl.a(lv_fs.o)
                0x00013102                lv_fs_drv_init

.text.lv_fs_drv_register
                0x00013118       0x1a
 .text.lv_fs_drv_register
                0x00013118       0x1a C:/SysGCC/m68k-elf/m68k-elf/lib/m68000\liblvgl.a(lv_fs.o)
                0x00013118                lv_fs_drv_register

.text.lv_fs_remove_drive
                0x00013132       0x70
 .text.lv_fs_remove_drive
                0x00013132       0x70 C:/SysGCC/m68k-elf/m68k-elf/lib/m68000\liblvgl.a(lv_fs.o)
                0x00013132                lv_fs_remove_drive

.text.lv_fs_get_drv
                0x000131a2       0x40
 .text.lv_fs_get_drv
                0x000131a2       0x40 C:/SysGCC/m68k-elf/m68k-elf/lib/m68000\liblvgl.a(lv_fs.o)
                0x000131a2                lv_fs_get_drv

.text.lv_fs_is_ready
                0x000131e2       0x30
 .text.lv_fs_is_ready
                0x000131e2       0x30 C:/SysGCC/m68k-elf/m68k-elf/lib/m68000\liblvgl.a(lv_fs.o)
                0x000131e2                lv_fs_is_ready

.text.lv_fs_open
                0x00013212       0xf8
 .text.lv_fs_open
                0x00013212       0xf8 C:/SysGCC/m68k-elf/m68k-elf/lib/m68000\liblvgl.a(lv_fs.o)
                0x00013212                lv_fs_open

.text.lv_fs_path_get_size
                0x0001330a       0x64
 .text.lv_fs_path_get_size
                0x0001330a       0x64 C:/SysGCC/m68k-elf/m68k-elf/lib/m68000\liblvgl.a(lv_fs.o)
                0x0001330a                lv_fs_path_get_size

.text.lv_fs_load_to_buf
                0x0001336e       0x66
 .text.lv_fs_load_to_buf
                0x0001336e       0x66 C:/SysGCC/m68k-elf/m68k-elf/lib/m68000\liblvgl.a(lv_fs.o)
                0x0001336e                lv_fs_load_to_buf

.text.lv_fs_load_with_alloc
                0x000133d4       0x8c
 .text.lv_fs_load_with_alloc
                0x000133d4       0x8c C:/SysGCC/m68k-elf/m68k-elf/lib/m68000\liblvgl.a(lv_fs.o)
                0x000133d4                lv_fs_load_with_alloc

.text.lv_fs_dir_open
                0x00013460       0x8c
 .text.lv_fs_dir_open
                0x00013460       0x8c C:/SysGCC/m68k-elf/m68k-elf/lib/m68000\liblvgl.a(lv_fs.o)
                0x00013460                lv_fs_dir_open

.text.lv_fs_get_letters
                0x000134ec       0x4a
 .text.lv_fs_get_letters
                0x000134ec       0x4a C:/SysGCC/m68k-elf/m68k-elf/lib/m68000\liblvgl.a(lv_fs.o)
                0x000134ec                lv_fs_get_letters

.text.lv_fs_get_ext
                0x00013536       0x40
 .text.lv_fs_get_ext
                0x00013536       0x40 C:/SysGCC/m68k-elf/m68k-elf/lib/m68000\liblvgl.a(lv_fs.o)
                0x00013536                lv_fs_get_ext

.text.lv_fs_up  0x00013576       0x58
 .text.lv_fs_up
                0x00013576       0x58 C:/SysGCC/m68k-elf/m68k-elf/lib/m68000\liblvgl.a(lv_fs.o)
                0x00013576                lv_fs_up

.text.lv_fs_get_last
                0x000135ce       0x56
 .text.lv_fs_get_last
                0x000135ce       0x56 C:/SysGCC/m68k-elf/m68k-elf/lib/m68000\liblvgl.a(lv_fs.o)
                0x000135ce                lv_fs_get_last

.text.lv_fs_path_join
                0x00013624       0xc6
 .text.lv_fs_path_join
                0x00013624       0xc6 C:/SysGCC/m68k-elf/m68k-elf/lib/m68000\liblvgl.a(lv_fs.o)
                0x00013624                lv_fs_path_join

.text.node_set_prev.isra.0
                0x000136ea       0x18
 .text.node_set_prev.isra.0
                0x000136ea       0x18 C:/SysGCC/m68k-elf/m68k-elf/lib/m68000\liblvgl.a(lv_ll.o)

.text.node_set_next.isra.1
                0x00013702       0x18
 .text.node_set_next.isra.1
                0x00013702       0x18 C:/SysGCC/m68k-elf/m68k-elf/lib/m68000\liblvgl.a(lv_ll.o)

.text.lv_ll_init
                0x0001371a       0x1a
 .text.lv_ll_init
                0x0001371a       0x1a C:/SysGCC/m68k-elf/m68k-elf/lib/m68000\liblvgl.a(lv_ll.o)
                0x0001371a                lv_ll_init

.text.lv_ll_ins_head
                0x00013734       0x62
 .text.lv_ll_ins_head
                0x00013734       0x62 C:/SysGCC/m68k-elf/m68k-elf/lib/m68000\liblvgl.a(lv_ll.o)
                0x00013734                lv_ll_ins_head

.text.lv_ll_ins_prev
                0x00013796       0x80
 .text.lv_ll_ins_prev
                0x00013796       0x80 C:/SysGCC/m68k-elf/m68k-elf/lib/m68000\liblvgl.a(lv_ll.o)
                0x00013796                lv_ll_ins_prev

.text.lv_ll_ins_tail
                0x00013816       0x62
 .text.lv_ll_ins_tail
                0x00013816       0x62 C:/SysGCC/m68k-elf/m68k-elf/lib/m68000\liblvgl.a(lv_ll.o)
                0x00013816                lv_ll_ins_tail

.text.lv_ll_remove
                0x00013878       0x8e
 .text.lv_ll_remove
                0x00013878       0x8e C:/SysGCC/m68k-elf/m68k-elf/lib/m68000\liblvgl.a(lv_ll.o)
                0x00013878                lv_ll_remove

.text.lv_ll_clear_custom
                0x00013906       0x5a
 .text.lv_ll_clear_custom
                0x00013906       0x5a C:/SysGCC/m68k-elf/m68k-elf/lib/m68000\liblvgl.a(lv_ll.o)
                0x00013906                lv_ll_clear_custom

.text.lv_ll_chg_list
                0x00013960       0xa2
 .text.lv_ll_chg_list
                0x00013960       0xa2 C:/SysGCC/m68k-elf/m68k-elf/lib/m68000\liblvgl.a(lv_ll.o)
                0x00013960                lv_ll_chg_list

.text.lv_ll_get_head
                0x00013a02       0x14
 .text.lv_ll_get_head
                0x00013a02       0x14 C:/SysGCC/m68k-elf/m68k-elf/lib/m68000\liblvgl.a(lv_ll.o)
                0x00013a02                lv_ll_get_head

.text.lv_ll_get_tail
                0x00013a16       0x14
 .text.lv_ll_get_tail
                0x00013a16       0x14 C:/SysGCC/m68k-elf/m68k-elf/lib/m68000\liblvgl.a(lv_ll.o)
                0x00013a16                lv_ll_get_tail

.text.lv_ll_get_next
                0x00013a2a       0x10
 .text.lv_ll_get_next
                0x00013a2a       0x10 C:/SysGCC/m68k-elf/m68k-elf/lib/m68000\liblvgl.a(lv_ll.o)
                0x00013a2a                lv_ll_get_next

.text.lv_ll_get_prev
                0x00013a3a       0x10
 .text.lv_ll_get_prev
                0x00013a3a       0x10 C:/SysGCC/m68k-elf/m68k-elf/lib/m68000\liblvgl.a(lv_ll.o)
                0x00013a3a                lv_ll_get_prev

.text.lv_ll_get_len
                0x00013a4a       0x28
 .text.lv_ll_get_len
                0x00013a4a       0x28 C:/SysGCC/m68k-elf/m68k-elf/lib/m68000\liblvgl.a(lv_ll.o)
                0x00013a4a                lv_ll_get_len

.text.lv_ll_move_before
                0x00013a72       0x8a
 .text.lv_ll_move_before
                0x00013a72       0x8a C:/SysGCC/m68k-elf/m68k-elf/lib/m68000\liblvgl.a(lv_ll.o)
                0x00013a72                lv_ll_move_before

.text.lv_ll_is_empty
                0x00013afc       0x1e
 .text.lv_ll_is_empty
                0x00013afc       0x1e C:/SysGCC/m68k-elf/m68k-elf/lib/m68000\liblvgl.a(lv_ll.o)
                0x00013afc                lv_ll_is_empty

.text.lv_ll_clear
                0x00013b1a       0x10
 .text.lv_ll_clear
                0x00013b1a       0x10 C:/SysGCC/m68k-elf/m68k-elf/lib/m68000\liblvgl.a(lv_ll.o)
                0x00013b1a                lv_ll_clear

.text.lv_trigo_sin
                0x00013b2a       0xaa
 .text.lv_trigo_sin
                0x00013b2a       0xaa C:/SysGCC/m68k-elf/m68k-elf/lib/m68000\liblvgl.a(lv_math.o)
                0x00013b2a                lv_trigo_sin

.text.lv_cubic_bezier
                0x00013bd4      0x1f2
 .text.lv_cubic_bezier
                0x00013bd4      0x1f2 C:/SysGCC/m68k-elf/m68k-elf/lib/m68000\liblvgl.a(lv_math.o)
                0x00013bd4                lv_cubic_bezier

.text.lv_sqrt   0x00013dc6       0x46
 .text.lv_sqrt  0x00013dc6       0x46 C:/SysGCC/m68k-elf/m68k-elf/lib/m68000\liblvgl.a(lv_math.o)
                0x00013dc6                lv_sqrt

.text.lv_sqrt32
                0x00013e0c      0x1ca
 .text.lv_sqrt32
                0x00013e0c      0x1ca C:/SysGCC/m68k-elf/m68k-elf/lib/m68000\liblvgl.a(lv_math.o)
                0x00013e0c                lv_sqrt32

.text.lv_atan2  0x00013fd6       0xee
 .text.lv_atan2
                0x00013fd6       0xee C:/SysGCC/m68k-elf/m68k-elf/lib/m68000\liblvgl.a(lv_math.o)
                0x00013fd6                lv_atan2

.text.lv_pow    0x000140c4       0xa0
 .text.lv_pow   0x000140c4       0xa0 C:/SysGCC/m68k-elf/m68k-elf/lib/m68000\liblvgl.a(lv_math.o)
                0x000140c4                lv_pow

.text.lv_map    0x00014164       0x5e
 .text.lv_map   0x00014164       0x5e C:/SysGCC/m68k-elf/m68k-elf/lib/m68000\liblvgl.a(lv_math.o)
                0x00014164                lv_map

.text.lv_rand_set_seed
                0x000141c2        0xa
 .text.lv_rand_set_seed
                0x000141c2        0xa C:/SysGCC/m68k-elf/m68k-elf/lib/m68000\liblvgl.a(lv_math.o)
                0x000141c2                lv_rand_set_seed

.text.lv_rand   0x000141cc       0x46
 .text.lv_rand  0x000141cc       0x46 C:/SysGCC/m68k-elf/m68k-elf/lib/m68000\liblvgl.a(lv_math.o)
                0x000141cc                lv_rand

.text.lv_trigo_cos
                0x00014212       0x14
 .text.lv_trigo_cos
                0x00014212       0x14 C:/SysGCC/m68k-elf/m68k-elf/lib/m68000\liblvgl.a(lv_math.o)
                0x00014212                lv_trigo_cos

.text.lv_bezier3
                0x00014226       0x1c
 .text.lv_bezier3
                0x00014226       0x1c C:/SysGCC/m68k-elf/m68k-elf/lib/m68000\liblvgl.a(lv_math.o)
                0x00014226                lv_bezier3

.text.lv_timer_handler_resume
                0x00014242       0x20
 .text.lv_timer_handler_resume
                0x00014242       0x20 C:/SysGCC/m68k-elf/m68k-elf/lib/m68000\liblvgl.a(lv_timer.o)

.text.lv_timer_core_init
                0x00014262       0x20
 .text.lv_timer_core_init
                0x00014262       0x20 C:/SysGCC/m68k-elf/m68k-elf/lib/m68000\liblvgl.a(lv_timer.o)
                0x00014262                lv_timer_core_init

.text.lv_timer_create
                0x00014282       0x56
 .text.lv_timer_create
                0x00014282       0x56 C:/SysGCC/m68k-elf/m68k-elf/lib/m68000\liblvgl.a(lv_timer.o)
                0x00014282                lv_timer_create

.text.lv_timer_create_basic
                0x000142d8       0x14
 .text.lv_timer_create_basic
                0x000142d8       0x14 C:/SysGCC/m68k-elf/m68k-elf/lib/m68000\liblvgl.a(lv_timer.o)
                0x000142d8                lv_timer_create_basic

.text.lv_timer_set_cb
                0x000142ec        0xc
 .text.lv_timer_set_cb
                0x000142ec        0xc C:/SysGCC/m68k-elf/m68k-elf/lib/m68000\liblvgl.a(lv_timer.o)
                0x000142ec                lv_timer_set_cb

.text.lv_timer_delete
                0x000142f8       0x2a
 .text.lv_timer_delete
                0x000142f8       0x2a C:/SysGCC/m68k-elf/m68k-elf/lib/m68000\liblvgl.a(lv_timer.o)
                0x000142f8                lv_timer_delete

.text.lv_timer_handler
                0x00014322      0x208
 .text.lv_timer_handler
                0x00014322      0x208 C:/SysGCC/m68k-elf/m68k-elf/lib/m68000\liblvgl.a(lv_timer.o)
                0x00014322                lv_timer_handler

.text.lv_timer_periodic_handler
                0x0001452a       0x2c
 .text.lv_timer_periodic_handler
                0x0001452a       0x2c C:/SysGCC/m68k-elf/m68k-elf/lib/m68000\liblvgl.a(lv_timer.o)
                0x0001452a                lv_timer_periodic_handler

.text.lv_timer_pause
                0x00014556        0xc
 .text.lv_timer_pause
                0x00014556        0xc C:/SysGCC/m68k-elf/m68k-elf/lib/m68000\liblvgl.a(lv_timer.o)
                0x00014556                lv_timer_pause

.text.lv_timer_resume
                0x00014562       0x10
 .text.lv_timer_resume
                0x00014562       0x10 C:/SysGCC/m68k-elf/m68k-elf/lib/m68000\liblvgl.a(lv_timer.o)
                0x00014562                lv_timer_resume

.text.lv_timer_set_period
                0x00014572        0xe
 .text.lv_timer_set_period
                0x00014572        0xe C:/SysGCC/m68k-elf/m68k-elf/lib/m68000\liblvgl.a(lv_timer.o)
                0x00014572                lv_timer_set_period

.text.lv_timer_ready
                0x00014580       0x1e
 .text.lv_timer_ready
                0x00014580       0x1e C:/SysGCC/m68k-elf/m68k-elf/lib/m68000\liblvgl.a(lv_timer.o)
                0x00014580                lv_timer_ready

.text.lv_timer_set_repeat_count
                0x0001459e        0xc
 .text.lv_timer_set_repeat_count
                0x0001459e        0xc C:/SysGCC/m68k-elf/m68k-elf/lib/m68000\liblvgl.a(lv_timer.o)
                0x0001459e                lv_timer_set_repeat_count

.text.lv_timer_set_auto_delete
                0x000145aa       0x1a
 .text.lv_timer_set_auto_delete
                0x000145aa       0x1a C:/SysGCC/m68k-elf/m68k-elf/lib/m68000\liblvgl.a(lv_timer.o)
                0x000145aa                lv_timer_set_auto_delete

.text.lv_timer_set_user_data
                0x000145c4        0xc
 .text.lv_timer_set_user_data
                0x000145c4        0xc C:/SysGCC/m68k-elf/m68k-elf/lib/m68000\liblvgl.a(lv_timer.o)
                0x000145c4                lv_timer_set_user_data

.text.lv_timer_reset
                0x000145d0       0x18
 .text.lv_timer_reset
                0x000145d0       0x18 C:/SysGCC/m68k-elf/m68k-elf/lib/m68000\liblvgl.a(lv_timer.o)
                0x000145d0                lv_timer_reset

.text.lv_timer_enable
                0x000145e8       0x14
 .text.lv_timer_enable
                0x000145e8       0x14 C:/SysGCC/m68k-elf/m68k-elf/lib/m68000\liblvgl.a(lv_timer.o)
                0x000145e8                lv_timer_enable

.text.lv_timer_core_deinit
                0x000145fc       0x16
 .text.lv_timer_core_deinit
                0x000145fc       0x16 C:/SysGCC/m68k-elf/m68k-elf/lib/m68000\liblvgl.a(lv_timer.o)
                0x000145fc                lv_timer_core_deinit

.text.lv_timer_get_idle
                0x00014612        0xa
 .text.lv_timer_get_idle
                0x00014612        0xa C:/SysGCC/m68k-elf/m68k-elf/lib/m68000\liblvgl.a(lv_timer.o)
                0x00014612                lv_timer_get_idle

.text.lv_timer_get_time_until_next
                0x0001461c        0x8
 .text.lv_timer_get_time_until_next
                0x0001461c        0x8 C:/SysGCC/m68k-elf/m68k-elf/lib/m68000\liblvgl.a(lv_timer.o)
                0x0001461c                lv_timer_get_time_until_next

.text.lv_timer_get_next
                0x00014624       0x26
 .text.lv_timer_get_next
                0x00014624       0x26 C:/SysGCC/m68k-elf/m68k-elf/lib/m68000\liblvgl.a(lv_timer.o)
                0x00014624                lv_timer_get_next

.text.lv_timer_handler_run_in_period
                0x0001464a       0x32
 .text.lv_timer_handler_run_in_period
                0x0001464a       0x32 C:/SysGCC/m68k-elf/m68k-elf/lib/m68000\liblvgl.a(lv_timer.o)
                0x0001464a                lv_timer_handler_run_in_period

.text.lv_timer_get_user_data
                0x0001467c        0xa
 .text.lv_timer_get_user_data
                0x0001467c        0xa C:/SysGCC/m68k-elf/m68k-elf/lib/m68000\liblvgl.a(lv_timer.o)
                0x0001467c                lv_timer_get_user_data

.text.lv_timer_get_paused
                0x00014686        0xe
 .text.lv_timer_get_paused
                0x00014686        0xe C:/SysGCC/m68k-elf/m68k-elf/lib/m68000\liblvgl.a(lv_timer.o)
                0x00014686                lv_timer_get_paused

.text.lv_timer_handler_set_resume_cb
                0x00014694       0x12
 .text.lv_timer_handler_set_resume_cb
                0x00014694       0x12 C:/SysGCC/m68k-elf/m68k-elf/lib/m68000\liblvgl.a(lv_timer.o)
                0x00014694                lv_timer_handler_set_resume_cb

.text.lv_os_init
                0x000146a6        0x2
 .text.lv_os_init
                0x000146a6        0x2 C:/SysGCC/m68k-elf/m68k-elf/lib/m68000\liblvgl.a(lv_os.o)
                0x000146a6                lv_os_init

.text.lv_lock   0x000146a8        0x2
 .text.lv_lock  0x000146a8        0x2 C:/SysGCC/m68k-elf/m68k-elf/lib/m68000\liblvgl.a(lv_os.o)
                0x000146a8                lv_lock

.text.lv_lock_isr
                0x000146aa        0x4
 .text.lv_lock_isr
                0x000146aa        0x4 C:/SysGCC/m68k-elf/m68k-elf/lib/m68000\liblvgl.a(lv_os.o)
                0x000146aa                lv_lock_isr

.text.lv_unlock
                0x000146ae        0x2
 .text.lv_unlock
                0x000146ae        0x2 C:/SysGCC/m68k-elf/m68k-elf/lib/m68000\liblvgl.a(lv_os.o)
                0x000146ae                lv_unlock

.text.lv_sleep_ms
                0x000146b0        0x6
 .text.lv_sleep_ms
                0x000146b0        0x6 C:/SysGCC/m68k-elf/m68k-elf/lib/m68000\liblvgl.a(lv_os.o)
                0x000146b0                lv_sleep_ms

.text.lv_mem_walker
                0x000146b6       0x2a
 .text.lv_mem_walker
                0x000146b6       0x2a C:/SysGCC/m68k-elf/m68k-elf/lib/m68000\liblvgl.a(lv_mem_core_builtin.o)

.text.lv_mem_init
                0x000146e0       0x50
 .text.lv_mem_init
                0x000146e0       0x50 C:/SysGCC/m68k-elf/m68k-elf/lib/m68000\liblvgl.a(lv_mem_core_builtin.o)
                0x000146e0                lv_mem_init

.text.lv_mem_deinit
                0x00014730       0x1c
 .text.lv_mem_deinit
                0x00014730       0x1c C:/SysGCC/m68k-elf/m68k-elf/lib/m68000\liblvgl.a(lv_mem_core_builtin.o)
                0x00014730                lv_mem_deinit

.text.lv_mem_add_pool
                0x0001474c       0x36
 .text.lv_mem_add_pool
                0x0001474c       0x36 C:/SysGCC/m68k-elf/m68k-elf/lib/m68000\liblvgl.a(lv_mem_core_builtin.o)
                0x0001474c                lv_mem_add_pool

.text.lv_mem_remove_pool
                0x00014782       0x68
 .text.lv_mem_remove_pool
                0x00014782       0x68 C:/SysGCC/m68k-elf/m68k-elf/lib/m68000\liblvgl.a(lv_mem_core_builtin.o)
                0x00014782                lv_mem_remove_pool

.text.lv_malloc_core
                0x000147ea       0x4c
 .text.lv_malloc_core
                0x000147ea       0x4c C:/SysGCC/m68k-elf/m68k-elf/lib/m68000\liblvgl.a(lv_mem_core_builtin.o)
                0x000147ea                lv_malloc_core

.text.lv_realloc_core
                0x00014836       0x66
 .text.lv_realloc_core
                0x00014836       0x66 C:/SysGCC/m68k-elf/m68k-elf/lib/m68000\liblvgl.a(lv_mem_core_builtin.o)
                0x00014836                lv_realloc_core

.text.lv_free_core
                0x0001489c       0x44
 .text.lv_free_core
                0x0001489c       0x44 C:/SysGCC/m68k-elf/m68k-elf/lib/m68000\liblvgl.a(lv_mem_core_builtin.o)
                0x0001489c                lv_free_core

.text.lv_mem_monitor_core
                0x000148e0      0x126
 .text.lv_mem_monitor_core
                0x000148e0      0x126 C:/SysGCC/m68k-elf/m68k-elf/lib/m68000\liblvgl.a(lv_mem_core_builtin.o)
                0x000148e0                lv_mem_monitor_core

.text.lv_mem_test_core
                0x00014a06       0x5e
 .text.lv_mem_test_core
                0x00014a06       0x5e C:/SysGCC/m68k-elf/m68k-elf/lib/m68000\liblvgl.a(lv_mem_core_builtin.o)
                0x00014a06                lv_mem_test_core

.text._out_buffer
                0x00014a64       0x18
 .text._out_buffer
                0x00014a64       0x18 C:/SysGCC/m68k-elf/m68k-elf/lib/m68000\liblvgl.a(lv_sprintf_builtin.o)

.text._out_null
                0x00014a7c        0x2
 .text._out_null
                0x00014a7c        0x2 C:/SysGCC/m68k-elf/m68k-elf/lib/m68000\liblvgl.a(lv_sprintf_builtin.o)

.text._ntoa_format
                0x00014a7e      0x1a4
 .text._ntoa_format
                0x00014a7e      0x1a4 C:/SysGCC/m68k-elf/m68k-elf/lib/m68000\liblvgl.a(lv_sprintf_builtin.o)

.text._ntoa_long
                0x00014c22       0xbc
 .text._ntoa_long
                0x00014c22       0xbc C:/SysGCC/m68k-elf/m68k-elf/lib/m68000\liblvgl.a(lv_sprintf_builtin.o)

.text._ntoa_long_long
                0x00014cde       0xe4
 .text._ntoa_long_long
                0x00014cde       0xe4 C:/SysGCC/m68k-elf/m68k-elf/lib/m68000\liblvgl.a(lv_sprintf_builtin.o)

.text.lv_vsnprintf_inner
                0x00014dc2      0x5d6
 .text.lv_vsnprintf_inner
                0x00014dc2      0x5d6 C:/SysGCC/m68k-elf/m68k-elf/lib/m68000\liblvgl.a(lv_sprintf_builtin.o)

.text.lv_snprintf
                0x00015398       0x28
 .text.lv_snprintf
                0x00015398       0x28 C:/SysGCC/m68k-elf/m68k-elf/lib/m68000\liblvgl.a(lv_sprintf_builtin.o)
                0x00015398                lv_snprintf

.text.lv_vsnprintf
                0x000153c0       0x22
 .text.lv_vsnprintf
                0x000153c0       0x22 C:/SysGCC/m68k-elf/m68k-elf/lib/m68000\liblvgl.a(lv_sprintf_builtin.o)
                0x000153c0                lv_vsnprintf

.text.lv_memcpy
                0x000153e2      0x1c2
 .text.lv_memcpy
                0x000153e2      0x1c2 C:/SysGCC/m68k-elf/m68k-elf/lib/m68000\liblvgl.a(lv_string_builtin.o)
                0x000153e2                lv_memcpy

.text.lv_memset
                0x000155a4       0x98
 .text.lv_memset
                0x000155a4       0x98 C:/SysGCC/m68k-elf/m68k-elf/lib/m68000\liblvgl.a(lv_string_builtin.o)
                0x000155a4                lv_memset

.text.lv_memmove
                0x0001563c       0x6a
 .text.lv_memmove
                0x0001563c       0x6a C:/SysGCC/m68k-elf/m68k-elf/lib/m68000\liblvgl.a(lv_string_builtin.o)
                0x0001563c                lv_memmove

.text.lv_memcmp
                0x000156a6       0x3a
 .text.lv_memcmp
                0x000156a6       0x3a C:/SysGCC/m68k-elf/m68k-elf/lib/m68000\liblvgl.a(lv_string_builtin.o)
                0x000156a6                lv_memcmp

.text.lv_strlen
                0x000156e0       0x10
 .text.lv_strlen
                0x000156e0       0x10 C:/SysGCC/m68k-elf/m68k-elf/lib/m68000\liblvgl.a(lv_string_builtin.o)
                0x000156e0                lv_strlen

.text.lv_strnlen
                0x000156f0       0x18
 .text.lv_strnlen
                0x000156f0       0x18 C:/SysGCC/m68k-elf/m68k-elf/lib/m68000\liblvgl.a(lv_string_builtin.o)
                0x000156f0                lv_strnlen

.text.lv_strlcpy
                0x00015708       0x40
 .text.lv_strlcpy
                0x00015708       0x40 C:/SysGCC/m68k-elf/m68k-elf/lib/m68000\liblvgl.a(lv_string_builtin.o)
                0x00015708                lv_strlcpy

.text.lv_strncpy
                0x00015748       0x3e
 .text.lv_strncpy
                0x00015748       0x3e C:/SysGCC/m68k-elf/m68k-elf/lib/m68000\liblvgl.a(lv_string_builtin.o)
                0x00015748                lv_strncpy

.text.lv_strcpy
                0x00015786       0x12
 .text.lv_strcpy
                0x00015786       0x12 C:/SysGCC/m68k-elf/m68k-elf/lib/m68000\liblvgl.a(lv_string_builtin.o)
                0x00015786                lv_strcpy

.text.lv_strcmp
                0x00015798       0x22
 .text.lv_strcmp
                0x00015798       0x22 C:/SysGCC/m68k-elf/m68k-elf/lib/m68000\liblvgl.a(lv_string_builtin.o)
                0x00015798                lv_strcmp

.text.lv_strncmp
                0x000157ba       0x3c
 .text.lv_strncmp
                0x000157ba       0x3c C:/SysGCC/m68k-elf/m68k-elf/lib/m68000\liblvgl.a(lv_string_builtin.o)
                0x000157ba                lv_strncmp

.text.lv_strdup
                0x000157f6       0x3a
 .text.lv_strdup
                0x000157f6       0x3a C:/SysGCC/m68k-elf/m68k-elf/lib/m68000\liblvgl.a(lv_string_builtin.o)
                0x000157f6                lv_strdup

.text.lv_strndup
                0x00015830       0x46
 .text.lv_strndup
                0x00015830       0x46 C:/SysGCC/m68k-elf/m68k-elf/lib/m68000\liblvgl.a(lv_string_builtin.o)
                0x00015830                lv_strndup

.text.lv_strcat
                0x00015876       0x26
 .text.lv_strcat
                0x00015876       0x26 C:/SysGCC/m68k-elf/m68k-elf/lib/m68000\liblvgl.a(lv_string_builtin.o)
                0x00015876                lv_strcat

.text.lv_strncat
                0x0001589c       0x2c
 .text.lv_strncat
                0x0001589c       0x2c C:/SysGCC/m68k-elf/m68k-elf/lib/m68000\liblvgl.a(lv_string_builtin.o)
                0x0001589c                lv_strncat

.text.lv_strchr
                0x000158c8       0x20
 .text.lv_strchr
                0x000158c8       0x20 C:/SysGCC/m68k-elf/m68k-elf/lib/m68000\liblvgl.a(lv_string_builtin.o)
                0x000158c8                lv_strchr

.text.block_next
                0x000158e8       0x16
 .text.block_next
                0x000158e8       0x16 C:/SysGCC/m68k-elf/m68k-elf/lib/m68000\liblvgl.a(lv_tlsf.o)

.text.block_link_next
                0x000158fe       0x18
 .text.block_link_next
                0x000158fe       0x18 C:/SysGCC/m68k-elf/m68k-elf/lib/m68000\liblvgl.a(lv_tlsf.o)

.text.unlikely.block_mark_as_used
                0x00015916       0x22
 .text.unlikely.block_mark_as_used
                0x00015916       0x22 C:/SysGCC/m68k-elf/m68k-elf/lib/m68000\liblvgl.a(lv_tlsf.o)

.text.integrity_walker
                0x00015938       0x36
 .text.integrity_walker
                0x00015938       0x36 C:/SysGCC/m68k-elf/m68k-elf/lib/m68000\liblvgl.a(lv_tlsf.o)

.text.default_walker
                0x0001596e        0x2
 .text.default_walker
                0x0001596e        0x2 C:/SysGCC/m68k-elf/m68k-elf/lib/m68000\liblvgl.a(lv_tlsf.o)

.text.adjust_request_size.part.8
                0x00015970       0x32
 .text.adjust_request_size.part.8
                0x00015970       0x32 C:/SysGCC/m68k-elf/m68k-elf/lib/m68000\liblvgl.a(lv_tlsf.o)

.text.unlikely.remove_free_block
                0x000159a2       0x7e
 .text.unlikely.remove_free_block
                0x000159a2       0x7e C:/SysGCC/m68k-elf/m68k-elf/lib/m68000\liblvgl.a(lv_tlsf.o)

.text.mapping_insert
                0x00015a20       0x3c
 .text.mapping_insert
                0x00015a20       0x3c C:/SysGCC/m68k-elf/m68k-elf/lib/m68000\liblvgl.a(lv_tlsf.o)

.text.block_insert
                0x00015a5c       0x96
 .text.block_insert
                0x00015a5c       0x96 C:/SysGCC/m68k-elf/m68k-elf/lib/m68000\liblvgl.a(lv_tlsf.o)

.text.unlikely.block_remove
                0x00015af2       0x40
 .text.unlikely.block_remove
                0x00015af2       0x40 C:/SysGCC/m68k-elf/m68k-elf/lib/m68000\liblvgl.a(lv_tlsf.o)

.text.unlikely.block_merge_next
                0x00015b32       0x68
 .text.unlikely.block_merge_next
                0x00015b32       0x68 C:/SysGCC/m68k-elf/m68k-elf/lib/m68000\liblvgl.a(lv_tlsf.o)

.text.block_locate_free
                0x00015b9a       0xfe
 .text.block_locate_free
                0x00015b9a       0xfe C:/SysGCC/m68k-elf/m68k-elf/lib/m68000\liblvgl.a(lv_tlsf.o)

.text.unlikely.block_split
                0x00015c98       0x80
 .text.unlikely.block_split
                0x00015c98       0x80 C:/SysGCC/m68k-elf/m68k-elf/lib/m68000\liblvgl.a(lv_tlsf.o)

.text.unlikely.block_trim_free
                0x00015d18       0x5e
 .text.unlikely.block_trim_free
                0x00015d18       0x5e C:/SysGCC/m68k-elf/m68k-elf/lib/m68000\liblvgl.a(lv_tlsf.o)

.text.lv_tlsf_check
                0x00015d76       0xe4
 .text.lv_tlsf_check
                0x00015d76       0xe4 C:/SysGCC/m68k-elf/m68k-elf/lib/m68000\liblvgl.a(lv_tlsf.o)
                0x00015d76                lv_tlsf_check

.text.lv_tlsf_walk_pool
                0x00015e5a       0x58
 .text.lv_tlsf_walk_pool
                0x00015e5a       0x58 C:/SysGCC/m68k-elf/m68k-elf/lib/m68000\liblvgl.a(lv_tlsf.o)
                0x00015e5a                lv_tlsf_walk_pool

.text.lv_tlsf_block_size
                0x00015eb2       0x16
 .text.lv_tlsf_block_size
                0x00015eb2       0x16 C:/SysGCC/m68k-elf/m68k-elf/lib/m68000\liblvgl.a(lv_tlsf.o)
                0x00015eb2                lv_tlsf_block_size

.text.lv_tlsf_check_pool
                0x00015ec8       0x2c
 .text.lv_tlsf_check_pool
                0x00015ec8       0x2c C:/SysGCC/m68k-elf/m68k-elf/lib/m68000\liblvgl.a(lv_tlsf.o)
                0x00015ec8                lv_tlsf_check_pool

.text.lv_tlsf_size
                0x00015ef4        0x8
 .text.lv_tlsf_size
                0x00015ef4        0x8 C:/SysGCC/m68k-elf/m68k-elf/lib/m68000\liblvgl.a(lv_tlsf.o)
                0x00015ef4                lv_tlsf_size

.text.lv_tlsf_align_size
                0x00015efc        0x4
 .text.lv_tlsf_align_size
                0x00015efc        0x4 C:/SysGCC/m68k-elf/m68k-elf/lib/m68000\liblvgl.a(lv_tlsf.o)
                0x00015efc                lv_tlsf_align_size

.text.lv_tlsf_block_size_min
                0x00015f00        0x4
 .text.lv_tlsf_block_size_min
                0x00015f00        0x4 C:/SysGCC/m68k-elf/m68k-elf/lib/m68000\liblvgl.a(lv_tlsf.o)
                0x00015f00                lv_tlsf_block_size_min

.text.lv_tlsf_block_size_max
                0x00015f04        0x6
 .text.lv_tlsf_block_size_max
                0x00015f04        0x6 C:/SysGCC/m68k-elf/m68k-elf/lib/m68000\liblvgl.a(lv_tlsf.o)
                0x00015f04                lv_tlsf_block_size_max

.text.lv_tlsf_pool_overhead
                0x00015f0a        0x4
 .text.lv_tlsf_pool_overhead
                0x00015f0a        0x4 C:/SysGCC/m68k-elf/m68k-elf/lib/m68000\liblvgl.a(lv_tlsf.o)
                0x00015f0a                lv_tlsf_pool_overhead

.text.lv_tlsf_alloc_overhead
                0x00015f0e        0x4
 .text.lv_tlsf_alloc_overhead
                0x00015f0e        0x4 C:/SysGCC/m68k-elf/m68k-elf/lib/m68000\liblvgl.a(lv_tlsf.o)
                0x00015f0e                lv_tlsf_alloc_overhead

.text.lv_tlsf_add_pool
                0x00015f12       0x5e
 .text.lv_tlsf_add_pool
                0x00015f12       0x5e C:/SysGCC/m68k-elf/m68k-elf/lib/m68000\liblvgl.a(lv_tlsf.o)
                0x00015f12                lv_tlsf_add_pool

.text.lv_tlsf_remove_pool
                0x00015f70       0x7a
 .text.lv_tlsf_remove_pool
                0x00015f70       0x7a C:/SysGCC/m68k-elf/m68k-elf/lib/m68000\liblvgl.a(lv_tlsf.o)
                0x00015f70                lv_tlsf_remove_pool

.text.lv_tlsf_create
                0x00015fea       0x50
 .text.lv_tlsf_create
                0x00015fea       0x50 C:/SysGCC/m68k-elf/m68k-elf/lib/m68000\liblvgl.a(lv_tlsf.o)
                0x00015fea                lv_tlsf_create

.text.lv_tlsf_create_with_pool
                0x0001603a       0x36
 .text.lv_tlsf_create_with_pool
                0x0001603a       0x36 C:/SysGCC/m68k-elf/m68k-elf/lib/m68000\liblvgl.a(lv_tlsf.o)
                0x0001603a                lv_tlsf_create_with_pool

.text.lv_tlsf_destroy
                0x00016070        0x2
 .text.lv_tlsf_destroy
                0x00016070        0x2 C:/SysGCC/m68k-elf/m68k-elf/lib/m68000\liblvgl.a(lv_tlsf.o)
                0x00016070                lv_tlsf_destroy

.text.lv_tlsf_get_pool
                0x00016072        0xc
 .text.lv_tlsf_get_pool
                0x00016072        0xc C:/SysGCC/m68k-elf/m68k-elf/lib/m68000\liblvgl.a(lv_tlsf.o)
                0x00016072                lv_tlsf_get_pool

.text.lv_tlsf_malloc
                0x0001607e       0x5e
 .text.lv_tlsf_malloc
                0x0001607e       0x5e C:/SysGCC/m68k-elf/m68k-elf/lib/m68000\liblvgl.a(lv_tlsf.o)
                0x0001607e                lv_tlsf_malloc

.text.lv_tlsf_memalign
                0x000160dc      0x124
 .text.lv_tlsf_memalign
                0x000160dc      0x124 C:/SysGCC/m68k-elf/m68k-elf/lib/m68000\liblvgl.a(lv_tlsf.o)
                0x000160dc                lv_tlsf_memalign

.text.lv_tlsf_free
                0x00016200       0xb2
 .text.lv_tlsf_free
                0x00016200       0xb2 C:/SysGCC/m68k-elf/m68k-elf/lib/m68000\liblvgl.a(lv_tlsf.o)
                0x00016200                lv_tlsf_free

.text.lv_tlsf_realloc
                0x000162b2      0x12a
 .text.lv_tlsf_realloc
                0x000162b2      0x12a C:/SysGCC/m68k-elf/m68k-elf/lib/m68000\liblvgl.a(lv_tlsf.o)
                0x000162b2                lv_tlsf_realloc

.text.lv_malloc
                0x000163dc       0x14
 .text.lv_malloc
                0x000163dc       0x14 C:/SysGCC/m68k-elf/m68k-elf/lib/m68000\liblvgl.a(lv_mem.o)
                0x000163dc                lv_malloc

.text.lv_malloc_zeroed
                0x000163f0       0x38
 .text.lv_malloc_zeroed
                0x000163f0       0x38 C:/SysGCC/m68k-elf/m68k-elf/lib/m68000\liblvgl.a(lv_mem.o)
                0x000163f0                lv_malloc_zeroed

.text.lv_calloc
                0x00016428       0x1a
 .text.lv_calloc
                0x00016428       0x1a C:/SysGCC/m68k-elf/m68k-elf/lib/m68000\liblvgl.a(lv_mem.o)
                0x00016428                lv_calloc

.text.lv_zalloc
                0x00016442        0x6
 .text.lv_zalloc
                0x00016442        0x6 C:/SysGCC/m68k-elf/m68k-elf/lib/m68000\liblvgl.a(lv_mem.o)
                0x00016442                lv_zalloc

.text.lv_free   0x00016448       0x18
 .text.lv_free  0x00016448       0x18 C:/SysGCC/m68k-elf/m68k-elf/lib/m68000\liblvgl.a(lv_mem.o)
                0x00016448                lv_free

.text.lv_realloc
                0x00016460       0x3c
 .text.lv_realloc
                0x00016460       0x3c C:/SysGCC/m68k-elf/m68k-elf/lib/m68000\liblvgl.a(lv_mem.o)
                0x00016460                lv_realloc

.text.lv_reallocf
                0x0001649c       0x32
 .text.lv_reallocf
                0x0001649c       0x32 C:/SysGCC/m68k-elf/m68k-elf/lib/m68000\liblvgl.a(lv_mem.o)
                0x0001649c                lv_reallocf

.text.lv_mem_test
                0x000164ce       0x16
 .text.lv_mem_test
                0x000164ce       0x16 C:/SysGCC/m68k-elf/m68k-elf/lib/m68000\liblvgl.a(lv_mem.o)
                0x000164ce                lv_mem_test

.text.lv_mem_monitor
                0x000164e4       0x24
 .text.lv_mem_monitor
                0x000164e4       0x24 C:/SysGCC/m68k-elf/m68k-elf/lib/m68000\liblvgl.a(lv_mem.o)
                0x000164e4                lv_mem_monitor

.text.theme_apply
                0x00016508      0xe46
 .text.theme_apply
                0x00016508      0x8a4 C:/SysGCC/m68k-elf/m68k-elf/lib/m68000\liblvgl.a(lv_theme_mono.o)
 .text.theme_apply
                0x00016dac      0x5a2 C:/SysGCC/m68k-elf/m68k-elf/lib/m68000\liblvgl.a(lv_theme_simple.o)

.text.lv_style_set_pad_all
                0x0001734e       0x40
 .text.lv_style_set_pad_all
                0x0001734e       0x40 C:/SysGCC/m68k-elf/m68k-elf/lib/m68000\liblvgl.a(lv_theme_mono.o)

.text.lv_theme_mono_is_inited
                0x0001738e       0x16
 .text.lv_theme_mono_is_inited
                0x0001738e       0x16 C:/SysGCC/m68k-elf/m68k-elf/lib/m68000\liblvgl.a(lv_theme_mono.o)
                0x0001738e                lv_theme_mono_is_inited

.text.style_init_reset
                0x000173a4       0x48
 .text.style_init_reset
                0x000173a4       0x24 C:/SysGCC/m68k-elf/m68k-elf/lib/m68000\liblvgl.a(lv_theme_mono.o)
 .text.style_init_reset
                0x000173c8       0x24 C:/SysGCC/m68k-elf/m68k-elf/lib/m68000\liblvgl.a(lv_theme_simple.o)

.text.lv_theme_mono_init
                0x000173ec      0x6d4
 .text.lv_theme_mono_init
                0x000173ec      0x6d4 C:/SysGCC/m68k-elf/m68k-elf/lib/m68000\liblvgl.a(lv_theme_mono.o)
                0x000173ec                lv_theme_mono_init

.text.lv_theme_mono_get
                0x00017ac0       0x16
 .text.lv_theme_mono_get
                0x00017ac0       0x16 C:/SysGCC/m68k-elf/m68k-elf/lib/m68000\liblvgl.a(lv_theme_mono.o)
                0x00017ac0                lv_theme_mono_get

.text.lv_theme_mono_deinit
                0x00017ad6       0x52
 .text.lv_theme_mono_deinit
                0x00017ad6       0x52 C:/SysGCC/m68k-elf/m68k-elf/lib/m68000\liblvgl.a(lv_theme_mono.o)
                0x00017ad6                lv_theme_mono_deinit

.text.lv_theme_simple_is_inited
                0x00017b28       0x16
 .text.lv_theme_simple_is_inited
                0x00017b28       0x16 C:/SysGCC/m68k-elf/m68k-elf/lib/m68000\liblvgl.a(lv_theme_simple.o)
                0x00017b28                lv_theme_simple_is_inited

.text.lv_theme_simple_init
                0x00017b3e      0x4ea
 .text.lv_theme_simple_init
                0x00017b3e      0x4ea C:/SysGCC/m68k-elf/m68k-elf/lib/m68000\liblvgl.a(lv_theme_simple.o)
                0x00017b3e                lv_theme_simple_init

.text.lv_theme_simple_get
                0x00018028       0x16
 .text.lv_theme_simple_get
                0x00018028       0x16 C:/SysGCC/m68k-elf/m68k-elf/lib/m68000\liblvgl.a(lv_theme_simple.o)
                0x00018028                lv_theme_simple_get

.text.lv_theme_simple_deinit
                0x0001803e       0x52
 .text.lv_theme_simple_deinit
                0x0001803e       0x52 C:/SysGCC/m68k-elf/m68k-elf/lib/m68000\liblvgl.a(lv_theme_simple.o)
                0x0001803e                lv_theme_simple_deinit

.text.get_angle
                0x00018090       0x76
 .text.get_angle
                0x00018090       0x76 C:/SysGCC/m68k-elf/m68k-elf/lib/m68000\liblvgl.a(lv_arc.o)

.text.lv_arc_angle_within_bg_bounds
                0x00018106       0xba
 .text.lv_arc_angle_within_bg_bounds
                0x00018106       0xba C:/SysGCC/m68k-elf/m68k-elf/lib/m68000\liblvgl.a(lv_arc.o)

.text.lv_obj_get_style_arc_width
                0x000181c0       0x22
 .text.lv_obj_get_style_arc_width
                0x000181c0       0x22 C:/SysGCC/m68k-elf/m68k-elf/lib/m68000\liblvgl.a(lv_arc.o)

.text.lv_obj_get_style_pad_left
                0x000181e2       0x44
 .text.lv_obj_get_style_pad_left
                0x000181e2       0x22 C:/SysGCC/m68k-elf/m68k-elf/lib/m68000\liblvgl.a(lv_arc.o)
 .text.lv_obj_get_style_pad_left
                0x00018204       0x22 C:/SysGCC/m68k-elf/m68k-elf/lib/m68000\liblvgl.a(lv_table.o)

.text.lv_obj_get_style_pad_right
                0x00018226       0x44
 .text.lv_obj_get_style_pad_right
                0x00018226       0x22 C:/SysGCC/m68k-elf/m68k-elf/lib/m68000\liblvgl.a(lv_arc.o)
 .text.lv_obj_get_style_pad_right
                0x00018248       0x22 C:/SysGCC/m68k-elf/m68k-elf/lib/m68000\liblvgl.a(lv_table.o)

.text.lv_obj_get_style_pad_top
                0x0001826a       0x44
 .text.lv_obj_get_style_pad_top
                0x0001826a       0x22 C:/SysGCC/m68k-elf/m68k-elf/lib/m68000\liblvgl.a(lv_arc.o)
 .text.lv_obj_get_style_pad_top
                0x0001828c       0x22 C:/SysGCC/m68k-elf/m68k-elf/lib/m68000\liblvgl.a(lv_table.o)

.text.lv_obj_get_style_pad_bottom
                0x000182ae       0x22
 .text.lv_obj_get_style_pad_bottom
                0x000182ae       0x22 C:/SysGCC/m68k-elf/m68k-elf/lib/m68000\liblvgl.a(lv_arc.o)

.text.get_center
                0x000182d0       0xa8
 .text.get_center
                0x000182d0       0xa8 C:/SysGCC/m68k-elf/m68k-elf/lib/m68000\liblvgl.a(lv_arc.o)

.text.get_knob_area
                0x00018378       0xe8
 .text.get_knob_area
                0x00018378       0xe8 C:/SysGCC/m68k-elf/m68k-elf/lib/m68000\liblvgl.a(lv_arc.o)

.text.lv_arc_constructor
                0x00018460       0x9a
 .text.lv_arc_constructor
                0x00018460       0x9a C:/SysGCC/m68k-elf/m68k-elf/lib/m68000\liblvgl.a(lv_arc.o)

.text.arc_value_changed_event_cb
                0x000184fa       0x40
 .text.arc_value_changed_event_cb
                0x000184fa       0x40 C:/SysGCC/m68k-elf/m68k-elf/lib/m68000\liblvgl.a(lv_arc.o)

.text.inv_arc_area
                0x0001853a       0xee
 .text.inv_arc_area
                0x0001853a       0xee C:/SysGCC/m68k-elf/m68k-elf/lib/m68000\liblvgl.a(lv_arc.o)

.text.knob_get_extra_size
                0x00018628      0x132
 .text.knob_get_extra_size
                0x00018628      0x132 C:/SysGCC/m68k-elf/m68k-elf/lib/m68000\liblvgl.a(lv_arc.o)

.text.inv_knob_area
                0x0001875a       0x68
 .text.inv_knob_area
                0x0001875a       0x68 C:/SysGCC/m68k-elf/m68k-elf/lib/m68000\liblvgl.a(lv_arc.o)

.text.lv_arc_create
                0x000187c2       0x28
 .text.lv_arc_create
                0x000187c2       0x28 C:/SysGCC/m68k-elf/m68k-elf/lib/m68000\liblvgl.a(lv_arc.o)
                0x000187c2                lv_arc_create

.text.lv_arc_set_start_angle
                0x000187ea       0x9e
 .text.lv_arc_set_start_angle
                0x000187ea       0x9e C:/SysGCC/m68k-elf/m68k-elf/lib/m68000\liblvgl.a(lv_arc.o)
                0x000187ea                lv_arc_set_start_angle

.text.lv_arc_set_end_angle
                0x00018888       0xa2
 .text.lv_arc_set_end_angle
                0x00018888       0xa2 C:/SysGCC/m68k-elf/m68k-elf/lib/m68000\liblvgl.a(lv_arc.o)
                0x00018888                lv_arc_set_end_angle

.text.lv_arc_set_angles
                0x0001892a       0x2c
 .text.lv_arc_set_angles
                0x0001892a       0x2c C:/SysGCC/m68k-elf/m68k-elf/lib/m68000\liblvgl.a(lv_arc.o)
                0x0001892a                lv_arc_set_angles

.text.value_update
                0x00018956      0x108
 .text.value_update
                0x00018956      0x108 C:/SysGCC/m68k-elf/m68k-elf/lib/m68000\liblvgl.a(lv_arc.o)

.text.lv_arc_set_bg_start_angle
                0x00018a5e       0x8c
 .text.lv_arc_set_bg_start_angle
                0x00018a5e       0x8c C:/SysGCC/m68k-elf/m68k-elf/lib/m68000\liblvgl.a(lv_arc.o)
                0x00018a5e                lv_arc_set_bg_start_angle

.text.lv_arc_set_bg_end_angle
                0x00018aea       0x90
 .text.lv_arc_set_bg_end_angle
                0x00018aea       0x90 C:/SysGCC/m68k-elf/m68k-elf/lib/m68000\liblvgl.a(lv_arc.o)
                0x00018aea                lv_arc_set_bg_end_angle

.text.lv_arc_set_bg_angles
                0x00018b7a       0x2c
 .text.lv_arc_set_bg_angles
                0x00018b7a       0x2c C:/SysGCC/m68k-elf/m68k-elf/lib/m68000\liblvgl.a(lv_arc.o)
                0x00018b7a                lv_arc_set_bg_angles

.text.lv_arc_set_rotation
                0x00018ba6       0x32
 .text.lv_arc_set_rotation
                0x00018ba6       0x32 C:/SysGCC/m68k-elf/m68k-elf/lib/m68000\liblvgl.a(lv_arc.o)
                0x00018ba6                lv_arc_set_rotation

.text.lv_arc_set_value
                0x00018bd8       0x38
 .text.lv_arc_set_value
                0x00018bd8       0x38 C:/SysGCC/m68k-elf/m68k-elf/lib/m68000\liblvgl.a(lv_arc.o)
                0x00018bd8                lv_arc_set_value

.text.lv_arc_event.part.1
                0x00018c10      0x822
 .text.lv_arc_event.part.1
                0x00018c10      0x822 C:/SysGCC/m68k-elf/m68k-elf/lib/m68000\liblvgl.a(lv_arc.o)

.text.lv_arc_event
                0x00019432       0x2c
 .text.lv_arc_event
                0x00019432       0x2c C:/SysGCC/m68k-elf/m68k-elf/lib/m68000\liblvgl.a(lv_arc.o)

.text.arc_value_observer_cb
                0x0001945e       0x2a
 .text.arc_value_observer_cb
                0x0001945e       0x2a C:/SysGCC/m68k-elf/m68k-elf/lib/m68000\liblvgl.a(lv_arc.o)

.text.lv_arc_set_mode
                0x00019488       0xa0
 .text.lv_arc_set_mode
                0x00019488       0xa0 C:/SysGCC/m68k-elf/m68k-elf/lib/m68000\liblvgl.a(lv_arc.o)
                0x00019488                lv_arc_set_mode

.text.lv_arc_set_range
                0x00019528       0x40
 .text.lv_arc_set_range
                0x00019528       0x40 C:/SysGCC/m68k-elf/m68k-elf/lib/m68000\liblvgl.a(lv_arc.o)
                0x00019528                lv_arc_set_range

.text.lv_arc_set_min_value
                0x00019568       0x1a
 .text.lv_arc_set_min_value
                0x00019568       0x1a C:/SysGCC/m68k-elf/m68k-elf/lib/m68000\liblvgl.a(lv_arc.o)
                0x00019568                lv_arc_set_min_value

.text.lv_arc_set_max_value
                0x00019582       0x1a
 .text.lv_arc_set_max_value
                0x00019582       0x1a C:/SysGCC/m68k-elf/m68k-elf/lib/m68000\liblvgl.a(lv_arc.o)
                0x00019582                lv_arc_set_max_value

.text.lv_arc_set_change_rate
                0x0001959c        0xc
 .text.lv_arc_set_change_rate
                0x0001959c        0xc C:/SysGCC/m68k-elf/m68k-elf/lib/m68000\liblvgl.a(lv_arc.o)
                0x0001959c                lv_arc_set_change_rate

.text.lv_arc_set_knob_offset
                0x000195a8        0xc
 .text.lv_arc_set_knob_offset
                0x000195a8        0xc C:/SysGCC/m68k-elf/m68k-elf/lib/m68000\liblvgl.a(lv_arc.o)
                0x000195a8                lv_arc_set_knob_offset

.text.lv_arc_get_angle_start
                0x000195b4        0xa
 .text.lv_arc_get_angle_start
                0x000195b4        0xa C:/SysGCC/m68k-elf/m68k-elf/lib/m68000\liblvgl.a(lv_arc.o)
                0x000195b4                lv_arc_get_angle_start

.text.lv_arc_get_angle_end
                0x000195be        0xa
 .text.lv_arc_get_angle_end
                0x000195be        0xa C:/SysGCC/m68k-elf/m68k-elf/lib/m68000\liblvgl.a(lv_arc.o)
                0x000195be                lv_arc_get_angle_end

.text.lv_arc_get_bg_angle_start
                0x000195c8        0xa
 .text.lv_arc_get_bg_angle_start
                0x000195c8        0xa C:/SysGCC/m68k-elf/m68k-elf/lib/m68000\liblvgl.a(lv_arc.o)
                0x000195c8                lv_arc_get_bg_angle_start

.text.lv_arc_get_bg_angle_end
                0x000195d2        0xa
 .text.lv_arc_get_bg_angle_end
                0x000195d2        0xa C:/SysGCC/m68k-elf/m68k-elf/lib/m68000\liblvgl.a(lv_arc.o)
                0x000195d2                lv_arc_get_bg_angle_end

.text.lv_arc_get_value
                0x000195dc        0xa
 .text.lv_arc_get_value
                0x000195dc        0xa C:/SysGCC/m68k-elf/m68k-elf/lib/m68000\liblvgl.a(lv_arc.o)
                0x000195dc                lv_arc_get_value

.text.lv_arc_get_min_value
                0x000195e6        0xa
 .text.lv_arc_get_min_value
                0x000195e6        0xa C:/SysGCC/m68k-elf/m68k-elf/lib/m68000\liblvgl.a(lv_arc.o)
                0x000195e6                lv_arc_get_min_value

.text.lv_arc_get_max_value
                0x000195f0        0xa
 .text.lv_arc_get_max_value
                0x000195f0        0xa C:/SysGCC/m68k-elf/m68k-elf/lib/m68000\liblvgl.a(lv_arc.o)
                0x000195f0                lv_arc_get_max_value

.text.lv_arc_get_mode
                0x000195fa       0x10
 .text.lv_arc_get_mode
                0x000195fa       0x10 C:/SysGCC/m68k-elf/m68k-elf/lib/m68000\liblvgl.a(lv_arc.o)
                0x000195fa                lv_arc_get_mode

.text.lv_arc_get_rotation
                0x0001960a        0xa
 .text.lv_arc_get_rotation
                0x0001960a        0xa C:/SysGCC/m68k-elf/m68k-elf/lib/m68000\liblvgl.a(lv_arc.o)
                0x0001960a                lv_arc_get_rotation

.text.lv_arc_get_knob_offset
                0x00019614        0xc
 .text.lv_arc_get_knob_offset
                0x00019614        0xc C:/SysGCC/m68k-elf/m68k-elf/lib/m68000\liblvgl.a(lv_arc.o)
                0x00019614                lv_arc_get_knob_offset

.text.lv_arc_get_change_rate
                0x00019620        0xa
 .text.lv_arc_get_change_rate
                0x00019620        0xa C:/SysGCC/m68k-elf/m68k-elf/lib/m68000\liblvgl.a(lv_arc.o)
                0x00019620                lv_arc_get_change_rate

.text.lv_arc_bind_value
                0x0001962a       0x4e
 .text.lv_arc_bind_value
                0x0001962a       0x4e C:/SysGCC/m68k-elf/m68k-elf/lib/m68000\liblvgl.a(lv_arc.o)
                0x0001962a                lv_arc_bind_value

.text.lv_arc_align_obj_to_angle
                0x00019678       0xb4
 .text.lv_arc_align_obj_to_angle
                0x00019678       0xb4 C:/SysGCC/m68k-elf/m68k-elf/lib/m68000\liblvgl.a(lv_arc.o)
                0x00019678                lv_arc_align_obj_to_angle

.text.lv_arc_rotate_obj_to_angle
                0x0001972c       0xc8
 .text.lv_arc_rotate_obj_to_angle
                0x0001972c       0xc8 C:/SysGCC/m68k-elf/m68k-elf/lib/m68000\liblvgl.a(lv_arc.o)
                0x0001972c                lv_arc_rotate_obj_to_angle

.text.lv_bar_destructor
                0x000197f4       0x2a
 .text.lv_bar_destructor
                0x000197f4       0x2a C:/SysGCC/m68k-elf/m68k-elf/lib/m68000\liblvgl.a(lv_bar.o)

.text.lv_bar_anim_completed
                0x0001981e       0x3a
 .text.lv_bar_anim_completed
                0x0001981e       0x3a C:/SysGCC/m68k-elf/m68k-elf/lib/m68000\liblvgl.a(lv_bar.o)

.text.lv_bar_anim
                0x00019858       0x14
 .text.lv_bar_anim
                0x00019858       0x14 C:/SysGCC/m68k-elf/m68k-elf/lib/m68000\liblvgl.a(lv_bar.o)

.text.lv_bar_set_value_with_anim
                0x0001986c       0xf0
 .text.lv_bar_set_value_with_anim
                0x0001986c       0xf0 C:/SysGCC/m68k-elf/m68k-elf/lib/m68000\liblvgl.a(lv_bar.o)

.text.lv_bar_create
                0x0001995c       0x28
 .text.lv_bar_create
                0x0001995c       0x28 C:/SysGCC/m68k-elf/m68k-elf/lib/m68000\liblvgl.a(lv_bar.o)
                0x0001995c                lv_bar_create

.text.lv_bar_set_value
                0x00019984       0x5c
 .text.lv_bar_set_value
                0x00019984       0x5c C:/SysGCC/m68k-elf/m68k-elf/lib/m68000\liblvgl.a(lv_bar.o)
                0x00019984                lv_bar_set_value

.text.lv_bar_constructor
                0x000199e0       0x82
 .text.lv_bar_constructor
                0x000199e0       0x82 C:/SysGCC/m68k-elf/m68k-elf/lib/m68000\liblvgl.a(lv_bar.o)

.text.bar_value_observer_cb
                0x00019a62       0x48
 .text.bar_value_observer_cb
                0x00019a62       0x48 C:/SysGCC/m68k-elf/m68k-elf/lib/m68000\liblvgl.a(lv_bar.o)

.text.lv_bar_set_start_value
                0x00019aaa       0x60
 .text.lv_bar_set_start_value
                0x00019aaa       0x60 C:/SysGCC/m68k-elf/m68k-elf/lib/m68000\liblvgl.a(lv_bar.o)
                0x00019aaa                lv_bar_set_start_value

.text.lv_bar_set_range
                0x00019b0a       0x8e
 .text.lv_bar_set_range
                0x00019b0a       0x8e C:/SysGCC/m68k-elf/m68k-elf/lib/m68000\liblvgl.a(lv_bar.o)
                0x00019b0a                lv_bar_set_range

.text.lv_bar_set_mode
                0x00019b98       0x34
 .text.lv_bar_set_mode
                0x00019b98       0x34 C:/SysGCC/m68k-elf/m68k-elf/lib/m68000\liblvgl.a(lv_bar.o)
                0x00019b98                lv_bar_set_mode

.text.lv_bar_set_orientation
                0x00019bcc       0x24
 .text.lv_bar_set_orientation
                0x00019bcc       0x24 C:/SysGCC/m68k-elf/m68k-elf/lib/m68000\liblvgl.a(lv_bar.o)
                0x00019bcc                lv_bar_set_orientation

.text.lv_bar_get_value
                0x00019bf0       0x18
 .text.lv_bar_get_value
                0x00019bf0       0x18 C:/SysGCC/m68k-elf/m68k-elf/lib/m68000\liblvgl.a(lv_bar.o)
                0x00019bf0                lv_bar_get_value

.text.lv_bar_get_start_value
                0x00019c08       0x2c
 .text.lv_bar_get_start_value
                0x00019c08       0x2c C:/SysGCC/m68k-elf/m68k-elf/lib/m68000\liblvgl.a(lv_bar.o)
                0x00019c08                lv_bar_get_start_value

.text.lv_bar_get_min_value
                0x00019c34       0x16
 .text.lv_bar_get_min_value
                0x00019c34       0x16 C:/SysGCC/m68k-elf/m68k-elf/lib/m68000\liblvgl.a(lv_bar.o)
                0x00019c34                lv_bar_get_min_value

.text.lv_bar_set_max_value
                0x00019c4a       0x26
 .text.lv_bar_set_max_value
                0x00019c4a       0x26 C:/SysGCC/m68k-elf/m68k-elf/lib/m68000\liblvgl.a(lv_bar.o)
                0x00019c4a                lv_bar_set_max_value

.text.lv_bar_get_max_value
                0x00019c70       0x16
 .text.lv_bar_get_max_value
                0x00019c70       0x16 C:/SysGCC/m68k-elf/m68k-elf/lib/m68000\liblvgl.a(lv_bar.o)
                0x00019c70                lv_bar_get_max_value

.text.lv_bar_set_min_value
                0x00019c86       0x24
 .text.lv_bar_set_min_value
                0x00019c86       0x24 C:/SysGCC/m68k-elf/m68k-elf/lib/m68000\liblvgl.a(lv_bar.o)
                0x00019c86                lv_bar_set_min_value

.text.lv_bar_get_mode
                0x00019caa       0x10
 .text.lv_bar_get_mode
                0x00019caa       0x10 C:/SysGCC/m68k-elf/m68k-elf/lib/m68000\liblvgl.a(lv_bar.o)
                0x00019caa                lv_bar_get_mode

.text.lv_bar_get_orientation
                0x00019cba       0x10
 .text.lv_bar_get_orientation
                0x00019cba       0x10 C:/SysGCC/m68k-elf/m68k-elf/lib/m68000\liblvgl.a(lv_bar.o)
                0x00019cba                lv_bar_get_orientation

.text.lv_bar_is_symmetrical
                0x00019cca       0x34
 .text.lv_bar_is_symmetrical
                0x00019cca       0x34 C:/SysGCC/m68k-elf/m68k-elf/lib/m68000\liblvgl.a(lv_bar.o)
                0x00019cca                lv_bar_is_symmetrical

.text.draw_indic
                0x00019cfe      0x78a
 .text.draw_indic
                0x00019cfe      0x78a C:/SysGCC/m68k-elf/m68k-elf/lib/m68000\liblvgl.a(lv_bar.o)

.text.lv_bar_event
                0x0001a488      0x11c
 .text.lv_bar_event
                0x0001a488      0x11c C:/SysGCC/m68k-elf/m68k-elf/lib/m68000\liblvgl.a(lv_bar.o)

.text.lv_bar_bind_value
                0x0001a5a4       0x30
 .text.lv_bar_bind_value
                0x0001a5a4       0x30 C:/SysGCC/m68k-elf/m68k-elf/lib/m68000\liblvgl.a(lv_bar.o)
                0x0001a5a4                lv_bar_bind_value

.text.lv_button_constructor
                0x0001a5d4       0x28
 .text.lv_button_constructor
                0x0001a5d4       0x28 C:/SysGCC/m68k-elf/m68k-elf/lib/m68000\liblvgl.a(lv_button.o)

.text.lv_button_create
                0x0001a5fc       0x28
 .text.lv_button_create
                0x0001a5fc       0x28 C:/SysGCC/m68k-elf/m68k-elf/lib/m68000\liblvgl.a(lv_button.o)
                0x0001a5fc                lv_button_create

.text.lv_buttonmatrix_destructor
                0x0001a624       0x2a
 .text.lv_buttonmatrix_destructor
                0x0001a624       0x2a C:/SysGCC/m68k-elf/m68k-elf/lib/m68000\liblvgl.a(lv_buttonmatrix.o)

.text.free_map.isra.1
                0x0001a64e       0x36
 .text.free_map.isra.1
                0x0001a64e       0x36 C:/SysGCC/m68k-elf/m68k-elf/lib/m68000\liblvgl.a(lv_buttonmatrix.o)

.text.lv_obj_get_style_pad_column.constprop.12
                0x0001a684       0x20
 .text.lv_obj_get_style_pad_column.constprop.12
                0x0001a684       0x20 C:/SysGCC/m68k-elf/m68k-elf/lib/m68000\liblvgl.a(lv_buttonmatrix.o)

.text.invalidate_button_area
                0x0001a6a4      0x10a
 .text.invalidate_button_area
                0x0001a6a4      0x10a C:/SysGCC/m68k-elf/m68k-elf/lib/m68000\liblvgl.a(lv_buttonmatrix.o)

.text.draw_main
                0x0001a7ae     0x132c
 .text.draw_main
                0x0001a7ae      0x440 C:/SysGCC/m68k-elf/m68k-elf/lib/m68000\liblvgl.a(lv_buttonmatrix.o)
 .text.draw_main
                0x0001abee      0x39e C:/SysGCC/m68k-elf/m68k-elf/lib/m68000\liblvgl.a(lv_dropdown.o)
 .text.draw_main
                0x0001af8c      0x2c0 C:/SysGCC/m68k-elf/m68k-elf/lib/m68000\liblvgl.a(lv_roller.o)
 .text.draw_main
                0x0001b24c      0x284 C:/SysGCC/m68k-elf/m68k-elf/lib/m68000\liblvgl.a(lv_switch.o)
 .text.draw_main
                0x0001b4d0      0x60a C:/SysGCC/m68k-elf/m68k-elf/lib/m68000\liblvgl.a(lv_table.o)

.text.get_button_from_point
                0x0001bada      0x1f0
 .text.get_button_from_point
                0x0001bada      0x1f0 C:/SysGCC/m68k-elf/m68k-elf/lib/m68000\liblvgl.a(lv_buttonmatrix.o)

.text.update_map
                0x0001bcca      0x2ac
 .text.update_map
                0x0001bcca      0x2ac C:/SysGCC/m68k-elf/m68k-elf/lib/m68000\liblvgl.a(lv_buttonmatrix.o)

.text.lv_buttonmatrix_create
                0x0001bf76       0x28
 .text.lv_buttonmatrix_create
                0x0001bf76       0x28 C:/SysGCC/m68k-elf/m68k-elf/lib/m68000\liblvgl.a(lv_buttonmatrix.o)
                0x0001bf76                lv_buttonmatrix_create

.text.lv_buttonmatrix_set_map
                0x0001bf9e       0xfa
 .text.lv_buttonmatrix_set_map
                0x0001bf9e       0xfa C:/SysGCC/m68k-elf/m68k-elf/lib/m68000\liblvgl.a(lv_buttonmatrix.o)
                0x0001bf9e                lv_buttonmatrix_set_map

.text.lv_buttonmatrix_constructor
                0x0001c098       0x38
 .text.lv_buttonmatrix_constructor
                0x0001c098       0x38 C:/SysGCC/m68k-elf/m68k-elf/lib/m68000\liblvgl.a(lv_buttonmatrix.o)

.text.lv_buttonmatrix_set_ctrl_map
                0x0001c0d0       0x2e
 .text.lv_buttonmatrix_set_ctrl_map
                0x0001c0d0       0x2e C:/SysGCC/m68k-elf/m68k-elf/lib/m68000\liblvgl.a(lv_buttonmatrix.o)
                0x0001c0d0                lv_buttonmatrix_set_ctrl_map

.text.lv_buttonmatrix_set_selected_button
                0x0001c0fe       0x44
 .text.lv_buttonmatrix_set_selected_button
                0x0001c0fe       0x44 C:/SysGCC/m68k-elf/m68k-elf/lib/m68000\liblvgl.a(lv_buttonmatrix.o)
                0x0001c0fe                lv_buttonmatrix_set_selected_button

.text.lv_buttonmatrix_clear_button_ctrl
                0x0001c142       0x4c
 .text.lv_buttonmatrix_clear_button_ctrl
                0x0001c142       0x4c C:/SysGCC/m68k-elf/m68k-elf/lib/m68000\liblvgl.a(lv_buttonmatrix.o)
                0x0001c142                lv_buttonmatrix_clear_button_ctrl

.text.lv_buttonmatrix_clear_button_ctrl_all
                0x0001c18e       0x2e
 .text.lv_buttonmatrix_clear_button_ctrl_all
                0x0001c18e       0x2e C:/SysGCC/m68k-elf/m68k-elf/lib/m68000\liblvgl.a(lv_buttonmatrix.o)
                0x0001c18e                lv_buttonmatrix_clear_button_ctrl_all

.text.lv_buttonmatrix_set_button_ctrl
                0x0001c1bc       0x62
 .text.lv_buttonmatrix_set_button_ctrl
                0x0001c1bc       0x62 C:/SysGCC/m68k-elf/m68k-elf/lib/m68000\liblvgl.a(lv_buttonmatrix.o)
                0x0001c1bc                lv_buttonmatrix_set_button_ctrl

.text.lv_buttonmatrix_set_button_ctrl_all
                0x0001c21e       0x2e
 .text.lv_buttonmatrix_set_button_ctrl_all
                0x0001c21e       0x2e C:/SysGCC/m68k-elf/m68k-elf/lib/m68000\liblvgl.a(lv_buttonmatrix.o)
                0x0001c21e                lv_buttonmatrix_set_button_ctrl_all

.text.lv_buttonmatrix_set_button_width
                0x0001c24c       0x36
 .text.lv_buttonmatrix_set_button_width
                0x0001c24c       0x36 C:/SysGCC/m68k-elf/m68k-elf/lib/m68000\liblvgl.a(lv_buttonmatrix.o)
                0x0001c24c                lv_buttonmatrix_set_button_width

.text.lv_buttonmatrix_get_map
                0x0001c282        0xa
 .text.lv_buttonmatrix_get_map
                0x0001c282        0xa C:/SysGCC/m68k-elf/m68k-elf/lib/m68000\liblvgl.a(lv_buttonmatrix.o)
                0x0001c282                lv_buttonmatrix_get_map

.text.lv_buttonmatrix_get_selected_button
                0x0001c28c        0xa
 .text.lv_buttonmatrix_get_selected_button
                0x0001c28c        0xa C:/SysGCC/m68k-elf/m68k-elf/lib/m68000\liblvgl.a(lv_buttonmatrix.o)
                0x0001c28c                lv_buttonmatrix_get_selected_button

.text.lv_buttonmatrix_get_button_text
                0x0001c296       0x6e
 .text.lv_buttonmatrix_get_button_text
                0x0001c296       0x6e C:/SysGCC/m68k-elf/m68k-elf/lib/m68000\liblvgl.a(lv_buttonmatrix.o)
                0x0001c296                lv_buttonmatrix_get_button_text

.text.lv_buttonmatrix_has_button_ctrl
                0x0001c304       0x2e
 .text.lv_buttonmatrix_has_button_ctrl
                0x0001c304       0x2e C:/SysGCC/m68k-elf/m68k-elf/lib/m68000\liblvgl.a(lv_buttonmatrix.o)
                0x0001c304                lv_buttonmatrix_has_button_ctrl

.text.make_one_button_checked
                0x0001c332       0x4a
 .text.make_one_button_checked
                0x0001c332       0x4a C:/SysGCC/m68k-elf/m68k-elf/lib/m68000\liblvgl.a(lv_buttonmatrix.o)

.text.lv_buttonmatrix_event
                0x0001c37c      0x686
 .text.lv_buttonmatrix_event
                0x0001c37c      0x686 C:/SysGCC/m68k-elf/m68k-elf/lib/m68000\liblvgl.a(lv_buttonmatrix.o)

.text.lv_buttonmatrix_set_one_checked
                0x0001ca02       0x22
 .text.lv_buttonmatrix_set_one_checked
                0x0001ca02       0x22 C:/SysGCC/m68k-elf/m68k-elf/lib/m68000\liblvgl.a(lv_buttonmatrix.o)
                0x0001ca02                lv_buttonmatrix_set_one_checked

.text.lv_buttonmatrix_get_one_checked
                0x0001ca24        0xc
 .text.lv_buttonmatrix_get_one_checked
                0x0001ca24        0xc C:/SysGCC/m68k-elf/m68k-elf/lib/m68000\liblvgl.a(lv_buttonmatrix.o)
                0x0001ca24                lv_buttonmatrix_get_one_checked

.text.get_month_length
                0x0001ca30       0x8c
 .text.get_month_length
                0x0001ca30       0x8c C:/SysGCC/m68k-elf/m68k-elf/lib/m68000\liblvgl.a(lv_calendar.o)

.text.draw_task_added_event_cb
                0x0001cabc      0x15a
 .text.draw_task_added_event_cb
                0x0001cabc      0x15a C:/SysGCC/m68k-elf/m68k-elf/lib/m68000\liblvgl.a(lv_calendar.o)

.text.get_day_of_week.constprop.0
                0x0001cc16       0x78
 .text.get_day_of_week.constprop.0
                0x0001cc16       0x78 C:/SysGCC/m68k-elf/m68k-elf/lib/m68000\liblvgl.a(lv_calendar.o)

.text.highlight_update
                0x0001cc8e       0xc6
 .text.highlight_update
                0x0001cc8e       0xc6 C:/SysGCC/m68k-elf/m68k-elf/lib/m68000\liblvgl.a(lv_calendar.o)

.text.lv_calendar_create
                0x0001cd54       0x28
 .text.lv_calendar_create
                0x0001cd54       0x28 C:/SysGCC/m68k-elf/m68k-elf/lib/m68000\liblvgl.a(lv_calendar.o)
                0x0001cd54                lv_calendar_create

.text.lv_calendar_set_day_names
                0x0001cd7c       0x22
 .text.lv_calendar_set_day_names
                0x0001cd7c       0x22 C:/SysGCC/m68k-elf/m68k-elf/lib/m68000\liblvgl.a(lv_calendar.o)
                0x0001cd7c                lv_calendar_set_day_names

.text.lv_calendar_set_today_date
                0x0001cd9e       0x4c
 .text.lv_calendar_set_today_date
                0x0001cd9e       0x4c C:/SysGCC/m68k-elf/m68k-elf/lib/m68000\liblvgl.a(lv_calendar.o)
                0x0001cd9e                lv_calendar_set_today_date

.text.lv_calendar_set_today_year
                0x0001cdea       0x24
 .text.lv_calendar_set_today_year
                0x0001cdea       0x24 C:/SysGCC/m68k-elf/m68k-elf/lib/m68000\liblvgl.a(lv_calendar.o)
                0x0001cdea                lv_calendar_set_today_year

.text.lv_calendar_set_today_month
                0x0001ce0e       0x24
 .text.lv_calendar_set_today_month
                0x0001ce0e       0x24 C:/SysGCC/m68k-elf/m68k-elf/lib/m68000\liblvgl.a(lv_calendar.o)
                0x0001ce0e                lv_calendar_set_today_month

.text.lv_calendar_set_today_day
                0x0001ce32       0x24
 .text.lv_calendar_set_today_day
                0x0001ce32       0x24 C:/SysGCC/m68k-elf/m68k-elf/lib/m68000\liblvgl.a(lv_calendar.o)
                0x0001ce32                lv_calendar_set_today_day

.text.lv_calendar_set_highlighted_dates
                0x0001ce56       0x16
 .text.lv_calendar_set_highlighted_dates
                0x0001ce56       0x16 C:/SysGCC/m68k-elf/m68k-elf/lib/m68000\liblvgl.a(lv_calendar.o)
                0x0001ce56                lv_calendar_set_highlighted_dates

.text.lv_calendar_set_month_shown
                0x0001ce6c      0x216
 .text.lv_calendar_set_month_shown
                0x0001ce6c      0x216 C:/SysGCC/m68k-elf/m68k-elf/lib/m68000\liblvgl.a(lv_calendar.o)
                0x0001ce6c                lv_calendar_set_month_shown

.text.lv_calendar_constructor
                0x0001d082      0x146
 .text.lv_calendar_constructor
                0x0001d082      0x146 C:/SysGCC/m68k-elf/m68k-elf/lib/m68000\liblvgl.a(lv_calendar.o)

.text.lv_calendar_set_shown_year
                0x0001d1c8       0x1e
 .text.lv_calendar_set_shown_year
                0x0001d1c8       0x1e C:/SysGCC/m68k-elf/m68k-elf/lib/m68000\liblvgl.a(lv_calendar.o)
                0x0001d1c8                lv_calendar_set_shown_year

.text.lv_calendar_set_shown_month
                0x0001d1e6       0x1e
 .text.lv_calendar_set_shown_month
                0x0001d1e6       0x1e C:/SysGCC/m68k-elf/m68k-elf/lib/m68000\liblvgl.a(lv_calendar.o)
                0x0001d1e6                lv_calendar_set_shown_month

.text.lv_calendar_get_btnmatrix
                0x0001d204        0xa
 .text.lv_calendar_get_btnmatrix
                0x0001d204        0xa C:/SysGCC/m68k-elf/m68k-elf/lib/m68000\liblvgl.a(lv_calendar.o)
                0x0001d204                lv_calendar_get_btnmatrix

.text.lv_calendar_get_today_date
                0x0001d20e        0x8
 .text.lv_calendar_get_today_date
                0x0001d20e        0x8 C:/SysGCC/m68k-elf/m68k-elf/lib/m68000\liblvgl.a(lv_calendar.o)
                0x0001d20e                lv_calendar_get_today_date

.text.lv_calendar_get_showed_date
                0x0001d216        0x8
 .text.lv_calendar_get_showed_date
                0x0001d216        0x8 C:/SysGCC/m68k-elf/m68k-elf/lib/m68000\liblvgl.a(lv_calendar.o)
                0x0001d216                lv_calendar_get_showed_date

.text.lv_calendar_get_highlighted_dates
                0x0001d21e        0xa
 .text.lv_calendar_get_highlighted_dates
                0x0001d21e        0xa C:/SysGCC/m68k-elf/m68k-elf/lib/m68000\liblvgl.a(lv_calendar.o)
                0x0001d21e                lv_calendar_get_highlighted_dates

.text.lv_calendar_get_highlighted_dates_num
                0x0001d228        0xa
 .text.lv_calendar_get_highlighted_dates_num
                0x0001d228        0xa C:/SysGCC/m68k-elf/m68k-elf/lib/m68000\liblvgl.a(lv_calendar.o)
                0x0001d228                lv_calendar_get_highlighted_dates_num

.text.lv_calendar_get_pressed_date
                0x0001d232       0x84
 .text.lv_calendar_get_pressed_date
                0x0001d232       0x84 C:/SysGCC/m68k-elf/m68k-elf/lib/m68000\liblvgl.a(lv_calendar.o)
                0x0001d232                lv_calendar_get_pressed_date

.text.value_to_y
                0x0001d2b6       0x34
 .text.value_to_y
                0x0001d2b6       0x34 C:/SysGCC/m68k-elf/m68k-elf/lib/m68000\liblvgl.a(lv_chart.o)

.text.lv_obj_get_style_width
                0x0001d2ea       0x22
 .text.lv_obj_get_style_width
                0x0001d2ea       0x22 C:/SysGCC/m68k-elf/m68k-elf/lib/m68000\liblvgl.a(lv_chart.o)

.text.lv_obj_get_style_pad_column
                0x0001d30c       0x22
 .text.lv_obj_get_style_pad_column
                0x0001d30c       0x22 C:/SysGCC/m68k-elf/m68k-elf/lib/m68000\liblvgl.a(lv_chart.o)

.text.lv_chart_destructor
                0x0001d32e       0xb0
 .text.lv_chart_destructor
                0x0001d32e       0xb0 C:/SysGCC/m68k-elf/m68k-elf/lib/m68000\liblvgl.a(lv_chart.o)

.text.lv_chart_constructor
                0x0001d3de       0x7e
 .text.lv_chart_constructor
                0x0001d3de       0x7e C:/SysGCC/m68k-elf/m68k-elf/lib/m68000\liblvgl.a(lv_chart.o)

.text.new_points_alloc.isra.1
                0x0001d45c       0xec
 .text.new_points_alloc.isra.1
                0x0001d45c       0xec C:/SysGCC/m68k-elf/m68k-elf/lib/m68000\liblvgl.a(lv_chart.o)

.text.lv_obj_get_style_pad_top.constprop.6
                0x0001d548       0x20
 .text.lv_obj_get_style_pad_top.constprop.6
                0x0001d548       0x20 C:/SysGCC/m68k-elf/m68k-elf/lib/m68000\liblvgl.a(lv_chart.o)

.text.lv_obj_get_style_pad_left.constprop.11
                0x0001d568       0x20
 .text.lv_obj_get_style_pad_left.constprop.11
                0x0001d568       0x20 C:/SysGCC/m68k-elf/m68k-elf/lib/m68000\liblvgl.a(lv_chart.o)

.text.lv_obj_get_style_border_width.constprop.12
                0x0001d588       0x20
 .text.lv_obj_get_style_border_width.constprop.12
                0x0001d588       0x20 C:/SysGCC/m68k-elf/m68k-elf/lib/m68000\liblvgl.a(lv_chart.o)

.text.invalidate_point
                0x0001d5a8      0x206
 .text.invalidate_point
                0x0001d5a8      0x206 C:/SysGCC/m68k-elf/m68k-elf/lib/m68000\liblvgl.a(lv_chart.o)

.text.lv_chart_create
                0x0001d7ae       0x28
 .text.lv_chart_create
                0x0001d7ae       0x28 C:/SysGCC/m68k-elf/m68k-elf/lib/m68000\liblvgl.a(lv_chart.o)
                0x0001d7ae                lv_chart_create

.text.lv_chart_set_type
                0x0001d7d6       0xce
 .text.lv_chart_set_type
                0x0001d7d6       0xce C:/SysGCC/m68k-elf/m68k-elf/lib/m68000\liblvgl.a(lv_chart.o)
                0x0001d7d6                lv_chart_set_type

.text.lv_chart_set_point_count
                0x0001d8a4       0xa6
 .text.lv_chart_set_point_count
                0x0001d8a4       0xa6 C:/SysGCC/m68k-elf/m68k-elf/lib/m68000\liblvgl.a(lv_chart.o)
                0x0001d8a4                lv_chart_set_point_count

.text.lv_chart_set_axis_min_value
                0x0001d94a       0x66
 .text.lv_chart_set_axis_min_value
                0x0001d94a       0x66 C:/SysGCC/m68k-elf/m68k-elf/lib/m68000\liblvgl.a(lv_chart.o)
                0x0001d94a                lv_chart_set_axis_min_value

.text.lv_chart_set_axis_max_value
                0x0001d9b0       0x66
 .text.lv_chart_set_axis_max_value
                0x0001d9b0       0x66 C:/SysGCC/m68k-elf/m68k-elf/lib/m68000\liblvgl.a(lv_chart.o)
                0x0001d9b0                lv_chart_set_axis_max_value

.text.lv_chart_set_axis_range
                0x0001da16       0x38
 .text.lv_chart_set_axis_range
                0x0001da16       0x38 C:/SysGCC/m68k-elf/m68k-elf/lib/m68000\liblvgl.a(lv_chart.o)
                0x0001da16                lv_chart_set_axis_range

.text.lv_chart_set_update_mode
                0x0001da4e       0x3e
 .text.lv_chart_set_update_mode
                0x0001da4e       0x3e C:/SysGCC/m68k-elf/m68k-elf/lib/m68000\liblvgl.a(lv_chart.o)
                0x0001da4e                lv_chart_set_update_mode

.text.lv_chart_set_div_line_count
                0x0001da8c       0x2c
 .text.lv_chart_set_div_line_count
                0x0001da8c       0x2c C:/SysGCC/m68k-elf/m68k-elf/lib/m68000\liblvgl.a(lv_chart.o)
                0x0001da8c                lv_chart_set_div_line_count

.text.lv_chart_set_hor_div_line_count
                0x0001dab8       0x1a
 .text.lv_chart_set_hor_div_line_count
                0x0001dab8       0x1a C:/SysGCC/m68k-elf/m68k-elf/lib/m68000\liblvgl.a(lv_chart.o)
                0x0001dab8                lv_chart_set_hor_div_line_count

.text.lv_chart_set_ver_div_line_count
                0x0001dad2       0x1a
 .text.lv_chart_set_ver_div_line_count
                0x0001dad2       0x1a C:/SysGCC/m68k-elf/m68k-elf/lib/m68000\liblvgl.a(lv_chart.o)
                0x0001dad2                lv_chart_set_ver_div_line_count

.text.lv_chart_get_type
                0x0001daec       0x10
 .text.lv_chart_get_type
                0x0001daec       0x10 C:/SysGCC/m68k-elf/m68k-elf/lib/m68000\liblvgl.a(lv_chart.o)
                0x0001daec                lv_chart_get_type

.text.lv_chart_get_point_count
                0x0001dafc        0xa
 .text.lv_chart_get_point_count
                0x0001dafc        0xa C:/SysGCC/m68k-elf/m68k-elf/lib/m68000\liblvgl.a(lv_chart.o)
                0x0001dafc                lv_chart_get_point_count

.text.lv_chart_get_update_mode
                0x0001db06       0x10
 .text.lv_chart_get_update_mode
                0x0001db06       0x10 C:/SysGCC/m68k-elf/m68k-elf/lib/m68000\liblvgl.a(lv_chart.o)
                0x0001db06                lv_chart_get_update_mode

.text.lv_chart_get_hor_div_line_count
                0x0001db16        0xa
 .text.lv_chart_get_hor_div_line_count
                0x0001db16        0xa C:/SysGCC/m68k-elf/m68k-elf/lib/m68000\liblvgl.a(lv_chart.o)
                0x0001db16                lv_chart_get_hor_div_line_count

.text.lv_chart_get_ver_div_line_count
                0x0001db20        0xa
 .text.lv_chart_get_ver_div_line_count
                0x0001db20        0xa C:/SysGCC/m68k-elf/m68k-elf/lib/m68000\liblvgl.a(lv_chart.o)
                0x0001db20                lv_chart_get_ver_div_line_count

.text.lv_chart_get_x_start_point
                0x0001db2a        0xa
 .text.lv_chart_get_x_start_point
                0x0001db2a        0xa C:/SysGCC/m68k-elf/m68k-elf/lib/m68000\liblvgl.a(lv_chart.o)
                0x0001db2a                lv_chart_get_x_start_point

.text.lv_chart_get_point_pos_by_id
                0x0001db34      0x364
 .text.lv_chart_get_point_pos_by_id
                0x0001db34      0x364 C:/SysGCC/m68k-elf/m68k-elf/lib/m68000\liblvgl.a(lv_chart.o)
                0x0001db34                lv_chart_get_point_pos_by_id

.text.lv_chart_event
                0x0001de98     0x1590
 .text.lv_chart_event
                0x0001de98     0x1590 C:/SysGCC/m68k-elf/m68k-elf/lib/m68000\liblvgl.a(lv_chart.o)

.text.lv_chart_refresh
                0x0001f428        0x6
 .text.lv_chart_refresh
                0x0001f428        0x6 C:/SysGCC/m68k-elf/m68k-elf/lib/m68000\liblvgl.a(lv_chart.o)
                0x0001f428                lv_chart_refresh

.text.lv_chart_add_series
                0x0001f42e      0x11e
 .text.lv_chart_add_series
                0x0001f42e      0x11e C:/SysGCC/m68k-elf/m68k-elf/lib/m68000\liblvgl.a(lv_chart.o)
                0x0001f42e                lv_chart_add_series

.text.lv_chart_remove_series
                0x0001f54c       0x56
 .text.lv_chart_remove_series
                0x0001f54c       0x56 C:/SysGCC/m68k-elf/m68k-elf/lib/m68000\liblvgl.a(lv_chart.o)
                0x0001f54c                lv_chart_remove_series

.text.lv_chart_hide_series
                0x0001f5a2       0x1e
 .text.lv_chart_hide_series
                0x0001f5a2       0x1e C:/SysGCC/m68k-elf/m68k-elf/lib/m68000\liblvgl.a(lv_chart.o)
                0x0001f5a2                lv_chart_hide_series

.text.lv_chart_set_series_color
                0x0001f5c0       0x34
 .text.lv_chart_set_series_color
                0x0001f5c0       0x34 C:/SysGCC/m68k-elf/m68k-elf/lib/m68000\liblvgl.a(lv_chart.o)
                0x0001f5c0                lv_chart_set_series_color

.text.lv_chart_get_series_color
                0x0001f5f4       0x22
 .text.lv_chart_get_series_color
                0x0001f5f4       0x22 C:/SysGCC/m68k-elf/m68k-elf/lib/m68000\liblvgl.a(lv_chart.o)
                0x0001f5f4                lv_chart_get_series_color

.text.lv_chart_set_x_start_point
                0x0001f616       0x18
 .text.lv_chart_set_x_start_point
                0x0001f616       0x18 C:/SysGCC/m68k-elf/m68k-elf/lib/m68000\liblvgl.a(lv_chart.o)
                0x0001f616                lv_chart_set_x_start_point

.text.lv_chart_get_series_next
                0x0001f62e       0x2c
 .text.lv_chart_get_series_next
                0x0001f62e       0x2c C:/SysGCC/m68k-elf/m68k-elf/lib/m68000\liblvgl.a(lv_chart.o)
                0x0001f62e                lv_chart_get_series_next

.text.lv_chart_add_cursor
                0x0001f65a       0x64
 .text.lv_chart_add_cursor
                0x0001f65a       0x64 C:/SysGCC/m68k-elf/m68k-elf/lib/m68000\liblvgl.a(lv_chart.o)
                0x0001f65a                lv_chart_add_cursor

.text.lv_chart_remove_cursor
                0x0001f6be       0x24
 .text.lv_chart_remove_cursor
                0x0001f6be       0x24 C:/SysGCC/m68k-elf/m68k-elf/lib/m68000\liblvgl.a(lv_chart.o)
                0x0001f6be                lv_chart_remove_cursor

.text.lv_chart_set_cursor_pos
                0x0001f6e2       0x20
 .text.lv_chart_set_cursor_pos
                0x0001f6e2       0x20 C:/SysGCC/m68k-elf/m68k-elf/lib/m68000\liblvgl.a(lv_chart.o)
                0x0001f6e2                lv_chart_set_cursor_pos

.text.lv_chart_set_cursor_pos_x
                0x0001f702       0x14
 .text.lv_chart_set_cursor_pos_x
                0x0001f702       0x14 C:/SysGCC/m68k-elf/m68k-elf/lib/m68000\liblvgl.a(lv_chart.o)
                0x0001f702                lv_chart_set_cursor_pos_x

.text.lv_chart_set_cursor_pos_y
                0x0001f716       0x16
 .text.lv_chart_set_cursor_pos_y
                0x0001f716       0x16 C:/SysGCC/m68k-elf/m68k-elf/lib/m68000\liblvgl.a(lv_chart.o)
                0x0001f716                lv_chart_set_cursor_pos_y

.text.lv_chart_set_cursor_point
                0x0001f72c       0x3e
 .text.lv_chart_set_cursor_point
                0x0001f72c       0x3e C:/SysGCC/m68k-elf/m68k-elf/lib/m68000\liblvgl.a(lv_chart.o)
                0x0001f72c                lv_chart_set_cursor_point

.text.lv_chart_get_cursor_point
                0x0001f76a        0xc
 .text.lv_chart_get_cursor_point
                0x0001f76a        0xc C:/SysGCC/m68k-elf/m68k-elf/lib/m68000\liblvgl.a(lv_chart.o)
                0x0001f76a                lv_chart_get_cursor_point

.text.lv_chart_set_all_values
                0x0001f776       0x3c
 .text.lv_chart_set_all_values
                0x0001f776       0x3c C:/SysGCC/m68k-elf/m68k-elf/lib/m68000\liblvgl.a(lv_chart.o)
                0x0001f776                lv_chart_set_all_values

.text.lv_chart_set_next_value
                0x0001f7b2       0x4a
 .text.lv_chart_set_next_value
                0x0001f7b2       0x4a C:/SysGCC/m68k-elf/m68k-elf/lib/m68000\liblvgl.a(lv_chart.o)
                0x0001f7b2                lv_chart_set_next_value

.text.lv_chart_set_next_value2
                0x0001f7fc       0x70
 .text.lv_chart_set_next_value2
                0x0001f7fc       0x70 C:/SysGCC/m68k-elf/m68k-elf/lib/m68000\liblvgl.a(lv_chart.o)
                0x0001f7fc                lv_chart_set_next_value2

.text.lv_chart_set_series_values
                0x0001f86c       0x30
 .text.lv_chart_set_series_values
                0x0001f86c       0x30 C:/SysGCC/m68k-elf/m68k-elf/lib/m68000\liblvgl.a(lv_chart.o)
                0x0001f86c                lv_chart_set_series_values

.text.lv_chart_set_series_values2
                0x0001f89c       0x3e
 .text.lv_chart_set_series_values2
                0x0001f89c       0x3e C:/SysGCC/m68k-elf/m68k-elf/lib/m68000\liblvgl.a(lv_chart.o)
                0x0001f89c                lv_chart_set_series_values2

.text.lv_chart_set_series_value_by_id
                0x0001f8da       0x36
 .text.lv_chart_set_series_value_by_id
                0x0001f8da       0x36 C:/SysGCC/m68k-elf/m68k-elf/lib/m68000\liblvgl.a(lv_chart.o)
                0x0001f8da                lv_chart_set_series_value_by_id

.text.lv_chart_set_series_value_by_id2
                0x0001f910       0x54
 .text.lv_chart_set_series_value_by_id2
                0x0001f910       0x54 C:/SysGCC/m68k-elf/m68k-elf/lib/m68000\liblvgl.a(lv_chart.o)
                0x0001f910                lv_chart_set_series_value_by_id2

.text.lv_chart_set_series_ext_y_array
                0x0001f964       0x40
 .text.lv_chart_set_series_ext_y_array
                0x0001f964       0x40 C:/SysGCC/m68k-elf/m68k-elf/lib/m68000\liblvgl.a(lv_chart.o)
                0x0001f964                lv_chart_set_series_ext_y_array

.text.lv_chart_set_series_ext_x_array
                0x0001f9a4       0x3c
 .text.lv_chart_set_series_ext_x_array
                0x0001f9a4       0x3c C:/SysGCC/m68k-elf/m68k-elf/lib/m68000\liblvgl.a(lv_chart.o)
                0x0001f9a4                lv_chart_set_series_ext_x_array

.text.lv_chart_get_series_y_array
                0x0001f9e0        0xa
 .text.lv_chart_get_series_y_array
                0x0001f9e0        0xa C:/SysGCC/m68k-elf/m68k-elf/lib/m68000\liblvgl.a(lv_chart.o)
                0x0001f9e0                lv_chart_get_series_y_array

.text.lv_chart_get_series_x_array
                0x0001f9ea        0x8
 .text.lv_chart_get_series_x_array
                0x0001f9ea        0x8 C:/SysGCC/m68k-elf/m68k-elf/lib/m68000\liblvgl.a(lv_chart.o)
                0x0001f9ea                lv_chart_get_series_x_array

.text.lv_chart_get_pressed_point
                0x0001f9f2        0xa
 .text.lv_chart_get_pressed_point
                0x0001f9f2        0xa C:/SysGCC/m68k-elf/m68k-elf/lib/m68000\liblvgl.a(lv_chart.o)
                0x0001f9f2                lv_chart_get_pressed_point

.text.lv_chart_get_first_point_center_offset
                0x0001f9fc       0x64
 .text.lv_chart_get_first_point_center_offset
                0x0001f9fc       0x64 C:/SysGCC/m68k-elf/m68k-elf/lib/m68000\liblvgl.a(lv_chart.o)
                0x0001f9fc                lv_chart_get_first_point_center_offset

.text.lv_checkbox_constructor
                0x0001fa60       0x4c
 .text.lv_checkbox_constructor
                0x0001fa60       0x4c C:/SysGCC/m68k-elf/m68k-elf/lib/m68000\liblvgl.a(lv_checkbox.o)

.text.lv_checkbox_destructor
                0x0001faac       0x20
 .text.lv_checkbox_destructor
                0x0001faac       0x20 C:/SysGCC/m68k-elf/m68k-elf/lib/m68000\liblvgl.a(lv_checkbox.o)

.text.lv_checkbox_draw
                0x0001facc      0x2fc
 .text.lv_checkbox_draw
                0x0001facc      0x2fc C:/SysGCC/m68k-elf/m68k-elf/lib/m68000\liblvgl.a(lv_checkbox.o)

.text.lv_checkbox_event
                0x0001fdc8      0x1a6
 .text.lv_checkbox_event
                0x0001fdc8      0x1a6 C:/SysGCC/m68k-elf/m68k-elf/lib/m68000\liblvgl.a(lv_checkbox.o)

.text.lv_checkbox_create
                0x0001ff6e       0x28
 .text.lv_checkbox_create
                0x0001ff6e       0x28 C:/SysGCC/m68k-elf/m68k-elf/lib/m68000\liblvgl.a(lv_checkbox.o)
                0x0001ff6e                lv_checkbox_create

.text.lv_checkbox_set_text
                0x0001ff96       0x78
 .text.lv_checkbox_set_text
                0x0001ff96       0x78 C:/SysGCC/m68k-elf/m68k-elf/lib/m68000\liblvgl.a(lv_checkbox.o)
                0x0001ff96                lv_checkbox_set_text

.text.lv_checkbox_set_text_static
                0x0002000e       0x40
 .text.lv_checkbox_set_text_static
                0x0002000e       0x40 C:/SysGCC/m68k-elf/m68k-elf/lib/m68000\liblvgl.a(lv_checkbox.o)
                0x0002000e                lv_checkbox_set_text_static

.text.lv_checkbox_get_text
                0x0002004e        0xa
 .text.lv_checkbox_get_text
                0x0002004e        0xa C:/SysGCC/m68k-elf/m68k-elf/lib/m68000\liblvgl.a(lv_checkbox.o)
                0x0002004e                lv_checkbox_get_text

.text.lv_dropdownlist_destructor
                0x00020058        0xe
 .text.lv_dropdownlist_destructor
                0x00020058        0xe C:/SysGCC/m68k-elf/m68k-elf/lib/m68000\liblvgl.a(lv_dropdown.o)

.text.get_label
                0x00020066       0x28
 .text.get_label
                0x00020066       0x18 C:/SysGCC/m68k-elf/m68k-elf/lib/m68000\liblvgl.a(lv_dropdown.o)
 .text.get_label
                0x0002007e       0x10 C:/SysGCC/m68k-elf/m68k-elf/lib/m68000\liblvgl.a(lv_roller.o)

.text.get_id_on_point
                0x0002008e       0x86
 .text.get_id_on_point
                0x0002008e       0x86 C:/SysGCC/m68k-elf/m68k-elf/lib/m68000\liblvgl.a(lv_dropdown.o)

.text.lv_dropdownlist_constructor
                0x00020114       0x48
 .text.lv_dropdownlist_constructor
                0x00020114       0x48 C:/SysGCC/m68k-elf/m68k-elf/lib/m68000\liblvgl.a(lv_dropdown.o)

.text.dropdown_value_changed_event_cb
                0x0002015c       0x30
 .text.dropdown_value_changed_event_cb
                0x0002015c       0x30 C:/SysGCC/m68k-elf/m68k-elf/lib/m68000\liblvgl.a(lv_dropdown.o)

.text.lv_dropdown_destructor
                0x0002018c       0x36
 .text.lv_dropdown_destructor
                0x0002018c       0x36 C:/SysGCC/m68k-elf/m68k-elf/lib/m68000\liblvgl.a(lv_dropdown.o)

.text.draw_box_label
                0x000201c2      0x160
 .text.draw_box_label
                0x000201c2      0x160 C:/SysGCC/m68k-elf/m68k-elf/lib/m68000\liblvgl.a(lv_dropdown.o)

.text.draw_box  0x00020322      0x106
 .text.draw_box
                0x00020322      0x106 C:/SysGCC/m68k-elf/m68k-elf/lib/m68000\liblvgl.a(lv_dropdown.o)

.text.position_to_selected
                0x00020428       0xa8
 .text.position_to_selected
                0x00020428       0xa8 C:/SysGCC/m68k-elf/m68k-elf/lib/m68000\liblvgl.a(lv_dropdown.o)

.text.lv_dropdown_create
                0x000204d0       0x28
 .text.lv_dropdown_create
                0x000204d0       0x28 C:/SysGCC/m68k-elf/m68k-elf/lib/m68000\liblvgl.a(lv_dropdown.o)
                0x000204d0                lv_dropdown_create

.text.lv_dropdown_set_text
                0x000204f8       0x1a
 .text.lv_dropdown_set_text
                0x000204f8       0x1a C:/SysGCC/m68k-elf/m68k-elf/lib/m68000\liblvgl.a(lv_dropdown.o)
                0x000204f8                lv_dropdown_set_text

.text.lv_dropdown_set_options
                0x00020512       0x9e
 .text.lv_dropdown_set_options
                0x00020512       0x9e C:/SysGCC/m68k-elf/m68k-elf/lib/m68000\liblvgl.a(lv_dropdown.o)
                0x00020512                lv_dropdown_set_options

.text.lv_dropdown_set_options_static
                0x000205b0       0x74
 .text.lv_dropdown_set_options_static
                0x000205b0       0x74 C:/SysGCC/m68k-elf/m68k-elf/lib/m68000\liblvgl.a(lv_dropdown.o)
                0x000205b0                lv_dropdown_set_options_static

.text.lv_dropdown_constructor
                0x00020624       0x90
 .text.lv_dropdown_constructor
                0x00020624       0x90 C:/SysGCC/m68k-elf/m68k-elf/lib/m68000\liblvgl.a(lv_dropdown.o)

.text.lv_dropdown_add_option
                0x000206b4      0x15e
 .text.lv_dropdown_add_option
                0x000206b4      0x15e C:/SysGCC/m68k-elf/m68k-elf/lib/m68000\liblvgl.a(lv_dropdown.o)
                0x000206b4                lv_dropdown_add_option

.text.lv_dropdown_clear_options
                0x00020812       0x4c
 .text.lv_dropdown_clear_options
                0x00020812       0x4c C:/SysGCC/m68k-elf/m68k-elf/lib/m68000\liblvgl.a(lv_dropdown.o)
                0x00020812                lv_dropdown_clear_options

.text.lv_dropdown_set_selected
                0x0002085e       0x46
 .text.lv_dropdown_set_selected
                0x0002085e       0x46 C:/SysGCC/m68k-elf/m68k-elf/lib/m68000\liblvgl.a(lv_dropdown.o)
                0x0002085e                lv_dropdown_set_selected

.text.dropdown_value_observer_cb
                0x000208a4       0x1a
 .text.dropdown_value_observer_cb
                0x000208a4       0x1a C:/SysGCC/m68k-elf/m68k-elf/lib/m68000\liblvgl.a(lv_dropdown.o)

.text.lv_dropdown_set_dir
                0x000208be       0x34
 .text.lv_dropdown_set_dir
                0x000208be       0x34 C:/SysGCC/m68k-elf/m68k-elf/lib/m68000\liblvgl.a(lv_dropdown.o)
                0x000208be                lv_dropdown_set_dir

.text.lv_dropdown_set_symbol
                0x000208f2       0x10
 .text.lv_dropdown_set_symbol
                0x000208f2       0x10 C:/SysGCC/m68k-elf/m68k-elf/lib/m68000\liblvgl.a(lv_dropdown.o)
                0x000208f2                lv_dropdown_set_symbol

.text.lv_dropdown_set_selected_highlight
                0x00020902       0x30
 .text.lv_dropdown_set_selected_highlight
                0x00020902       0x30 C:/SysGCC/m68k-elf/m68k-elf/lib/m68000\liblvgl.a(lv_dropdown.o)
                0x00020902                lv_dropdown_set_selected_highlight

.text.lv_dropdown_get_list
                0x00020932        0xa
 .text.lv_dropdown_get_list
                0x00020932        0xa C:/SysGCC/m68k-elf/m68k-elf/lib/m68000\liblvgl.a(lv_dropdown.o)
                0x00020932                lv_dropdown_get_list

.text.lv_dropdown_get_text
                0x0002093c        0xa
 .text.lv_dropdown_get_text
                0x0002093c        0xa C:/SysGCC/m68k-elf/m68k-elf/lib/m68000\liblvgl.a(lv_dropdown.o)
                0x0002093c                lv_dropdown_get_text

.text.lv_dropdown_get_options
                0x00020946       0x12
 .text.lv_dropdown_get_options
                0x00020946       0x12 C:/SysGCC/m68k-elf/m68k-elf/lib/m68000\liblvgl.a(lv_dropdown.o)
                0x00020946                lv_dropdown_get_options

.text.lv_dropdown_get_selected
                0x00020958        0xa
 .text.lv_dropdown_get_selected
                0x00020958        0xa C:/SysGCC/m68k-elf/m68k-elf/lib/m68000\liblvgl.a(lv_dropdown.o)
                0x00020958                lv_dropdown_get_selected

.text.lv_dropdown_get_option_count
                0x00020962        0xa
 .text.lv_dropdown_get_option_count
                0x00020962        0xa C:/SysGCC/m68k-elf/m68k-elf/lib/m68000\liblvgl.a(lv_dropdown.o)
                0x00020962                lv_dropdown_get_option_count

.text.lv_dropdown_get_selected_str
                0x0002096c       0x7e
 .text.lv_dropdown_get_selected_str
                0x0002096c       0x7e C:/SysGCC/m68k-elf/m68k-elf/lib/m68000\liblvgl.a(lv_dropdown.o)
                0x0002096c                lv_dropdown_get_selected_str

.text.lv_dropdown_get_option_index
                0x000209ea       0x7a
 .text.lv_dropdown_get_option_index
                0x000209ea       0x7a C:/SysGCC/m68k-elf/m68k-elf/lib/m68000\liblvgl.a(lv_dropdown.o)
                0x000209ea                lv_dropdown_get_option_index

.text.lv_dropdown_get_symbol
                0x00020a64        0xa
 .text.lv_dropdown_get_symbol
                0x00020a64        0xa C:/SysGCC/m68k-elf/m68k-elf/lib/m68000\liblvgl.a(lv_dropdown.o)
                0x00020a64                lv_dropdown_get_symbol

.text.lv_dropdown_get_selected_highlight
                0x00020a6e       0x10
 .text.lv_dropdown_get_selected_highlight
                0x00020a6e       0x10 C:/SysGCC/m68k-elf/m68k-elf/lib/m68000\liblvgl.a(lv_dropdown.o)
                0x00020a6e                lv_dropdown_get_selected_highlight

.text.lv_dropdown_get_dir
                0x00020a7e       0x10
 .text.lv_dropdown_get_dir
                0x00020a7e       0x10 C:/SysGCC/m68k-elf/m68k-elf/lib/m68000\liblvgl.a(lv_dropdown.o)
                0x00020a7e                lv_dropdown_get_dir

.text.lv_dropdown_open
                0x00020a8e      0x2fe
 .text.lv_dropdown_open
                0x00020a8e      0x2fe C:/SysGCC/m68k-elf/m68k-elf/lib/m68000\liblvgl.a(lv_dropdown.o)
                0x00020a8e                lv_dropdown_open

.text.lv_dropdown_close
                0x00020d8c       0x3e
 .text.lv_dropdown_close
                0x00020d8c       0x3e C:/SysGCC/m68k-elf/m68k-elf/lib/m68000\liblvgl.a(lv_dropdown.o)
                0x00020d8c                lv_dropdown_close

.text.lv_dropdown_list_event
                0x00020dca      0x2c4
 .text.lv_dropdown_list_event
                0x00020dca      0x2c4 C:/SysGCC/m68k-elf/m68k-elf/lib/m68000\liblvgl.a(lv_dropdown.o)

.text.lv_dropdown_is_open
                0x0002108e       0x1a
 .text.lv_dropdown_is_open
                0x0002108e       0x1a C:/SysGCC/m68k-elf/m68k-elf/lib/m68000\liblvgl.a(lv_dropdown.o)
                0x0002108e                lv_dropdown_is_open

.text.btn_release_handler
                0x000210a8       0xbc
 .text.btn_release_handler
                0x000210a8       0xbc C:/SysGCC/m68k-elf/m68k-elf/lib/m68000\liblvgl.a(lv_dropdown.o)

.text.lv_dropdown_event
                0x00021164      0x20e
 .text.lv_dropdown_event
                0x00021164      0x20e C:/SysGCC/m68k-elf/m68k-elf/lib/m68000\liblvgl.a(lv_dropdown.o)

.text.lv_dropdown_bind_value
                0x00021372       0x4e
 .text.lv_dropdown_bind_value
                0x00021372       0x4e C:/SysGCC/m68k-elf/m68k-elf/lib/m68000\liblvgl.a(lv_dropdown.o)
                0x00021372                lv_dropdown_bind_value

.text.lv_keyboard_update_ctrl_map
                0x000213c0       0x96
 .text.lv_keyboard_update_ctrl_map
                0x000213c0       0x96 C:/SysGCC/m68k-elf/m68k-elf/lib/m68000\liblvgl.a(lv_keyboard.o)

.text.lv_keyboard_update_map
                0x00021456       0x2e
 .text.lv_keyboard_update_map
                0x00021456       0x2e C:/SysGCC/m68k-elf/m68k-elf/lib/m68000\liblvgl.a(lv_keyboard.o)

.text.lv_keyboard_constructor
                0x00021484       0x64
 .text.lv_keyboard_constructor
                0x00021484       0x64 C:/SysGCC/m68k-elf/m68k-elf/lib/m68000\liblvgl.a(lv_keyboard.o)

.text.lv_keyboard_def_event_cb
                0x000214e8      0x2ca
 .text.lv_keyboard_def_event_cb
                0x000214e8      0x2ca C:/SysGCC/m68k-elf/m68k-elf/lib/m68000\liblvgl.a(lv_keyboard.o)
                0x000214e8                lv_keyboard_def_event_cb

.text.lv_keyboard_create
                0x000217b2       0x28
 .text.lv_keyboard_create
                0x000217b2       0x28 C:/SysGCC/m68k-elf/m68k-elf/lib/m68000\liblvgl.a(lv_keyboard.o)
                0x000217b2                lv_keyboard_create

.text.lv_keyboard_set_textarea
                0x000217da       0x40
 .text.lv_keyboard_set_textarea
                0x000217da       0x40 C:/SysGCC/m68k-elf/m68k-elf/lib/m68000\liblvgl.a(lv_keyboard.o)
                0x000217da                lv_keyboard_set_textarea

.text.lv_keyboard_set_mode
                0x0002181a       0x1a
 .text.lv_keyboard_set_mode
                0x0002181a       0x1a C:/SysGCC/m68k-elf/m68k-elf/lib/m68000\liblvgl.a(lv_keyboard.o)
                0x0002181a                lv_keyboard_set_mode

.text.lv_keyboard_set_popovers
                0x00021834       0x2e
 .text.lv_keyboard_set_popovers
                0x00021834       0x2e C:/SysGCC/m68k-elf/m68k-elf/lib/m68000\liblvgl.a(lv_keyboard.o)
                0x00021834                lv_keyboard_set_popovers

.text.lv_keyboard_set_map
                0x00021862       0x26
 .text.lv_keyboard_set_map
                0x00021862       0x26 C:/SysGCC/m68k-elf/m68k-elf/lib/m68000\liblvgl.a(lv_keyboard.o)
                0x00021862                lv_keyboard_set_map

.text.lv_keyboard_get_textarea
                0x00021888        0xa
 .text.lv_keyboard_get_textarea
                0x00021888        0xa C:/SysGCC/m68k-elf/m68k-elf/lib/m68000\liblvgl.a(lv_keyboard.o)
                0x00021888                lv_keyboard_get_textarea

.text.lv_keyboard_get_mode
                0x00021892        0xa
 .text.lv_keyboard_get_mode
                0x00021892        0xa C:/SysGCC/m68k-elf/m68k-elf/lib/m68000\liblvgl.a(lv_keyboard.o)
                0x00021892                lv_keyboard_get_mode

.text.lv_keyboard_get_popovers
                0x0002189c        0xc
 .text.lv_keyboard_get_popovers
                0x0002189c        0xc C:/SysGCC/m68k-elf/m68k-elf/lib/m68000\liblvgl.a(lv_keyboard.o)
                0x0002189c                lv_keyboard_get_popovers

.text.lv_keyboard_get_map_array
                0x000218a8        0x6
 .text.lv_keyboard_get_map_array
                0x000218a8        0x6 C:/SysGCC/m68k-elf/m68k-elf/lib/m68000\liblvgl.a(lv_keyboard.o)
                0x000218a8                lv_keyboard_get_map_array

.text.lv_keyboard_get_selected_button
                0x000218ae        0x6
 .text.lv_keyboard_get_selected_button
                0x000218ae        0x6 C:/SysGCC/m68k-elf/m68k-elf/lib/m68000\liblvgl.a(lv_keyboard.o)
                0x000218ae                lv_keyboard_get_selected_button

.text.lv_keyboard_get_button_text
                0x000218b4        0x6
 .text.lv_keyboard_get_button_text
                0x000218b4        0x6 C:/SysGCC/m68k-elf/m68k-elf/lib/m68000\liblvgl.a(lv_keyboard.o)
                0x000218b4                lv_keyboard_get_button_text

.text.lv_label_revert_dots
                0x000218ba       0x40
 .text.lv_label_revert_dots
                0x000218ba       0x40 C:/SysGCC/m68k-elf/m68k-elf/lib/m68000\liblvgl.a(lv_label.o)

.text.set_ofs_y_anim
                0x000218fa       0x10
 .text.set_ofs_y_anim
                0x000218fa       0x10 C:/SysGCC/m68k-elf/m68k-elf/lib/m68000\liblvgl.a(lv_label.o)

.text.set_ofs_x_anim
                0x0002190a       0x10
 .text.set_ofs_x_anim
                0x0002190a       0x10 C:/SysGCC/m68k-elf/m68k-elf/lib/m68000\liblvgl.a(lv_label.o)

.text.lv_label_set_dots
                0x0002191a       0x6c
 .text.lv_label_set_dots
                0x0002191a       0x6c C:/SysGCC/m68k-elf/m68k-elf/lib/m68000\liblvgl.a(lv_label.o)

.text.lv_label_destructor
                0x00021986       0x3e
 .text.lv_label_destructor
                0x00021986       0x3e C:/SysGCC/m68k-elf/m68k-elf/lib/m68000\liblvgl.a(lv_label.o)

.text.overwrite_anim_property
                0x000219c4       0x62
 .text.overwrite_anim_property
                0x000219c4       0x62 C:/SysGCC/m68k-elf/m68k-elf/lib/m68000\liblvgl.a(lv_label.o)

.text.lv_label_mark_need_refr_text
                0x00021a26       0x54
 .text.lv_label_mark_need_refr_text
                0x00021a26       0x54 C:/SysGCC/m68k-elf/m68k-elf/lib/m68000\liblvgl.a(lv_label.o)

.text.set_text_internal
                0x00021a7a       0x9c
 .text.set_text_internal
                0x00021a7a       0x9c C:/SysGCC/m68k-elf/m68k-elf/lib/m68000\liblvgl.a(lv_label.o)

.text.calculate_x_coordinate
                0x00021b16       0x88
 .text.calculate_x_coordinate
                0x00021b16       0x88 C:/SysGCC/m68k-elf/m68k-elf/lib/m68000\liblvgl.a(lv_label.o)

.text.lv_obj_get_style_text_line_space.constprop.21
                0x00021b9e       0x20
 .text.lv_obj_get_style_text_line_space.constprop.21
                0x00021b9e       0x20 C:/SysGCC/m68k-elf/m68k-elf/lib/m68000\liblvgl.a(lv_label.o)

.text.lv_obj_get_style_text_letter_space.constprop.22
                0x00021bbe       0x20
 .text.lv_obj_get_style_text_letter_space.constprop.22
                0x00021bbe       0x20 C:/SysGCC/m68k-elf/m68k-elf/lib/m68000\liblvgl.a(lv_label.o)

.text.lv_obj_get_style_text_font.constprop.23
                0x00021bde       0x20
 .text.lv_obj_get_style_text_font.constprop.23
                0x00021bde       0x20 C:/SysGCC/m68k-elf/m68k-elf/lib/m68000\liblvgl.a(lv_label.o)

.text.get_label_flags
                0x00021bfe       0x76
 .text.get_label_flags
                0x00021bfe       0x76 C:/SysGCC/m68k-elf/m68k-elf/lib/m68000\liblvgl.a(lv_label.o)

.text.lv_label_event
                0x00021c74      0x572
 .text.lv_label_event
                0x00021c74      0x572 C:/SysGCC/m68k-elf/m68k-elf/lib/m68000\liblvgl.a(lv_label.o)

.text.lv_label_create
                0x000221e6       0x28
 .text.lv_label_create
                0x000221e6       0x28 C:/SysGCC/m68k-elf/m68k-elf/lib/m68000\liblvgl.a(lv_label.o)
                0x000221e6                lv_label_create

.text.lv_label_set_text
                0x0002220e        0x6
 .text.lv_label_set_text
                0x0002220e        0x6 C:/SysGCC/m68k-elf/m68k-elf/lib/m68000\liblvgl.a(lv_label.o)
                0x0002220e                lv_label_set_text

.text.lv_label_set_text_vfmt
                0x00022214       0x5e
 .text.lv_label_set_text_vfmt
                0x00022214       0x5e C:/SysGCC/m68k-elf/m68k-elf/lib/m68000\liblvgl.a(lv_label.o)
                0x00022214                lv_label_set_text_vfmt

.text.lv_label_set_text_fmt
                0x00022272       0x1e
 .text.lv_label_set_text_fmt
                0x00022272       0x1e C:/SysGCC/m68k-elf/m68k-elf/lib/m68000\liblvgl.a(lv_label.o)
                0x00022272                lv_label_set_text_fmt

.text.label_text_observer_cb
                0x00022290       0x5e
 .text.label_text_observer_cb
                0x00022290       0x5e C:/SysGCC/m68k-elf/m68k-elf/lib/m68000\liblvgl.a(lv_label.o)

.text.lv_label_set_text_static
                0x000222ee       0x44
 .text.lv_label_set_text_static
                0x000222ee       0x44 C:/SysGCC/m68k-elf/m68k-elf/lib/m68000\liblvgl.a(lv_label.o)
                0x000222ee                lv_label_set_text_static

.text.lv_label_set_long_mode
                0x00022332       0x72
 .text.lv_label_set_long_mode
                0x00022332       0x72 C:/SysGCC/m68k-elf/m68k-elf/lib/m68000\liblvgl.a(lv_label.o)
                0x00022332                lv_label_set_long_mode

.text.lv_label_constructor
                0x000223a4       0x76
 .text.lv_label_constructor
                0x000223a4       0x76 C:/SysGCC/m68k-elf/m68k-elf/lib/m68000\liblvgl.a(lv_label.o)

.text.lv_label_set_text_selection_start
                0x0002241a       0x10
 .text.lv_label_set_text_selection_start
                0x0002241a       0x10 C:/SysGCC/m68k-elf/m68k-elf/lib/m68000\liblvgl.a(lv_label.o)
                0x0002241a                lv_label_set_text_selection_start

.text.lv_label_set_text_selection_end
                0x0002242a       0x10
 .text.lv_label_set_text_selection_end
                0x0002242a       0x10 C:/SysGCC/m68k-elf/m68k-elf/lib/m68000\liblvgl.a(lv_label.o)
                0x0002242a                lv_label_set_text_selection_end

.text.lv_label_set_recolor
                0x0002243a       0x38
 .text.lv_label_set_recolor
                0x0002243a       0x38 C:/SysGCC/m68k-elf/m68k-elf/lib/m68000\liblvgl.a(lv_label.o)
                0x0002243a                lv_label_set_recolor

.text.lv_label_get_text
                0x00022472        0xa
 .text.lv_label_get_text
                0x00022472        0xa C:/SysGCC/m68k-elf/m68k-elf/lib/m68000\liblvgl.a(lv_label.o)
                0x00022472                lv_label_get_text

.text.lv_label_get_long_mode
                0x0002247c       0x10
 .text.lv_label_get_long_mode
                0x0002247c       0x10 C:/SysGCC/m68k-elf/m68k-elf/lib/m68000\liblvgl.a(lv_label.o)
                0x0002247c                lv_label_get_long_mode

.text.lv_label_get_letter_pos
                0x0002248c      0x1da
 .text.lv_label_get_letter_pos
                0x0002248c      0x1da C:/SysGCC/m68k-elf/m68k-elf/lib/m68000\liblvgl.a(lv_label.o)
                0x0002248c                lv_label_get_letter_pos

.text.lv_label_get_letter_on
                0x00022666      0x25a
 .text.lv_label_get_letter_on
                0x00022666      0x25a C:/SysGCC/m68k-elf/m68k-elf/lib/m68000\liblvgl.a(lv_label.o)
                0x00022666                lv_label_get_letter_on

.text.update_layout_completed_cb
                0x000228c0      0x67e
 .text.update_layout_completed_cb
                0x000228c0      0x67e C:/SysGCC/m68k-elf/m68k-elf/lib/m68000\liblvgl.a(lv_label.o)

.text.lv_label_is_char_under_pos
                0x00022f3e      0x256
 .text.lv_label_is_char_under_pos
                0x00022f3e      0x256 C:/SysGCC/m68k-elf/m68k-elf/lib/m68000\liblvgl.a(lv_label.o)
                0x00022f3e                lv_label_is_char_under_pos

.text.lv_label_get_text_selection_start
                0x00023194        0xa
 .text.lv_label_get_text_selection_start
                0x00023194        0xa C:/SysGCC/m68k-elf/m68k-elf/lib/m68000\liblvgl.a(lv_label.o)
                0x00023194                lv_label_get_text_selection_start

.text.lv_label_get_text_selection_end
                0x0002319e        0xa
 .text.lv_label_get_text_selection_end
                0x0002319e        0xa C:/SysGCC/m68k-elf/m68k-elf/lib/m68000\liblvgl.a(lv_label.o)
                0x0002319e                lv_label_get_text_selection_end

.text.lv_label_get_recolor
                0x000231a8       0x10
 .text.lv_label_get_recolor
                0x000231a8       0x10 C:/SysGCC/m68k-elf/m68k-elf/lib/m68000\liblvgl.a(lv_label.o)
                0x000231a8                lv_label_get_recolor

.text.lv_label_bind_text
                0x000231b8       0x6e
 .text.lv_label_bind_text
                0x000231b8       0x6e C:/SysGCC/m68k-elf/m68k-elf/lib/m68000\liblvgl.a(lv_label.o)
                0x000231b8                lv_label_bind_text

.text.lv_label_ins_text
                0x00023226       0x82
 .text.lv_label_ins_text
                0x00023226       0x82 C:/SysGCC/m68k-elf/m68k-elf/lib/m68000\liblvgl.a(lv_label.o)
                0x00023226                lv_label_ins_text

.text.lv_label_cut_text
                0x000232a8       0x38
 .text.lv_label_cut_text
                0x000232a8       0x38 C:/SysGCC/m68k-elf/m68k-elf/lib/m68000\liblvgl.a(lv_label.o)
                0x000232a8                lv_label_cut_text

.text.lv_led_event
                0x000232e0      0x510
 .text.lv_led_event
                0x000232e0      0x510 C:/SysGCC/m68k-elf/m68k-elf/lib/m68000\liblvgl.a(lv_led.o)

.text.lv_led_constructor
                0x000237f0       0x38
 .text.lv_led_constructor
                0x000237f0       0x38 C:/SysGCC/m68k-elf/m68k-elf/lib/m68000\liblvgl.a(lv_led.o)

.text.lv_led_create
                0x00023828       0x28
 .text.lv_led_create
                0x00023828       0x28 C:/SysGCC/m68k-elf/m68k-elf/lib/m68000\liblvgl.a(lv_led.o)
                0x00023828                lv_led_create

.text.lv_led_set_color
                0x00023850       0x30
 .text.lv_led_set_color
                0x00023850       0x30 C:/SysGCC/m68k-elf/m68k-elf/lib/m68000\liblvgl.a(lv_led.o)
                0x00023850                lv_led_set_color

.text.lv_led_set_brightness
                0x00023880       0x2c
 .text.lv_led_set_brightness
                0x00023880       0x2c C:/SysGCC/m68k-elf/m68k-elf/lib/m68000\liblvgl.a(lv_led.o)
                0x00023880                lv_led_set_brightness

.text.lv_led_on
                0x000238ac       0x12
 .text.lv_led_on
                0x000238ac       0x12 C:/SysGCC/m68k-elf/m68k-elf/lib/m68000\liblvgl.a(lv_led.o)
                0x000238ac                lv_led_on

.text.lv_led_off
                0x000238be       0x12
 .text.lv_led_off
                0x000238be       0x12 C:/SysGCC/m68k-elf/m68k-elf/lib/m68000\liblvgl.a(lv_led.o)
                0x000238be                lv_led_off

.text.lv_led_toggle
                0x000238d0       0x1c
 .text.lv_led_toggle
                0x000238d0       0x1c C:/SysGCC/m68k-elf/m68k-elf/lib/m68000\liblvgl.a(lv_led.o)
                0x000238d0                lv_led_toggle

.text.lv_led_get_brightness
                0x000238ec        0xa
 .text.lv_led_get_brightness
                0x000238ec        0xa C:/SysGCC/m68k-elf/m68k-elf/lib/m68000\liblvgl.a(lv_led.o)
                0x000238ec                lv_led_get_brightness

.text.lv_led_get_color
                0x000238f6       0x22
 .text.lv_led_get_color
                0x000238f6       0x22 C:/SysGCC/m68k-elf/m68k-elf/lib/m68000\liblvgl.a(lv_led.o)
                0x000238f6                lv_led_get_color

.text.lv_list_create
                0x00023918       0x32
 .text.lv_list_create
                0x00023918       0x32 C:/SysGCC/m68k-elf/m68k-elf/lib/m68000\liblvgl.a(lv_list.o)
                0x00023918                lv_list_create

.text.lv_list_add_text
                0x0002394a       0x32
 .text.lv_list_add_text
                0x0002394a       0x32 C:/SysGCC/m68k-elf/m68k-elf/lib/m68000\liblvgl.a(lv_list.o)
                0x0002394a                lv_list_add_text

.text.lv_list_add_button
                0x0002397c       0x8a
 .text.lv_list_add_button
                0x0002397c       0x8a C:/SysGCC/m68k-elf/m68k-elf/lib/m68000\liblvgl.a(lv_list.o)
                0x0002397c                lv_list_add_button

.text.lv_list_get_button_text
                0x00023a06       0x5e
 .text.lv_list_get_button_text
                0x00023a06       0x5e C:/SysGCC/m68k-elf/m68k-elf/lib/m68000\liblvgl.a(lv_list.o)
                0x00023a06                lv_list_get_button_text

.text.lv_list_set_button_text
                0x00023a64       0x60
 .text.lv_list_set_button_text
                0x00023a64       0x60 C:/SysGCC/m68k-elf/m68k-elf/lib/m68000\liblvgl.a(lv_list.o)
                0x00023a64                lv_list_set_button_text

.text.msgbox_size_changed_event_cb
                0x00023ac4       0x4a
 .text.msgbox_size_changed_event_cb
                0x00023ac4       0x4a C:/SysGCC/m68k-elf/m68k-elf/lib/m68000\liblvgl.a(lv_msgbox.o)

.text.lv_msgbox_create
                0x00023b0e      0x100
 .text.lv_msgbox_create
                0x00023b0e      0x100 C:/SysGCC/m68k-elf/m68k-elf/lib/m68000\liblvgl.a(lv_msgbox.o)
                0x00023b0e                lv_msgbox_create

.text.lv_msgbox_add_title
                0x00023c0e       0xea
 .text.lv_msgbox_add_title
                0x00023c0e       0xea C:/SysGCC/m68k-elf/m68k-elf/lib/m68000\liblvgl.a(lv_msgbox.o)
                0x00023c0e                lv_msgbox_add_title

.text.lv_msgbox_add_header_button
                0x00023cf8       0x8a
 .text.lv_msgbox_add_header_button
                0x00023cf8       0x8a C:/SysGCC/m68k-elf/m68k-elf/lib/m68000\liblvgl.a(lv_msgbox.o)
                0x00023cf8                lv_msgbox_add_header_button

.text.lv_msgbox_add_text
                0x00023d82       0x3c
 .text.lv_msgbox_add_text
                0x00023d82       0x3c C:/SysGCC/m68k-elf/m68k-elf/lib/m68000\liblvgl.a(lv_msgbox.o)
                0x00023d82                lv_msgbox_add_text

.text.lv_msgbox_add_footer_button
                0x00023dbe       0xcc
 .text.lv_msgbox_add_footer_button
                0x00023dbe       0xcc C:/SysGCC/m68k-elf/m68k-elf/lib/m68000\liblvgl.a(lv_msgbox.o)
                0x00023dbe                lv_msgbox_add_footer_button

.text.lv_msgbox_add_close_button
                0x00023e8a       0x32
 .text.lv_msgbox_add_close_button
                0x00023e8a       0x32 C:/SysGCC/m68k-elf/m68k-elf/lib/m68000\liblvgl.a(lv_msgbox.o)
                0x00023e8a                lv_msgbox_add_close_button

.text.lv_msgbox_get_header
                0x00023ebc        0xa
 .text.lv_msgbox_get_header
                0x00023ebc        0xa C:/SysGCC/m68k-elf/m68k-elf/lib/m68000\liblvgl.a(lv_msgbox.o)
                0x00023ebc                lv_msgbox_get_header

.text.lv_msgbox_get_footer
                0x00023ec6        0xa
 .text.lv_msgbox_get_footer
                0x00023ec6        0xa C:/SysGCC/m68k-elf/m68k-elf/lib/m68000\liblvgl.a(lv_msgbox.o)
                0x00023ec6                lv_msgbox_get_footer

.text.lv_msgbox_get_content
                0x00023ed0        0xa
 .text.lv_msgbox_get_content
                0x00023ed0        0xa C:/SysGCC/m68k-elf/m68k-elf/lib/m68000\liblvgl.a(lv_msgbox.o)
                0x00023ed0                lv_msgbox_get_content

.text.lv_msgbox_get_title
                0x00023eda        0xa
 .text.lv_msgbox_get_title
                0x00023eda        0xa C:/SysGCC/m68k-elf/m68k-elf/lib/m68000\liblvgl.a(lv_msgbox.o)
                0x00023eda                lv_msgbox_get_title

.text.lv_msgbox_close
                0x00023ee4       0x36
 .text.lv_msgbox_close
                0x00023ee4       0x36 C:/SysGCC/m68k-elf/m68k-elf/lib/m68000\liblvgl.a(lv_msgbox.o)
                0x00023ee4                lv_msgbox_close

.text.msgbox_close_click_event_cb
                0x00023f1a       0x2a
 .text.msgbox_close_click_event_cb
                0x00023f1a       0x2a C:/SysGCC/m68k-elf/m68k-elf/lib/m68000\liblvgl.a(lv_msgbox.o)

.text.lv_msgbox_close_async
                0x00023f44       0x36
 .text.lv_msgbox_close_async
                0x00023f44       0x36 C:/SysGCC/m68k-elf/m68k-elf/lib/m68000\liblvgl.a(lv_msgbox.o)
                0x00023f44                lv_msgbox_close_async

.text.set_y_anim
                0x00023f7a        0xc
 .text.set_y_anim
                0x00023f7a        0x6 C:/SysGCC/m68k-elf/m68k-elf/lib/m68000\liblvgl.a(lv_roller.o)
 .text.set_y_anim
                0x00023f80        0x6 C:/SysGCC/m68k-elf/m68k-elf/lib/m68000\liblvgl.a(lv_display.o)

.text.lv_obj_get_style_text_font
                0x00023f86       0x22
 .text.lv_obj_get_style_text_font
                0x00023f86       0x22 C:/SysGCC/m68k-elf/m68k-elf/lib/m68000\liblvgl.a(lv_roller.o)

.text.get_selected_label_width
                0x00023fa8       0x96
 .text.get_selected_label_width
                0x00023fa8       0x96 C:/SysGCC/m68k-elf/m68k-elf/lib/m68000\liblvgl.a(lv_roller.o)

.text.transform_vect_recursive
                0x0002403e       0xee
 .text.transform_vect_recursive
                0x0002403e       0xee C:/SysGCC/m68k-elf/m68k-elf/lib/m68000\liblvgl.a(lv_roller.o)

.text.lv_obj_get_style_text_line_space.constprop.12
                0x0002412c       0x20
 .text.lv_obj_get_style_text_line_space.constprop.12
                0x0002412c       0x20 C:/SysGCC/m68k-elf/m68k-elf/lib/m68000\liblvgl.a(lv_roller.o)

.text.get_sel_area
                0x0002414c       0xa2
 .text.get_sel_area
                0x0002414c       0xa2 C:/SysGCC/m68k-elf/m68k-elf/lib/m68000\liblvgl.a(lv_roller.o)

.text.inf_normalize
                0x000241ee       0xca
 .text.inf_normalize
                0x000241ee       0xca C:/SysGCC/m68k-elf/m68k-elf/lib/m68000\liblvgl.a(lv_roller.o)

.text.refr_position
                0x000242b8      0x1a0
 .text.refr_position
                0x000242b8      0x1a0 C:/SysGCC/m68k-elf/m68k-elf/lib/m68000\liblvgl.a(lv_roller.o)

.text.lv_roller_label_event
                0x00024458      0x232
 .text.lv_roller_label_event
                0x00024458      0x232 C:/SysGCC/m68k-elf/m68k-elf/lib/m68000\liblvgl.a(lv_roller.o)

.text.scroll_anim_completed_cb
                0x0002468a       0x18
 .text.scroll_anim_completed_cb
                0x0002468a       0x18 C:/SysGCC/m68k-elf/m68k-elf/lib/m68000\liblvgl.a(lv_roller.o)

.text.lv_roller_create
                0x000246a2       0x28
 .text.lv_roller_create
                0x000246a2       0x28 C:/SysGCC/m68k-elf/m68k-elf/lib/m68000\liblvgl.a(lv_roller.o)
                0x000246a2                lv_roller_create

.text.lv_roller_set_options
                0x000246ca      0x184
 .text.lv_roller_set_options
                0x000246ca      0x184 C:/SysGCC/m68k-elf/m68k-elf/lib/m68000\liblvgl.a(lv_roller.o)
                0x000246ca                lv_roller_set_options

.text.lv_roller_constructor
                0x0002484e       0x60
 .text.lv_roller_constructor
                0x0002484e       0x60 C:/SysGCC/m68k-elf/m68k-elf/lib/m68000\liblvgl.a(lv_roller.o)

.text.lv_roller_set_selected
                0x000248ae       0x9e
 .text.lv_roller_set_selected
                0x000248ae       0x9e C:/SysGCC/m68k-elf/m68k-elf/lib/m68000\liblvgl.a(lv_roller.o)
                0x000248ae                lv_roller_set_selected

.text.lv_roller_event
                0x0002494c      0x4b2
 .text.lv_roller_event
                0x0002494c      0x4b2 C:/SysGCC/m68k-elf/m68k-elf/lib/m68000\liblvgl.a(lv_roller.o)

.text.lv_roller_set_visible_row_count
                0x00024dfe       0x6c
 .text.lv_roller_set_visible_row_count
                0x00024dfe       0x6c C:/SysGCC/m68k-elf/m68k-elf/lib/m68000\liblvgl.a(lv_roller.o)
                0x00024dfe                lv_roller_set_visible_row_count

.text.lv_roller_get_selected
                0x00024e6a       0x3c
 .text.lv_roller_get_selected
                0x00024e6a       0x3c C:/SysGCC/m68k-elf/m68k-elf/lib/m68000\liblvgl.a(lv_roller.o)
                0x00024e6a                lv_roller_get_selected

.text.roller_value_observer_cb
                0x00024ea6       0x4a
 .text.roller_value_observer_cb
                0x00024ea6       0x4a C:/SysGCC/m68k-elf/m68k-elf/lib/m68000\liblvgl.a(lv_roller.o)

.text.roller_value_changed_event_cb
                0x00024ef0       0x38
 .text.roller_value_changed_event_cb
                0x00024ef0       0x38 C:/SysGCC/m68k-elf/m68k-elf/lib/m68000\liblvgl.a(lv_roller.o)

.text.lv_roller_get_options
                0x00024f28       0x16
 .text.lv_roller_get_options
                0x00024f28       0x16 C:/SysGCC/m68k-elf/m68k-elf/lib/m68000\liblvgl.a(lv_roller.o)
                0x00024f28                lv_roller_get_options

.text.lv_roller_set_selected_str
                0x00024f3e       0x7e
 .text.lv_roller_set_selected_str
                0x00024f3e       0x7e C:/SysGCC/m68k-elf/m68k-elf/lib/m68000\liblvgl.a(lv_roller.o)
                0x00024f3e                lv_roller_set_selected_str

.text.lv_roller_get_option_count
                0x00024fbc       0x2a
 .text.lv_roller_get_option_count
                0x00024fbc       0x2a C:/SysGCC/m68k-elf/m68k-elf/lib/m68000\liblvgl.a(lv_roller.o)
                0x00024fbc                lv_roller_get_option_count

.text.lv_roller_bind_value
                0x00024fe6       0x4e
 .text.lv_roller_bind_value
                0x00024fe6       0x4e C:/SysGCC/m68k-elf/m68k-elf/lib/m68000\liblvgl.a(lv_roller.o)
                0x00024fe6                lv_roller_bind_value

.text.lv_roller_get_option_str
                0x00025034       0x8c
 .text.lv_roller_get_option_str
                0x00025034       0x8c C:/SysGCC/m68k-elf/m68k-elf/lib/m68000\liblvgl.a(lv_roller.o)
                0x00025034                lv_roller_get_option_str

.text.lv_roller_get_selected_str
                0x000250c0       0x1e
 .text.lv_roller_get_selected_str
                0x000250c0       0x1e C:/SysGCC/m68k-elf/m68k-elf/lib/m68000\liblvgl.a(lv_roller.o)
                0x000250c0                lv_roller_get_selected_str

.text.lv_slider_constructor
                0x000250de       0x76
 .text.lv_slider_constructor
                0x000250de       0x76 C:/SysGCC/m68k-elf/m68k-elf/lib/m68000\liblvgl.a(lv_slider.o)

.text.slider_value_observer_cb
                0x00025154       0x48
 .text.slider_value_observer_cb
                0x00025154       0x48 C:/SysGCC/m68k-elf/m68k-elf/lib/m68000\liblvgl.a(lv_slider.o)

.text.slider_value_changed_event_cb
                0x0002519c       0x48
 .text.slider_value_changed_event_cb
                0x0002519c       0x48 C:/SysGCC/m68k-elf/m68k-elf/lib/m68000\liblvgl.a(lv_slider.o)

.text.is_slider_horizontal
                0x000251e4       0x3a
 .text.is_slider_horizontal
                0x000251e4       0x3a C:/SysGCC/m68k-elf/m68k-elf/lib/m68000\liblvgl.a(lv_slider.o)

.text.position_knob
                0x0002521e      0x104
 .text.position_knob
                0x0002521e      0x104 C:/SysGCC/m68k-elf/m68k-elf/lib/m68000\liblvgl.a(lv_slider.o)

.text.lv_slider_create
                0x00025322       0x28
 .text.lv_slider_create
                0x00025322       0x28 C:/SysGCC/m68k-elf/m68k-elf/lib/m68000\liblvgl.a(lv_slider.o)
                0x00025322                lv_slider_create

.text.lv_slider_is_dragged
                0x0002534a        0xc
 .text.lv_slider_is_dragged
                0x0002534a        0xc C:/SysGCC/m68k-elf/m68k-elf/lib/m68000\liblvgl.a(lv_slider.o)
                0x0002534a                lv_slider_is_dragged

.text.lv_slider_set_value
                0x00025356       0x10
 .text.lv_slider_set_value
                0x00025356       0x10 C:/SysGCC/m68k-elf/m68k-elf/lib/m68000\liblvgl.a(lv_slider.o)
                0x00025356                lv_slider_set_value

.text.lv_slider_set_start_value
                0x00025366       0x10
 .text.lv_slider_set_start_value
                0x00025366       0x10 C:/SysGCC/m68k-elf/m68k-elf/lib/m68000\liblvgl.a(lv_slider.o)
                0x00025366                lv_slider_set_start_value

.text.lv_slider_set_range
                0x00025376        0x6
 .text.lv_slider_set_range
                0x00025376        0x6 C:/SysGCC/m68k-elf/m68k-elf/lib/m68000\liblvgl.a(lv_slider.o)
                0x00025376                lv_slider_set_range

.text.lv_slider_set_min_value
                0x0002537c        0x6
 .text.lv_slider_set_min_value
                0x0002537c        0x6 C:/SysGCC/m68k-elf/m68k-elf/lib/m68000\liblvgl.a(lv_slider.o)
                0x0002537c                lv_slider_set_min_value

.text.lv_slider_set_max_value
                0x00025382        0x6
 .text.lv_slider_set_max_value
                0x00025382        0x6 C:/SysGCC/m68k-elf/m68k-elf/lib/m68000\liblvgl.a(lv_slider.o)
                0x00025382                lv_slider_set_max_value

.text.lv_slider_set_mode
                0x00025388        0x6
 .text.lv_slider_set_mode
                0x00025388        0x6 C:/SysGCC/m68k-elf/m68k-elf/lib/m68000\liblvgl.a(lv_slider.o)
                0x00025388                lv_slider_set_mode

.text.lv_slider_set_orientation
                0x0002538e        0x6
 .text.lv_slider_set_orientation
                0x0002538e        0x6 C:/SysGCC/m68k-elf/m68k-elf/lib/m68000\liblvgl.a(lv_slider.o)
                0x0002538e                lv_slider_set_orientation

.text.lv_slider_get_value
                0x00025394        0x6
 .text.lv_slider_get_value
                0x00025394        0x6 C:/SysGCC/m68k-elf/m68k-elf/lib/m68000\liblvgl.a(lv_slider.o)
                0x00025394                lv_slider_get_value

.text.lv_slider_get_left_value
                0x0002539a        0x6
 .text.lv_slider_get_left_value
                0x0002539a        0x6 C:/SysGCC/m68k-elf/m68k-elf/lib/m68000\liblvgl.a(lv_slider.o)
                0x0002539a                lv_slider_get_left_value

.text.lv_slider_get_min_value
                0x000253a0        0x6
 .text.lv_slider_get_min_value
                0x000253a0        0x6 C:/SysGCC/m68k-elf/m68k-elf/lib/m68000\liblvgl.a(lv_slider.o)
                0x000253a0                lv_slider_get_min_value

.text.lv_slider_get_max_value
                0x000253a6        0x6
 .text.lv_slider_get_max_value
                0x000253a6        0x6 C:/SysGCC/m68k-elf/m68k-elf/lib/m68000\liblvgl.a(lv_slider.o)
                0x000253a6                lv_slider_get_max_value

.text.lv_slider_get_mode
                0x000253ac       0x26
 .text.lv_slider_get_mode
                0x000253ac       0x26 C:/SysGCC/m68k-elf/m68k-elf/lib/m68000\liblvgl.a(lv_slider.o)
                0x000253ac                lv_slider_get_mode

.text.update_knob_pos
                0x000253d2      0x3b4
 .text.update_knob_pos
                0x000253d2      0x3b4 C:/SysGCC/m68k-elf/m68k-elf/lib/m68000\liblvgl.a(lv_slider.o)

.text.draw_knob
                0x00025786      0x1dc
 .text.draw_knob
                0x00025786      0x1dc C:/SysGCC/m68k-elf/m68k-elf/lib/m68000\liblvgl.a(lv_slider.o)

.text.lv_slider_event
                0x00025962      0x476
 .text.lv_slider_event
                0x00025962      0x476 C:/SysGCC/m68k-elf/m68k-elf/lib/m68000\liblvgl.a(lv_slider.o)

.text.lv_slider_get_orientation
                0x00025dd8       0x26
 .text.lv_slider_get_orientation
                0x00025dd8       0x26 C:/SysGCC/m68k-elf/m68k-elf/lib/m68000\liblvgl.a(lv_slider.o)
                0x00025dd8                lv_slider_get_orientation

.text.lv_slider_is_symmetrical
                0x00025dfe        0x6
 .text.lv_slider_is_symmetrical
                0x00025dfe        0x6 C:/SysGCC/m68k-elf/m68k-elf/lib/m68000\liblvgl.a(lv_slider.o)
                0x00025dfe                lv_slider_is_symmetrical

.text.lv_slider_bind_value
                0x00025e04       0x4e
 .text.lv_slider_bind_value
                0x00025e04       0x4e C:/SysGCC/m68k-elf/m68k-elf/lib/m68000\liblvgl.a(lv_slider.o)
                0x00025e04                lv_slider_bind_value

.text.lv_spangroup_destructor
                0x00025e52       0x68
 .text.lv_spangroup_destructor
                0x00025e52       0x68 C:/SysGCC/m68k-elf/m68k-elf/lib/m68000\liblvgl.a(lv_span.o)

.text.lv_spangroup_constructor
                0x00025eba       0x3c
 .text.lv_spangroup_constructor
                0x00025eba       0x3c C:/SysGCC/m68k-elf/m68k-elf/lib/m68000\liblvgl.a(lv_span.o)

.text.lv_text_is_a_word
                0x00025ef6       0xec
 .text.lv_text_is_a_word
                0x00025ef6       0x76 C:/SysGCC/m68k-elf/m68k-elf/lib/m68000\liblvgl.a(lv_span.o)
 .text.lv_text_is_a_word
                0x00025f6c       0x76 C:/SysGCC/m68k-elf/m68k-elf/lib/m68000\liblvgl.a(lv_text.o)

.text.lv_text_get_snippet
                0x00025fe2       0x94
 .text.lv_text_get_snippet
                0x00025fe2       0x94 C:/SysGCC/m68k-elf/m68k-elf/lib/m68000\liblvgl.a(lv_span.o)

.text.make_span_coords.isra.4
                0x00026076      0x14c
 .text.make_span_coords.isra.4
                0x00026076      0x14c C:/SysGCC/m68k-elf/m68k-elf/lib/m68000\liblvgl.a(lv_span.o)

.text.lv_span_get_style_text_font
                0x000261c2       0x4a
 .text.lv_span_get_style_text_font
                0x000261c2       0x4a C:/SysGCC/m68k-elf/m68k-elf/lib/m68000\liblvgl.a(lv_span.o)

.text.lv_span_get_style_text_letter_space
                0x0002620c       0x4a
 .text.lv_span_get_style_text_letter_space
                0x0002620c       0x4a C:/SysGCC/m68k-elf/m68k-elf/lib/m68000\liblvgl.a(lv_span.o)

.text.lv_span_stack_init
                0x00026256       0x14
 .text.lv_span_stack_init
                0x00026256       0x14 C:/SysGCC/m68k-elf/m68k-elf/lib/m68000\liblvgl.a(lv_span.o)
                0x00026256                lv_span_stack_init

.text.lv_span_stack_deinit
                0x0002626a       0x10
 .text.lv_span_stack_deinit
                0x0002626a       0x10 C:/SysGCC/m68k-elf/m68k-elf/lib/m68000\liblvgl.a(lv_span.o)
                0x0002626a                lv_span_stack_deinit

.text.lv_spangroup_create
                0x0002627a       0x28
 .text.lv_spangroup_create
                0x0002627a       0x28 C:/SysGCC/m68k-elf/m68k-elf/lib/m68000\liblvgl.a(lv_span.o)
                0x0002627a                lv_spangroup_create

.text.lv_span_set_text
                0x000262a2       0x6a
 .text.lv_span_set_text
                0x000262a2       0x6a C:/SysGCC/m68k-elf/m68k-elf/lib/m68000\liblvgl.a(lv_span.o)
                0x000262a2                lv_span_set_text

.text.lv_span_set_text_fmt
                0x0002630c       0x54
 .text.lv_span_set_text_fmt
                0x0002630c       0x54 C:/SysGCC/m68k-elf/m68k-elf/lib/m68000\liblvgl.a(lv_span.o)
                0x0002630c                lv_span_set_text_fmt

.text.lv_span_set_text_static
                0x00026360       0x38
 .text.lv_span_set_text_static
                0x00026360       0x38 C:/SysGCC/m68k-elf/m68k-elf/lib/m68000\liblvgl.a(lv_span.o)
                0x00026360                lv_span_set_text_static

.text.lv_spangroup_set_align
                0x00026398       0x16
 .text.lv_spangroup_set_align
                0x00026398       0x16 C:/SysGCC/m68k-elf/m68k-elf/lib/m68000\liblvgl.a(lv_span.o)
                0x00026398                lv_spangroup_set_align

.text.lv_spangroup_set_overflow
                0x000263ae       0x3a
 .text.lv_spangroup_set_overflow
                0x000263ae       0x3a C:/SysGCC/m68k-elf/m68k-elf/lib/m68000\liblvgl.a(lv_span.o)
                0x000263ae                lv_spangroup_set_overflow

.text.lv_span_get_style
                0x000263e8        0x8
 .text.lv_span_get_style
                0x000263e8        0x8 C:/SysGCC/m68k-elf/m68k-elf/lib/m68000\liblvgl.a(lv_span.o)
                0x000263e8                lv_span_get_style

.text.lv_span_get_text
                0x000263f0        0x8
 .text.lv_span_get_text
                0x000263f0        0x8 C:/SysGCC/m68k-elf/m68k-elf/lib/m68000\liblvgl.a(lv_span.o)
                0x000263f0                lv_span_get_text

.text.lv_spangroup_get_child
                0x000263f8       0x6a
 .text.lv_spangroup_get_child
                0x000263f8       0x6a C:/SysGCC/m68k-elf/m68k-elf/lib/m68000\liblvgl.a(lv_span.o)
                0x000263f8                lv_spangroup_get_child

.text.lv_spangroup_get_span_count
                0x00026462       0x18
 .text.lv_spangroup_get_span_count
                0x00026462       0x18 C:/SysGCC/m68k-elf/m68k-elf/lib/m68000\liblvgl.a(lv_span.o)
                0x00026462                lv_spangroup_get_span_count

.text.lv_spangroup_get_align
                0x0002647a       0x20
 .text.lv_spangroup_get_align
                0x0002647a       0x20 C:/SysGCC/m68k-elf/m68k-elf/lib/m68000\liblvgl.a(lv_span.o)
                0x0002647a                lv_spangroup_get_align

.text.lv_spangroup_get_overflow
                0x0002649a       0x10
 .text.lv_spangroup_get_overflow
                0x0002649a       0x10 C:/SysGCC/m68k-elf/m68k-elf/lib/m68000\liblvgl.a(lv_span.o)
                0x0002649a                lv_spangroup_get_overflow

.text.lv_spangroup_get_indent
                0x000264aa        0xa
 .text.lv_spangroup_get_indent
                0x000264aa        0xa C:/SysGCC/m68k-elf/m68k-elf/lib/m68000\liblvgl.a(lv_span.o)
                0x000264aa                lv_spangroup_get_indent

.text.lv_spangroup_get_mode
                0x000264b4       0x5a
 .text.lv_spangroup_get_mode
                0x000264b4       0x5a C:/SysGCC/m68k-elf/m68k-elf/lib/m68000\liblvgl.a(lv_span.o)
                0x000264b4                lv_spangroup_get_mode

.text.convert_indent_pct
                0x0002650e       0x7a
 .text.convert_indent_pct
                0x0002650e       0x7a C:/SysGCC/m68k-elf/m68k-elf/lib/m68000\liblvgl.a(lv_span.o)

.text.lv_spangroup_get_max_lines
                0x00026588        0xa
 .text.lv_spangroup_get_max_lines
                0x00026588        0xa C:/SysGCC/m68k-elf/m68k-elf/lib/m68000\liblvgl.a(lv_span.o)
                0x00026588                lv_spangroup_get_max_lines

.text.lv_spangroup_get_max_line_height
                0x00026592       0x58
 .text.lv_spangroup_get_max_line_height
                0x00026592       0x58 C:/SysGCC/m68k-elf/m68k-elf/lib/m68000\liblvgl.a(lv_span.o)
                0x00026592                lv_spangroup_get_max_line_height

.text.lv_spangroup_get_expand_width
                0x000265ea      0x10a
 .text.lv_spangroup_get_expand_width
                0x000265ea      0x10a C:/SysGCC/m68k-elf/m68k-elf/lib/m68000\liblvgl.a(lv_span.o)
                0x000265ea                lv_spangroup_get_expand_width

.text.lv_spangroup_get_expand_height
                0x000266f4      0x2dc
 .text.lv_spangroup_get_expand_height
                0x000266f4      0x2dc C:/SysGCC/m68k-elf/m68k-elf/lib/m68000\liblvgl.a(lv_span.o)
                0x000266f4                lv_spangroup_get_expand_height

.text.lv_spangroup_get_span_coords
                0x000269d0       0xee
 .text.lv_spangroup_get_span_coords
                0x000269d0       0xee C:/SysGCC/m68k-elf/m68k-elf/lib/m68000\liblvgl.a(lv_span.o)
                0x000269d0                lv_spangroup_get_span_coords

.text.lv_spangroup_get_span_by_point
                0x00026abe      0x11e
 .text.lv_spangroup_get_span_by_point
                0x00026abe      0x11e C:/SysGCC/m68k-elf/m68k-elf/lib/m68000\liblvgl.a(lv_span.o)
                0x00026abe                lv_spangroup_get_span_by_point

.text.lv_spangroup_refresh
                0x00026bdc       0x22
 .text.lv_spangroup_refresh
                0x00026bdc       0x22 C:/SysGCC/m68k-elf/m68k-elf/lib/m68000\liblvgl.a(lv_span.o)
                0x00026bdc                lv_spangroup_refresh

.text.lv_spangroup_event
                0x00026bfe      0x8a0
 .text.lv_spangroup_event
                0x00026bfe      0x8a0 C:/SysGCC/m68k-elf/m68k-elf/lib/m68000\liblvgl.a(lv_span.o)

.text.lv_spangroup_add_span
                0x0002749e       0x48
 .text.lv_spangroup_add_span
                0x0002749e       0x48 C:/SysGCC/m68k-elf/m68k-elf/lib/m68000\liblvgl.a(lv_span.o)
                0x0002749e                lv_spangroup_add_span

.text.lv_spangroup_delete_span
                0x000274e6       0x8c
 .text.lv_spangroup_delete_span
                0x000274e6       0x8c C:/SysGCC/m68k-elf/m68k-elf/lib/m68000\liblvgl.a(lv_span.o)
                0x000274e6                lv_spangroup_delete_span

.text.lv_spangroup_set_span_text
                0x00027572       0x22
 .text.lv_spangroup_set_span_text
                0x00027572       0x22 C:/SysGCC/m68k-elf/m68k-elf/lib/m68000\liblvgl.a(lv_span.o)
                0x00027572                lv_spangroup_set_span_text

.text.lv_spangroup_set_span_text_static
                0x00027594       0x22
 .text.lv_spangroup_set_span_text_static
                0x00027594       0x22 C:/SysGCC/m68k-elf/m68k-elf/lib/m68000\liblvgl.a(lv_span.o)
                0x00027594                lv_spangroup_set_span_text_static

.text.lv_spangroup_set_span_text_fmt
                0x000275b6       0x60
 .text.lv_spangroup_set_span_text_fmt
                0x000275b6       0x60 C:/SysGCC/m68k-elf/m68k-elf/lib/m68000\liblvgl.a(lv_span.o)
                0x000275b6                lv_spangroup_set_span_text_fmt

.text.span_text_observer_cb
                0x00027616       0x6e
 .text.span_text_observer_cb
                0x00027616       0x6e C:/SysGCC/m68k-elf/m68k-elf/lib/m68000\liblvgl.a(lv_span.o)

.text.lv_spangroup_set_span_style
                0x00027684       0x26
 .text.lv_spangroup_set_span_style
                0x00027684       0x26 C:/SysGCC/m68k-elf/m68k-elf/lib/m68000\liblvgl.a(lv_span.o)
                0x00027684                lv_spangroup_set_span_style

.text.lv_spangroup_set_indent
                0x000276aa       0x1a
 .text.lv_spangroup_set_indent
                0x000276aa       0x1a C:/SysGCC/m68k-elf/m68k-elf/lib/m68000\liblvgl.a(lv_span.o)
                0x000276aa                lv_spangroup_set_indent

.text.lv_spangroup_set_mode
                0x000276c4       0xfc
 .text.lv_spangroup_set_mode
                0x000276c4       0xfc C:/SysGCC/m68k-elf/m68k-elf/lib/m68000\liblvgl.a(lv_span.o)
                0x000276c4                lv_spangroup_set_mode

.text.lv_spangroup_set_max_lines
                0x000277c0       0x10
 .text.lv_spangroup_set_max_lines
                0x000277c0       0x10 C:/SysGCC/m68k-elf/m68k-elf/lib/m68000\liblvgl.a(lv_span.o)
                0x000277c0                lv_spangroup_set_max_lines

.text.lv_spangroup_bind_span_text
                0x000277d0       0x96
 .text.lv_spangroup_bind_span_text
                0x000277d0       0x96 C:/SysGCC/m68k-elf/m68k-elf/lib/m68000\liblvgl.a(lv_span.o)
                0x000277d0                lv_spangroup_bind_span_text

.text.lv_spinbox_updatevalue
                0x00027866      0x144
 .text.lv_spinbox_updatevalue
                0x00027866      0x144 C:/SysGCC/m68k-elf/m68k-elf/lib/m68000\liblvgl.a(lv_spinbox.o)

.text.lv_spinbox_constructor
                0x000279aa       0x5e
 .text.lv_spinbox_constructor
                0x000279aa       0x5e C:/SysGCC/m68k-elf/m68k-elf/lib/m68000\liblvgl.a(lv_spinbox.o)

.text.spinbox_value_changed_event_cb
                0x00027a08       0x40
 .text.spinbox_value_changed_event_cb
                0x00027a08       0x40 C:/SysGCC/m68k-elf/m68k-elf/lib/m68000\liblvgl.a(lv_spinbox.o)

.text.lv_spinbox_create
                0x00027a48       0x28
 .text.lv_spinbox_create
                0x00027a48       0x28 C:/SysGCC/m68k-elf/m68k-elf/lib/m68000\liblvgl.a(lv_spinbox.o)
                0x00027a48                lv_spinbox_create

.text.lv_spinbox_set_value
                0x00027a70       0x2a
 .text.lv_spinbox_set_value
                0x00027a70       0x2a C:/SysGCC/m68k-elf/m68k-elf/lib/m68000\liblvgl.a(lv_spinbox.o)
                0x00027a70                lv_spinbox_set_value

.text.spinbox_value_observer_cb
                0x00027a9a       0x2a
 .text.spinbox_value_observer_cb
                0x00027a9a       0x2a C:/SysGCC/m68k-elf/m68k-elf/lib/m68000\liblvgl.a(lv_spinbox.o)

.text.lv_spinbox_set_rollover
                0x00027ac4       0x1a
 .text.lv_spinbox_set_rollover
                0x00027ac4       0x1a C:/SysGCC/m68k-elf/m68k-elf/lib/m68000\liblvgl.a(lv_spinbox.o)
                0x00027ac4                lv_spinbox_set_rollover

.text.lv_spinbox_set_digit_format
                0x00027ade       0x98
 .text.lv_spinbox_set_digit_format
                0x00027ade       0x98 C:/SysGCC/m68k-elf/m68k-elf/lib/m68000\liblvgl.a(lv_spinbox.o)
                0x00027ade                lv_spinbox_set_digit_format

.text.lv_spinbox_set_digit_count
                0x00027b76       0x2a
 .text.lv_spinbox_set_digit_count
                0x00027b76       0x2a C:/SysGCC/m68k-elf/m68k-elf/lib/m68000\liblvgl.a(lv_spinbox.o)
                0x00027b76                lv_spinbox_set_digit_count

.text.lv_spinbox_set_dec_point_pos
                0x00027ba0       0x20
 .text.lv_spinbox_set_dec_point_pos
                0x00027ba0       0x20 C:/SysGCC/m68k-elf/m68k-elf/lib/m68000\liblvgl.a(lv_spinbox.o)
                0x00027ba0                lv_spinbox_set_dec_point_pos

.text.lv_spinbox_set_step
                0x00027bc0       0x10
 .text.lv_spinbox_set_step
                0x00027bc0       0x10 C:/SysGCC/m68k-elf/m68k-elf/lib/m68000\liblvgl.a(lv_spinbox.o)
                0x00027bc0                lv_spinbox_set_step

.text.lv_spinbox_set_range
                0x00027bd0       0x32
 .text.lv_spinbox_set_range
                0x00027bd0       0x32 C:/SysGCC/m68k-elf/m68k-elf/lib/m68000\liblvgl.a(lv_spinbox.o)
                0x00027bd0                lv_spinbox_set_range

.text.lv_spinbox_set_min_value
                0x00027c02       0x20
 .text.lv_spinbox_set_min_value
                0x00027c02       0x20 C:/SysGCC/m68k-elf/m68k-elf/lib/m68000\liblvgl.a(lv_spinbox.o)
                0x00027c02                lv_spinbox_set_min_value

.text.lv_spinbox_set_max_value
                0x00027c22       0x20
 .text.lv_spinbox_set_max_value
                0x00027c22       0x20 C:/SysGCC/m68k-elf/m68k-elf/lib/m68000\liblvgl.a(lv_spinbox.o)
                0x00027c22                lv_spinbox_set_max_value

.text.lv_spinbox_set_cursor_pos
                0x00027c42       0x5a
 .text.lv_spinbox_set_cursor_pos
                0x00027c42       0x5a C:/SysGCC/m68k-elf/m68k-elf/lib/m68000\liblvgl.a(lv_spinbox.o)
                0x00027c42                lv_spinbox_set_cursor_pos

.text.lv_spinbox_set_digit_step_direction
                0x00027c9c       0x26
 .text.lv_spinbox_set_digit_step_direction
                0x00027c9c       0x26 C:/SysGCC/m68k-elf/m68k-elf/lib/m68000\liblvgl.a(lv_spinbox.o)
                0x00027c9c                lv_spinbox_set_digit_step_direction

.text.lv_spinbox_get_value
                0x00027cc2        0xa
 .text.lv_spinbox_get_value
                0x00027cc2        0xa C:/SysGCC/m68k-elf/m68k-elf/lib/m68000\liblvgl.a(lv_spinbox.o)
                0x00027cc2                lv_spinbox_get_value

.text.lv_spinbox_get_step
                0x00027ccc        0xa
 .text.lv_spinbox_get_step
                0x00027ccc        0xa C:/SysGCC/m68k-elf/m68k-elf/lib/m68000\liblvgl.a(lv_spinbox.o)
                0x00027ccc                lv_spinbox_get_step

.text.lv_spinbox_step_next
                0x00027cd6       0x2c
 .text.lv_spinbox_step_next
                0x00027cd6       0x2c C:/SysGCC/m68k-elf/m68k-elf/lib/m68000\liblvgl.a(lv_spinbox.o)
                0x00027cd6                lv_spinbox_step_next

.text.lv_spinbox_step_prev
                0x00027d02       0x36
 .text.lv_spinbox_step_prev
                0x00027d02       0x36 C:/SysGCC/m68k-elf/m68k-elf/lib/m68000\liblvgl.a(lv_spinbox.o)
                0x00027d02                lv_spinbox_step_prev

.text.lv_spinbox_get_rollover
                0x00027d38        0xc
 .text.lv_spinbox_get_rollover
                0x00027d38        0xc C:/SysGCC/m68k-elf/m68k-elf/lib/m68000\liblvgl.a(lv_spinbox.o)
                0x00027d38                lv_spinbox_get_rollover

.text.lv_spinbox_get_digit_count
                0x00027d44       0x10
 .text.lv_spinbox_get_digit_count
                0x00027d44       0x10 C:/SysGCC/m68k-elf/m68k-elf/lib/m68000\liblvgl.a(lv_spinbox.o)
                0x00027d44                lv_spinbox_get_digit_count

.text.lv_spinbox_get_dec_point_pos
                0x00027d54       0x12
 .text.lv_spinbox_get_dec_point_pos
                0x00027d54       0x12 C:/SysGCC/m68k-elf/m68k-elf/lib/m68000\liblvgl.a(lv_spinbox.o)
                0x00027d54                lv_spinbox_get_dec_point_pos

.text.lv_spinbox_get_min_value
                0x00027d66        0xa
 .text.lv_spinbox_get_min_value
                0x00027d66        0xa C:/SysGCC/m68k-elf/m68k-elf/lib/m68000\liblvgl.a(lv_spinbox.o)
                0x00027d66                lv_spinbox_get_min_value

.text.lv_spinbox_get_max_value
                0x00027d70        0xa
 .text.lv_spinbox_get_max_value
                0x00027d70        0xa C:/SysGCC/m68k-elf/m68k-elf/lib/m68000\liblvgl.a(lv_spinbox.o)
                0x00027d70                lv_spinbox_get_max_value

.text.lv_spinbox_get_digit_step_direction
                0x00027d7a       0x10
 .text.lv_spinbox_get_digit_step_direction
                0x00027d7a       0x10 C:/SysGCC/m68k-elf/m68k-elf/lib/m68000\liblvgl.a(lv_spinbox.o)
                0x00027d7a                lv_spinbox_get_digit_step_direction

.text.lv_spinbox_increment
                0x00027d8a       0x4e
 .text.lv_spinbox_increment
                0x00027d8a       0x4e C:/SysGCC/m68k-elf/m68k-elf/lib/m68000\liblvgl.a(lv_spinbox.o)
                0x00027d8a                lv_spinbox_increment

.text.lv_spinbox_decrement
                0x00027dd8       0x52
 .text.lv_spinbox_decrement
                0x00027dd8       0x52 C:/SysGCC/m68k-elf/m68k-elf/lib/m68000\liblvgl.a(lv_spinbox.o)
                0x00027dd8                lv_spinbox_decrement

.text.lv_spinbox_event
                0x00027e2a      0x23e
 .text.lv_spinbox_event
                0x00027e2a      0x23e C:/SysGCC/m68k-elf/m68k-elf/lib/m68000\liblvgl.a(lv_spinbox.o)

.text.lv_spinbox_bind_value
                0x00028068       0x4e
 .text.lv_spinbox_bind_value
                0x00028068       0x4e C:/SysGCC/m68k-elf/m68k-elf/lib/m68000\liblvgl.a(lv_spinbox.o)
                0x00028068                lv_spinbox_bind_value

.text.arc_anim_start_angle
                0x000280b6        0x6
 .text.arc_anim_start_angle
                0x000280b6        0x6 C:/SysGCC/m68k-elf/m68k-elf/lib/m68000\liblvgl.a(lv_spinner.o)

.text.arc_anim_end_angle
                0x000280bc        0x6
 .text.arc_anim_end_angle
                0x000280bc        0x6 C:/SysGCC/m68k-elf/m68k-elf/lib/m68000\liblvgl.a(lv_spinner.o)

.text.lv_spinner_create
                0x000280c2       0x28
 .text.lv_spinner_create
                0x000280c2       0x28 C:/SysGCC/m68k-elf/m68k-elf/lib/m68000\liblvgl.a(lv_spinner.o)
                0x000280c2                lv_spinner_create

.text.lv_spinner_set_anim_params
                0x000280ea       0xec
 .text.lv_spinner_set_anim_params
                0x000280ea       0xec C:/SysGCC/m68k-elf/m68k-elf/lib/m68000\liblvgl.a(lv_spinner.o)
                0x000280ea                lv_spinner_set_anim_params

.text.lv_spinner_constructor
                0x000281d6       0x2a
 .text.lv_spinner_constructor
                0x000281d6       0x2a C:/SysGCC/m68k-elf/m68k-elf/lib/m68000\liblvgl.a(lv_spinner.o)

.text.lv_spinner_set_anim_duration
                0x00028200       0x1a
 .text.lv_spinner_set_anim_duration
                0x00028200       0x1a C:/SysGCC/m68k-elf/m68k-elf/lib/m68000\liblvgl.a(lv_spinner.o)
                0x00028200                lv_spinner_set_anim_duration

.text.lv_spinner_set_arc_sweep
                0x0002821a       0x1a
 .text.lv_spinner_set_arc_sweep
                0x0002821a       0x1a C:/SysGCC/m68k-elf/m68k-elf/lib/m68000\liblvgl.a(lv_spinner.o)
                0x0002821a                lv_spinner_set_arc_sweep

.text.lv_spinner_get_anim_duration
                0x00028234        0xa
 .text.lv_spinner_get_anim_duration
                0x00028234        0xa C:/SysGCC/m68k-elf/m68k-elf/lib/m68000\liblvgl.a(lv_spinner.o)
                0x00028234                lv_spinner_get_anim_duration

.text.lv_spinner_get_arc_sweep
                0x0002823e        0xa
 .text.lv_spinner_get_arc_sweep
                0x0002823e        0xa C:/SysGCC/m68k-elf/m68k-elf/lib/m68000\liblvgl.a(lv_spinner.o)
                0x0002823e                lv_spinner_get_arc_sweep

.text.lv_switch_anim_completed
                0x00028248       0x16
 .text.lv_switch_anim_completed
                0x00028248       0x16 C:/SysGCC/m68k-elf/m68k-elf/lib/m68000\liblvgl.a(lv_switch.o)

.text.lv_switch_anim_exec_cb
                0x0002825e       0x10
 .text.lv_switch_anim_exec_cb
                0x0002825e       0x10 C:/SysGCC/m68k-elf/m68k-elf/lib/m68000\liblvgl.a(lv_switch.o)

.text.lv_switch_destructor
                0x0002826e       0x10
 .text.lv_switch_destructor
                0x0002826e       0x10 C:/SysGCC/m68k-elf/m68k-elf/lib/m68000\liblvgl.a(lv_switch.o)

.text.lv_switch_constructor
                0x0002827e       0x42
 .text.lv_switch_constructor
                0x0002827e       0x42 C:/SysGCC/m68k-elf/m68k-elf/lib/m68000\liblvgl.a(lv_switch.o)

.text.lv_switch_event
                0x000282c0      0x23c
 .text.lv_switch_event
                0x000282c0      0x23c C:/SysGCC/m68k-elf/m68k-elf/lib/m68000\liblvgl.a(lv_switch.o)

.text.lv_switch_create
                0x000284fc       0x28
 .text.lv_switch_create
                0x000284fc       0x28 C:/SysGCC/m68k-elf/m68k-elf/lib/m68000\liblvgl.a(lv_switch.o)
                0x000284fc                lv_switch_create

.text.lv_switch_set_orientation
                0x00028524       0x1e
 .text.lv_switch_set_orientation
                0x00028524       0x1e C:/SysGCC/m68k-elf/m68k-elf/lib/m68000\liblvgl.a(lv_switch.o)
                0x00028524                lv_switch_set_orientation

.text.lv_switch_get_orientation
                0x00028542       0x10
 .text.lv_switch_get_orientation
                0x00028542       0x10 C:/SysGCC/m68k-elf/m68k-elf/lib/m68000\liblvgl.a(lv_switch.o)
                0x00028542                lv_switch_get_orientation

.text.get_row_height
                0x00028552      0x15a
 .text.get_row_height
                0x00028552      0x15a C:/SysGCC/m68k-elf/m68k-elf/lib/m68000\liblvgl.a(lv_table.o)

.text.lv_table_destructor
                0x000286ac       0x82
 .text.lv_table_destructor
                0x000286ac       0x82 C:/SysGCC/m68k-elf/m68k-elf/lib/m68000\liblvgl.a(lv_table.o)

.text.lv_table_constructor
                0x0002872e       0x88
 .text.lv_table_constructor
                0x0002872e       0x88 C:/SysGCC/m68k-elf/m68k-elf/lib/m68000\liblvgl.a(lv_table.o)

.text.refr_size_form_row.constprop.3
                0x000287b6      0x132
 .text.refr_size_form_row.constprop.3
                0x000287b6      0x132 C:/SysGCC/m68k-elf/m68k-elf/lib/m68000\liblvgl.a(lv_table.o)

.text.get_cell_area
                0x000288e8      0x168
 .text.get_cell_area
                0x000288e8      0x168 C:/SysGCC/m68k-elf/m68k-elf/lib/m68000\liblvgl.a(lv_table.o)

.text.scroll_to_selected_cell
                0x00028a50       0xca
 .text.scroll_to_selected_cell
                0x00028a50       0xca C:/SysGCC/m68k-elf/m68k-elf/lib/m68000\liblvgl.a(lv_table.o)

.text.refr_cell_size
                0x00028b1a      0x156
 .text.refr_cell_size
                0x00028b1a      0x156 C:/SysGCC/m68k-elf/m68k-elf/lib/m68000\liblvgl.a(lv_table.o)

.text.lv_table_event
                0x00028c70      0x376
 .text.lv_table_event
                0x00028c70      0x376 C:/SysGCC/m68k-elf/m68k-elf/lib/m68000\liblvgl.a(lv_table.o)

.text.lv_table_create
                0x00028fe6       0x28
 .text.lv_table_create
                0x00028fe6       0x28 C:/SysGCC/m68k-elf/m68k-elf/lib/m68000\liblvgl.a(lv_table.o)
                0x00028fe6                lv_table_create

.text.lv_table_set_row_count
                0x0002900e       0xfc
 .text.lv_table_set_row_count
                0x0002900e       0xfc C:/SysGCC/m68k-elf/m68k-elf/lib/m68000\liblvgl.a(lv_table.o)
                0x0002900e                lv_table_set_row_count

.text.lv_table_set_column_count
                0x0002910a      0x14c
 .text.lv_table_set_column_count
                0x0002910a      0x14c C:/SysGCC/m68k-elf/m68k-elf/lib/m68000\liblvgl.a(lv_table.o)
                0x0002910a                lv_table_set_column_count

.text.lv_table_set_cell_value
                0x00029256       0xd4
 .text.lv_table_set_cell_value
                0x00029256       0xd4 C:/SysGCC/m68k-elf/m68k-elf/lib/m68000\liblvgl.a(lv_table.o)
                0x00029256                lv_table_set_cell_value

.text.lv_table_set_cell_value_fmt
                0x0002932a       0xea
 .text.lv_table_set_cell_value_fmt
                0x0002932a       0xea C:/SysGCC/m68k-elf/m68k-elf/lib/m68000\liblvgl.a(lv_table.o)
                0x0002932a                lv_table_set_cell_value_fmt

.text.lv_table_set_column_width
                0x00029414       0x3e
 .text.lv_table_set_column_width
                0x00029414       0x3e C:/SysGCC/m68k-elf/m68k-elf/lib/m68000\liblvgl.a(lv_table.o)
                0x00029414                lv_table_set_column_width

.text.lv_table_set_cell_ctrl
                0x00029452       0xaa
 .text.lv_table_set_cell_ctrl
                0x00029452       0xaa C:/SysGCC/m68k-elf/m68k-elf/lib/m68000\liblvgl.a(lv_table.o)
                0x00029452                lv_table_set_cell_ctrl

.text.lv_table_clear_cell_ctrl
                0x000294fc       0x96
 .text.lv_table_clear_cell_ctrl
                0x000294fc       0x96 C:/SysGCC/m68k-elf/m68k-elf/lib/m68000\liblvgl.a(lv_table.o)
                0x000294fc                lv_table_clear_cell_ctrl

.text.lv_table_set_cell_user_data
                0x00029592       0xa0
 .text.lv_table_set_cell_user_data
                0x00029592       0xa0 C:/SysGCC/m68k-elf/m68k-elf/lib/m68000\liblvgl.a(lv_table.o)
                0x00029592                lv_table_set_cell_user_data

.text.lv_table_set_selected_cell
                0x00029632       0x80
 .text.lv_table_set_selected_cell
                0x00029632       0x80 C:/SysGCC/m68k-elf/m68k-elf/lib/m68000\liblvgl.a(lv_table.o)
                0x00029632                lv_table_set_selected_cell

.text.lv_table_get_cell_value
                0x000296b2       0x4c
 .text.lv_table_get_cell_value
                0x000296b2       0x4c C:/SysGCC/m68k-elf/m68k-elf/lib/m68000\liblvgl.a(lv_table.o)
                0x000296b2                lv_table_get_cell_value

.text.lv_table_get_row_count
                0x000296fe        0xa
 .text.lv_table_get_row_count
                0x000296fe        0xa C:/SysGCC/m68k-elf/m68k-elf/lib/m68000\liblvgl.a(lv_table.o)
                0x000296fe                lv_table_get_row_count

.text.lv_table_get_column_count
                0x00029708        0xa
 .text.lv_table_get_column_count
                0x00029708        0xa C:/SysGCC/m68k-elf/m68k-elf/lib/m68000\liblvgl.a(lv_table.o)
                0x00029708                lv_table_get_column_count

.text.lv_table_get_column_width
                0x00029712       0x22
 .text.lv_table_get_column_width
                0x00029712       0x22 C:/SysGCC/m68k-elf/m68k-elf/lib/m68000\liblvgl.a(lv_table.o)
                0x00029712                lv_table_get_column_width

.text.lv_table_has_cell_ctrl
                0x00029734       0x58
 .text.lv_table_has_cell_ctrl
                0x00029734       0x58 C:/SysGCC/m68k-elf/m68k-elf/lib/m68000\liblvgl.a(lv_table.o)
                0x00029734                lv_table_has_cell_ctrl

.text.lv_table_get_selected_cell
                0x0002978c       0x16
 .text.lv_table_get_selected_cell
                0x0002978c       0x16 C:/SysGCC/m68k-elf/m68k-elf/lib/m68000\liblvgl.a(lv_table.o)
                0x0002978c                lv_table_get_selected_cell

.text.lv_table_get_cell_user_data
                0x000297a2       0x56
 .text.lv_table_get_cell_user_data
                0x000297a2       0x56 C:/SysGCC/m68k-elf/m68k-elf/lib/m68000\liblvgl.a(lv_table.o)
                0x000297a2                lv_table_get_cell_user_data

.text.lv_tabview_create
                0x000297f8       0x28
 .text.lv_tabview_create
                0x000297f8       0x28 C:/SysGCC/m68k-elf/m68k-elf/lib/m68000\liblvgl.a(lv_tabview.o)
                0x000297f8                lv_tabview_create

.text.lv_tabview_get_tab_active
                0x00029820        0xa
 .text.lv_tabview_get_tab_active
                0x00029820        0xa C:/SysGCC/m68k-elf/m68k-elf/lib/m68000\liblvgl.a(lv_tabview.o)
                0x00029820                lv_tabview_get_tab_active

.text.lv_tabview_get_content
                0x0002982a       0x12
 .text.lv_tabview_get_content
                0x0002982a       0x12 C:/SysGCC/m68k-elf/m68k-elf/lib/m68000\liblvgl.a(lv_tabview.o)
                0x0002982a                lv_tabview_get_content

.text.lv_tabview_get_tab_bar
                0x0002983c       0x10
 .text.lv_tabview_get_tab_bar
                0x0002983c       0x10 C:/SysGCC/m68k-elf/m68k-elf/lib/m68000\liblvgl.a(lv_tabview.o)
                0x0002983c                lv_tabview_get_tab_bar

.text.lv_tabview_set_tab_text
                0x0002984c       0x4a
 .text.lv_tabview_set_tab_text
                0x0002984c       0x4a C:/SysGCC/m68k-elf/m68k-elf/lib/m68000\liblvgl.a(lv_tabview.o)
                0x0002984c                lv_tabview_set_tab_text

.text.lv_tabview_set_tab_bar_size
                0x00029896       0x40
 .text.lv_tabview_set_tab_bar_size
                0x00029896       0x40 C:/SysGCC/m68k-elf/m68k-elf/lib/m68000\liblvgl.a(lv_tabview.o)
                0x00029896                lv_tabview_set_tab_bar_size

.text.lv_tabview_set_tab_bar_position
                0x000298d6      0x17a
 .text.lv_tabview_set_tab_bar_position
                0x000298d6      0x17a C:/SysGCC/m68k-elf/m68k-elf/lib/m68000\liblvgl.a(lv_tabview.o)
                0x000298d6                lv_tabview_set_tab_bar_position

.text.lv_tabview_constructor
                0x00029a50       0xc0
 .text.lv_tabview_constructor
                0x00029a50       0xc0 C:/SysGCC/m68k-elf/m68k-elf/lib/m68000\liblvgl.a(lv_tabview.o)

.text.lv_tabview_get_tab_button
                0x00029b10       0x22
 .text.lv_tabview_get_tab_button
                0x00029b10       0x22 C:/SysGCC/m68k-elf/m68k-elf/lib/m68000\liblvgl.a(lv_tabview.o)
                0x00029b10                lv_tabview_get_tab_button

.text.lv_tabview_get_tab_count
                0x00029b32       0x1e
 .text.lv_tabview_get_tab_count
                0x00029b32       0x1e C:/SysGCC/m68k-elf/m68k-elf/lib/m68000\liblvgl.a(lv_tabview.o)
                0x00029b32                lv_tabview_get_tab_count

.text.lv_tabview_set_active
                0x00029b50      0x152
 .text.lv_tabview_set_active
                0x00029b50      0x152 C:/SysGCC/m68k-elf/m68k-elf/lib/m68000\liblvgl.a(lv_tabview.o)
                0x00029b50                lv_tabview_set_active

.text.lv_tabview_event
                0x00029ca2       0x52
 .text.lv_tabview_event
                0x00029ca2       0x52 C:/SysGCC/m68k-elf/m68k-elf/lib/m68000\liblvgl.a(lv_tabview.o)

.text.cont_scroll_end_event_cb
                0x00029cf4      0x13a
 .text.cont_scroll_end_event_cb
                0x00029cf4      0x13a C:/SysGCC/m68k-elf/m68k-elf/lib/m68000\liblvgl.a(lv_tabview.o)

.text.button_clicked_event_cb
                0x00029e2e       0x68
 .text.button_clicked_event_cb
                0x00029e2e       0x68 C:/SysGCC/m68k-elf/m68k-elf/lib/m68000\liblvgl.a(lv_tabview.o)

.text.lv_tabview_add_tab
                0x00029e96       0xf2
 .text.lv_tabview_add_tab
                0x00029e96       0xf2 C:/SysGCC/m68k-elf/m68k-elf/lib/m68000\liblvgl.a(lv_tabview.o)
                0x00029e96                lv_tabview_add_tab

.text.lv_tabview_get_tab_bar_position
                0x00029f88        0xa
 .text.lv_tabview_get_tab_bar_position
                0x00029f88        0xa C:/SysGCC/m68k-elf/m68k-elf/lib/m68000\liblvgl.a(lv_tabview.o)
                0x00029f88                lv_tabview_get_tab_bar_position

.text.pwd_char_hider_anim
                0x00029f92        0x2
 .text.pwd_char_hider_anim
                0x00029f92        0x2 C:/SysGCC/m68k-elf/m68k-elf/lib/m68000\liblvgl.a(lv_textarea.o)

.text.cursor_blink_anim_cb
                0x00029f94       0x76
 .text.cursor_blink_anim_cb
                0x00029f94       0x76 C:/SysGCC/m68k-elf/m68k-elf/lib/m68000\liblvgl.a(lv_textarea.o)

.text.lv_textarea_destructor
                0x0002a00a       0x46
 .text.lv_textarea_destructor
                0x0002a00a       0x46 C:/SysGCC/m68k-elf/m68k-elf/lib/m68000\liblvgl.a(lv_textarea.o)

.text.start_cursor_blink
                0x0002a050       0xbc
 .text.start_cursor_blink
                0x0002a050       0xbc C:/SysGCC/m68k-elf/m68k-elf/lib/m68000\liblvgl.a(lv_textarea.o)

.text.lv_obj_get_style_text_font.constprop.11
                0x0002a10c       0x20
 .text.lv_obj_get_style_text_font.constprop.11
                0x0002a10c       0x20 C:/SysGCC/m68k-elf/m68k-elf/lib/m68000\liblvgl.a(lv_textarea.o)

.text.draw_cursor
                0x0002a12c      0x1da
 .text.draw_cursor
                0x0002a12c      0x1da C:/SysGCC/m68k-elf/m68k-elf/lib/m68000\liblvgl.a(lv_textarea.o)

.text.refr_cursor_area
                0x0002a306      0x29c
 .text.refr_cursor_area
                0x0002a306      0x29c C:/SysGCC/m68k-elf/m68k-elf/lib/m68000\liblvgl.a(lv_textarea.o)

.text.lv_textarea_scroll_to_cusor_pos
                0x0002a5a2      0x110
 .text.lv_textarea_scroll_to_cusor_pos
                0x0002a5a2      0x110 C:/SysGCC/m68k-elf/m68k-elf/lib/m68000\liblvgl.a(lv_textarea.o)

.text.label_event_cb
                0x0002a6b2       0x5e
 .text.label_event_cb
                0x0002a6b2       0x5e C:/SysGCC/m68k-elf/m68k-elf/lib/m68000\liblvgl.a(lv_textarea.o)

.text.lv_textarea_create
                0x0002a710       0x28
 .text.lv_textarea_create
                0x0002a710       0x28 C:/SysGCC/m68k-elf/m68k-elf/lib/m68000\liblvgl.a(lv_textarea.o)
                0x0002a710                lv_textarea_create

.text.lv_textarea_set_placeholder_text
                0x0002a738       0x70
 .text.lv_textarea_set_placeholder_text
                0x0002a738       0x70 C:/SysGCC/m68k-elf/m68k-elf/lib/m68000\liblvgl.a(lv_textarea.o)
                0x0002a738                lv_textarea_set_placeholder_text

.text.lv_textarea_set_cursor_pos
                0x0002a7a8       0x64
 .text.lv_textarea_set_cursor_pos
                0x0002a7a8       0x64 C:/SysGCC/m68k-elf/m68k-elf/lib/m68000\liblvgl.a(lv_textarea.o)
                0x0002a7a8                lv_textarea_set_cursor_pos

.text.lv_textarea_constructor
                0x0002a80c       0xe0
 .text.lv_textarea_constructor
                0x0002a80c       0xe0 C:/SysGCC/m68k-elf/m68k-elf/lib/m68000\liblvgl.a(lv_textarea.o)

.text.lv_textarea_set_cursor_click_pos
                0x0002a8ec       0x1e
 .text.lv_textarea_set_cursor_click_pos
                0x0002a8ec       0x1e C:/SysGCC/m68k-elf/m68k-elf/lib/m68000\liblvgl.a(lv_textarea.o)
                0x0002a8ec                lv_textarea_set_cursor_click_pos

.text.lv_textarea_set_one_line
                0x0002a90a       0xb6
 .text.lv_textarea_set_one_line
                0x0002a90a       0xb6 C:/SysGCC/m68k-elf/m68k-elf/lib/m68000\liblvgl.a(lv_textarea.o)
                0x0002a90a                lv_textarea_set_one_line

.text.lv_textarea_set_accepted_chars
                0x0002a9c0        0xc
 .text.lv_textarea_set_accepted_chars
                0x0002a9c0        0xc C:/SysGCC/m68k-elf/m68k-elf/lib/m68000\liblvgl.a(lv_textarea.o)
                0x0002a9c0                lv_textarea_set_accepted_chars

.text.lv_textarea_set_max_length
                0x0002a9cc        0xc
 .text.lv_textarea_set_max_length
                0x0002a9cc        0xc C:/SysGCC/m68k-elf/m68k-elf/lib/m68000\liblvgl.a(lv_textarea.o)
                0x0002a9cc                lv_textarea_set_max_length

.text.lv_textarea_set_insert_replace
                0x0002a9d8        0xa
 .text.lv_textarea_set_insert_replace
                0x0002a9d8        0xa C:/SysGCC/m68k-elf/m68k-elf/lib/m68000\liblvgl.a(lv_textarea.o)
                0x0002a9d8                lv_textarea_set_insert_replace

.text.lv_textarea_set_align
                0x0002a9e2       0x5c
 .text.lv_textarea_set_align
                0x0002a9e2       0x5c C:/SysGCC/m68k-elf/m68k-elf/lib/m68000\liblvgl.a(lv_textarea.o)
                0x0002a9e2                lv_textarea_set_align

.text.lv_textarea_get_text
                0x0002aa3e       0x1e
 .text.lv_textarea_get_text
                0x0002aa3e       0x1e C:/SysGCC/m68k-elf/m68k-elf/lib/m68000\liblvgl.a(lv_textarea.o)
                0x0002aa3e                lv_textarea_get_text

.text.lv_textarea_get_placeholder_text
                0x0002aa5c       0x12
 .text.lv_textarea_get_placeholder_text
                0x0002aa5c       0x12 C:/SysGCC/m68k-elf/m68k-elf/lib/m68000\liblvgl.a(lv_textarea.o)
                0x0002aa5c                lv_textarea_get_placeholder_text

.text.lv_textarea_get_label
                0x0002aa6e        0xa
 .text.lv_textarea_get_label
                0x0002aa6e        0xa C:/SysGCC/m68k-elf/m68k-elf/lib/m68000\liblvgl.a(lv_textarea.o)
                0x0002aa6e                lv_textarea_get_label

.text.lv_textarea_get_cursor_pos
                0x0002aa78        0xa
 .text.lv_textarea_get_cursor_pos
                0x0002aa78        0xa C:/SysGCC/m68k-elf/m68k-elf/lib/m68000\liblvgl.a(lv_textarea.o)
                0x0002aa78                lv_textarea_get_cursor_pos

.text.lv_textarea_get_cursor_click_pos
                0x0002aa82       0x10
 .text.lv_textarea_get_cursor_click_pos
                0x0002aa82       0x10 C:/SysGCC/m68k-elf/m68k-elf/lib/m68000\liblvgl.a(lv_textarea.o)
                0x0002aa82                lv_textarea_get_cursor_click_pos

.text.lv_textarea_get_password_mode
                0x0002aa92       0x10
 .text.lv_textarea_get_password_mode
                0x0002aa92       0x10 C:/SysGCC/m68k-elf/m68k-elf/lib/m68000\liblvgl.a(lv_textarea.o)
                0x0002aa92                lv_textarea_get_password_mode

.text.lv_textarea_get_password_bullet
                0x0002aaa2       0x42
 .text.lv_textarea_get_password_bullet
                0x0002aaa2       0x42 C:/SysGCC/m68k-elf/m68k-elf/lib/m68000\liblvgl.a(lv_textarea.o)
                0x0002aaa2                lv_textarea_get_password_bullet

.text.pwd_char_hider
                0x0002aae4       0xbc
 .text.pwd_char_hider
                0x0002aae4       0xbc C:/SysGCC/m68k-elf/m68k-elf/lib/m68000\liblvgl.a(lv_textarea.o)

.text.auto_hide_characters
                0x0002aba0       0x92
 .text.auto_hide_characters
                0x0002aba0       0x92 C:/SysGCC/m68k-elf/m68k-elf/lib/m68000\liblvgl.a(lv_textarea.o)

.text.pwd_char_hider_anim_completed
                0x0002ac32        0xe
 .text.pwd_char_hider_anim_completed
                0x0002ac32        0xe C:/SysGCC/m68k-elf/m68k-elf/lib/m68000\liblvgl.a(lv_textarea.o)

.text.lv_textarea_set_password_bullet
                0x0002ac40       0x72
 .text.lv_textarea_set_password_bullet
                0x0002ac40       0x72 C:/SysGCC/m68k-elf/m68k-elf/lib/m68000\liblvgl.a(lv_textarea.o)
                0x0002ac40                lv_textarea_set_password_bullet

.text.lv_textarea_set_password_show_time
                0x0002acb2       0x10
 .text.lv_textarea_set_password_show_time
                0x0002acb2       0x10 C:/SysGCC/m68k-elf/m68k-elf/lib/m68000\liblvgl.a(lv_textarea.o)
                0x0002acb2                lv_textarea_set_password_show_time

.text.lv_textarea_get_one_line
                0x0002acc2       0x10
 .text.lv_textarea_get_one_line
                0x0002acc2       0x10 C:/SysGCC/m68k-elf/m68k-elf/lib/m68000\liblvgl.a(lv_textarea.o)
                0x0002acc2                lv_textarea_get_one_line

.text.lv_textarea_get_accepted_chars
                0x0002acd2        0xa
 .text.lv_textarea_get_accepted_chars
                0x0002acd2        0xa C:/SysGCC/m68k-elf/m68k-elf/lib/m68000\liblvgl.a(lv_textarea.o)
                0x0002acd2                lv_textarea_get_accepted_chars

.text.lv_textarea_get_max_length
                0x0002acdc        0xa
 .text.lv_textarea_get_max_length
                0x0002acdc        0xa C:/SysGCC/m68k-elf/m68k-elf/lib/m68000\liblvgl.a(lv_textarea.o)
                0x0002acdc                lv_textarea_get_max_length

.text.lv_textarea_text_is_selected
                0x0002ace6       0x38
 .text.lv_textarea_text_is_selected
                0x0002ace6       0x38 C:/SysGCC/m68k-elf/m68k-elf/lib/m68000\liblvgl.a(lv_textarea.o)
                0x0002ace6                lv_textarea_text_is_selected

.text.lv_textarea_get_text_selection
                0x0002ad1e       0x10
 .text.lv_textarea_get_text_selection
                0x0002ad1e       0x10 C:/SysGCC/m68k-elf/m68k-elf/lib/m68000\liblvgl.a(lv_textarea.o)
                0x0002ad1e                lv_textarea_get_text_selection

.text.lv_textarea_get_password_show_time
                0x0002ad2e        0xa
 .text.lv_textarea_get_password_show_time
                0x0002ad2e        0xa C:/SysGCC/m68k-elf/m68k-elf/lib/m68000\liblvgl.a(lv_textarea.o)
                0x0002ad2e                lv_textarea_get_password_show_time

.text.lv_textarea_get_current_char
                0x0002ad38       0x54
 .text.lv_textarea_get_current_char
                0x0002ad38       0x54 C:/SysGCC/m68k-elf/m68k-elf/lib/m68000\liblvgl.a(lv_textarea.o)
                0x0002ad38                lv_textarea_get_current_char

.text.lv_textarea_clear_selection
                0x0002ad8c       0x58
 .text.lv_textarea_clear_selection
                0x0002ad8c       0x58 C:/SysGCC/m68k-elf/m68k-elf/lib/m68000\liblvgl.a(lv_textarea.o)
                0x0002ad8c                lv_textarea_clear_selection

.text.lv_textarea_add_char
                0x0002ade4      0x180
 .text.lv_textarea_add_char
                0x0002ade4      0x180 C:/SysGCC/m68k-elf/m68k-elf/lib/m68000\liblvgl.a(lv_textarea.o)
                0x0002ade4                lv_textarea_add_char

.text.lv_textarea_add_text
                0x0002af64      0x138
 .text.lv_textarea_add_text
                0x0002af64      0x138 C:/SysGCC/m68k-elf/m68k-elf/lib/m68000\liblvgl.a(lv_textarea.o)
                0x0002af64                lv_textarea_add_text

.text.insert_handler
                0x0002b09c       0x60
 .text.insert_handler
                0x0002b09c       0x60 C:/SysGCC/m68k-elf/m68k-elf/lib/m68000\liblvgl.a(lv_textarea.o)

.text.lv_textarea_delete_char
                0x0002b0fc       0xf8
 .text.lv_textarea_delete_char
                0x0002b0fc       0xf8 C:/SysGCC/m68k-elf/m68k-elf/lib/m68000\liblvgl.a(lv_textarea.o)
                0x0002b0fc                lv_textarea_delete_char

.text.lv_textarea_delete_char_forward
                0x0002b1f4       0x34
 .text.lv_textarea_delete_char_forward
                0x0002b1f4       0x34 C:/SysGCC/m68k-elf/m68k-elf/lib/m68000\liblvgl.a(lv_textarea.o)
                0x0002b1f4                lv_textarea_delete_char_forward

.text.lv_textarea_set_text
                0x0002b228      0x10a
 .text.lv_textarea_set_text
                0x0002b228      0x10a C:/SysGCC/m68k-elf/m68k-elf/lib/m68000\liblvgl.a(lv_textarea.o)
                0x0002b228                lv_textarea_set_text

.text.lv_textarea_set_password_mode
                0x0002b332       0xaa
 .text.lv_textarea_set_password_mode
                0x0002b332       0xaa C:/SysGCC/m68k-elf/m68k-elf/lib/m68000\liblvgl.a(lv_textarea.o)
                0x0002b332                lv_textarea_set_password_mode

.text.lv_textarea_set_text_selection
                0x0002b3dc       0x30
 .text.lv_textarea_set_text_selection
                0x0002b3dc       0x30 C:/SysGCC/m68k-elf/m68k-elf/lib/m68000\liblvgl.a(lv_textarea.o)
                0x0002b3dc                lv_textarea_set_text_selection

.text.lv_textarea_cursor_right
                0x0002b40c       0x18
 .text.lv_textarea_cursor_right
                0x0002b40c       0x18 C:/SysGCC/m68k-elf/m68k-elf/lib/m68000\liblvgl.a(lv_textarea.o)
                0x0002b40c                lv_textarea_cursor_right

.text.lv_textarea_cursor_left
                0x0002b424       0x1e
 .text.lv_textarea_cursor_left
                0x0002b424       0x1e C:/SysGCC/m68k-elf/m68k-elf/lib/m68000\liblvgl.a(lv_textarea.o)
                0x0002b424                lv_textarea_cursor_left

.text.lv_textarea_cursor_down
                0x0002b442       0x9e
 .text.lv_textarea_cursor_down
                0x0002b442       0x9e C:/SysGCC/m68k-elf/m68k-elf/lib/m68000\liblvgl.a(lv_textarea.o)
                0x0002b442                lv_textarea_cursor_down

.text.lv_textarea_cursor_up
                0x0002b4e0       0x8a
 .text.lv_textarea_cursor_up
                0x0002b4e0       0x8a C:/SysGCC/m68k-elf/m68k-elf/lib/m68000\liblvgl.a(lv_textarea.o)
                0x0002b4e0                lv_textarea_cursor_up

.text.lv_textarea_event
                0x0002b56a      0x45e
 .text.lv_textarea_event
                0x0002b56a      0x45e C:/SysGCC/m68k-elf/m68k-elf/lib/m68000\liblvgl.a(lv_textarea.o)

.text.lv_tileview_constructor
                0x0002b9c8       0x5e
 .text.lv_tileview_constructor
                0x0002b9c8       0x5e C:/SysGCC/m68k-elf/m68k-elf/lib/m68000\liblvgl.a(lv_tileview.o)

.text.tileview_event_cb
                0x0002ba26      0x128
 .text.tileview_event_cb
                0x0002ba26      0x128 C:/SysGCC/m68k-elf/m68k-elf/lib/m68000\liblvgl.a(lv_tileview.o)

.text.lv_tileview_tile_constructor
                0x0002bb4e       0x2a
 .text.lv_tileview_tile_constructor
                0x0002bb4e       0x2a C:/SysGCC/m68k-elf/m68k-elf/lib/m68000\liblvgl.a(lv_tileview.o)

.text.lv_tileview_create
                0x0002bb78       0x28
 .text.lv_tileview_create
                0x0002bb78       0x28 C:/SysGCC/m68k-elf/m68k-elf/lib/m68000\liblvgl.a(lv_tileview.o)
                0x0002bb78                lv_tileview_create

.text.lv_tileview_add_tile
                0x0002bba0       0x80
 .text.lv_tileview_add_tile
                0x0002bba0       0x80 C:/SysGCC/m68k-elf/m68k-elf/lib/m68000\liblvgl.a(lv_tileview.o)
                0x0002bba0                lv_tileview_add_tile

.text.lv_tileview_set_tile
                0x0002bc20       0x52
 .text.lv_tileview_set_tile
                0x0002bc20       0x52 C:/SysGCC/m68k-elf/m68k-elf/lib/m68000\liblvgl.a(lv_tileview.o)
                0x0002bc20                lv_tileview_set_tile

.text.lv_tileview_set_tile_by_index
                0x0002bc72       0xb4
 .text.lv_tileview_set_tile_by_index
                0x0002bc72       0xb4 C:/SysGCC/m68k-elf/m68k-elf/lib/m68000\liblvgl.a(lv_tileview.o)
                0x0002bc72                lv_tileview_set_tile_by_index

.text.lv_tileview_get_tile_active
                0x0002bd26        0xa
 .text.lv_tileview_get_tile_active
                0x0002bd26        0xa C:/SysGCC/m68k-elf/m68k-elf/lib/m68000\liblvgl.a(lv_tileview.o)
                0x0002bd26                lv_tileview_get_tile_active

.text.lv_win_constructor
                0x0002bd30       0xbc
 .text.lv_win_constructor
                0x0002bd30       0xbc C:/SysGCC/m68k-elf/m68k-elf/lib/m68000\liblvgl.a(lv_win.o)

.text.lv_win_create
                0x0002bdec       0x28
 .text.lv_win_create
                0x0002bdec       0x28 C:/SysGCC/m68k-elf/m68k-elf/lib/m68000\liblvgl.a(lv_win.o)
                0x0002bdec                lv_win_create

.text.lv_win_get_header
                0x0002be14       0x10
 .text.lv_win_get_header
                0x0002be14       0x10 C:/SysGCC/m68k-elf/m68k-elf/lib/m68000\liblvgl.a(lv_win.o)
                0x0002be14                lv_win_get_header

.text.lv_win_add_title
                0x0002be24       0x44
 .text.lv_win_add_title
                0x0002be24       0x44 C:/SysGCC/m68k-elf/m68k-elf/lib/m68000\liblvgl.a(lv_win.o)
                0x0002be24                lv_win_add_title

.text.lv_win_add_button
                0x0002be68       0x66
 .text.lv_win_add_button
                0x0002be68       0x66 C:/SysGCC/m68k-elf/m68k-elf/lib/m68000\liblvgl.a(lv_win.o)
                0x0002be68                lv_win_add_button

.text.lv_win_get_content
                0x0002bece       0x12
 .text.lv_win_get_content
                0x0002bece       0x12 C:/SysGCC/m68k-elf/m68k-elf/lib/m68000\liblvgl.a(lv_win.o)
                0x0002bece                lv_win_get_content

.text.get_indev
                0x0002bee0       0x52
 .text.get_indev
                0x0002bee0       0x52 C:/SysGCC/m68k-elf/m68k-elf/lib/m68000\liblvgl.a(lv_group.o)

.text.focus_next_core.part.0
                0x0002bf32      0x144
 .text.focus_next_core.part.0
                0x0002bf32      0x144 C:/SysGCC/m68k-elf/m68k-elf/lib/m68000\liblvgl.a(lv_group.o)

.text.lv_group_init
                0x0002c076       0x14
 .text.lv_group_init
                0x0002c076       0x14 C:/SysGCC/m68k-elf/m68k-elf/lib/m68000\liblvgl.a(lv_group.o)
                0x0002c076                lv_group_init

.text.lv_group_deinit
                0x0002c08a       0x10
 .text.lv_group_deinit
                0x0002c08a       0x10 C:/SysGCC/m68k-elf/m68k-elf/lib/m68000\liblvgl.a(lv_group.o)
                0x0002c08a                lv_group_deinit

.text.lv_group_create
                0x0002c09a       0x4a
 .text.lv_group_create
                0x0002c09a       0x4a C:/SysGCC/m68k-elf/m68k-elf/lib/m68000\liblvgl.a(lv_group.o)
                0x0002c09a                lv_group_create

.text.lv_group_delete
                0x0002c0e4       0xd8
 .text.lv_group_delete
                0x0002c0e4       0xd8 C:/SysGCC/m68k-elf/m68k-elf/lib/m68000\liblvgl.a(lv_group.o)
                0x0002c0e4                lv_group_delete

.text.lv_group_set_default
                0x0002c1bc        0xa
 .text.lv_group_set_default
                0x0002c1bc        0xa C:/SysGCC/m68k-elf/m68k-elf/lib/m68000\liblvgl.a(lv_group.o)
                0x0002c1bc                lv_group_set_default

.text.lv_group_get_default
                0x0002c1c6        0x8
 .text.lv_group_get_default
                0x0002c1c6        0x8 C:/SysGCC/m68k-elf/m68k-elf/lib/m68000\liblvgl.a(lv_group.o)
                0x0002c1c6                lv_group_get_default

.text.lv_group_remove_all_objs
                0x0002c1ce       0x7a
 .text.lv_group_remove_all_objs
                0x0002c1ce       0x7a C:/SysGCC/m68k-elf/m68k-elf/lib/m68000\liblvgl.a(lv_group.o)
                0x0002c1ce                lv_group_remove_all_objs

.text.lv_group_focus_next
                0x0002c248       0x44
 .text.lv_group_focus_next
                0x0002c248       0x44 C:/SysGCC/m68k-elf/m68k-elf/lib/m68000\liblvgl.a(lv_group.o)
                0x0002c248                lv_group_focus_next

.text.lv_group_focus_prev
                0x0002c28c       0x42
 .text.lv_group_focus_prev
                0x0002c28c       0x42 C:/SysGCC/m68k-elf/m68k-elf/lib/m68000\liblvgl.a(lv_group.o)
                0x0002c28c                lv_group_focus_prev

.text.lv_group_refocus
                0x0002c2ce       0x50
 .text.lv_group_refocus
                0x0002c2ce       0x50 C:/SysGCC/m68k-elf/m68k-elf/lib/m68000\liblvgl.a(lv_group.o)

.text.lv_group_remove_obj
                0x0002c31e       0xe2
 .text.lv_group_remove_obj
                0x0002c31e       0xe2 C:/SysGCC/m68k-elf/m68k-elf/lib/m68000\liblvgl.a(lv_group.o)
                0x0002c31e                lv_group_remove_obj

.text.lv_group_add_obj
                0x0002c400       0x64
 .text.lv_group_add_obj
                0x0002c400       0x64 C:/SysGCC/m68k-elf/m68k-elf/lib/m68000\liblvgl.a(lv_group.o)
                0x0002c400                lv_group_add_obj

.text.lv_group_focus_freeze
                0x0002c464       0x1e
 .text.lv_group_focus_freeze
                0x0002c464       0x1e C:/SysGCC/m68k-elf/m68k-elf/lib/m68000\liblvgl.a(lv_group.o)
                0x0002c464                lv_group_focus_freeze

.text.lv_group_set_focus_cb
                0x0002c482       0x12
 .text.lv_group_set_focus_cb
                0x0002c482       0x12 C:/SysGCC/m68k-elf/m68k-elf/lib/m68000\liblvgl.a(lv_group.o)
                0x0002c482                lv_group_set_focus_cb

.text.lv_group_set_edge_cb
                0x0002c494        0xc
 .text.lv_group_set_edge_cb
                0x0002c494        0xc C:/SysGCC/m68k-elf/m68k-elf/lib/m68000\liblvgl.a(lv_group.o)
                0x0002c494                lv_group_set_edge_cb

.text.lv_group_set_refocus_policy
                0x0002c4a0       0x1e
 .text.lv_group_set_refocus_policy
                0x0002c4a0       0x1e C:/SysGCC/m68k-elf/m68k-elf/lib/m68000\liblvgl.a(lv_group.o)
                0x0002c4a0                lv_group_set_refocus_policy

.text.lv_group_set_wrap
                0x0002c4be       0x1e
 .text.lv_group_set_wrap
                0x0002c4be       0x1e C:/SysGCC/m68k-elf/m68k-elf/lib/m68000\liblvgl.a(lv_group.o)
                0x0002c4be                lv_group_set_wrap

.text.lv_group_get_focused
                0x0002c4dc       0x1c
 .text.lv_group_get_focused
                0x0002c4dc       0x1c C:/SysGCC/m68k-elf/m68k-elf/lib/m68000\liblvgl.a(lv_group.o)
                0x0002c4dc                lv_group_get_focused

.text.lv_group_send_data
                0x0002c4f8       0x48
 .text.lv_group_send_data
                0x0002c4f8       0x48 C:/SysGCC/m68k-elf/m68k-elf/lib/m68000\liblvgl.a(lv_group.o)
                0x0002c4f8                lv_group_send_data

.text.lv_group_set_editing
                0x0002c540       0x72
 .text.lv_group_set_editing
                0x0002c540       0x72 C:/SysGCC/m68k-elf/m68k-elf/lib/m68000\liblvgl.a(lv_group.o)
                0x0002c540                lv_group_set_editing

.text.lv_group_focus_obj
                0x0002c5b2       0xec
 .text.lv_group_focus_obj
                0x0002c5b2       0xec C:/SysGCC/m68k-elf/m68k-elf/lib/m68000\liblvgl.a(lv_group.o)
                0x0002c5b2                lv_group_focus_obj

.text.lv_group_swap_obj
                0x0002c69e       0x86
 .text.lv_group_swap_obj
                0x0002c69e       0x86 C:/SysGCC/m68k-elf/m68k-elf/lib/m68000\liblvgl.a(lv_group.o)
                0x0002c69e                lv_group_swap_obj

.text.lv_group_get_focus_cb
                0x0002c724       0x14
 .text.lv_group_get_focus_cb
                0x0002c724       0x14 C:/SysGCC/m68k-elf/m68k-elf/lib/m68000\liblvgl.a(lv_group.o)
                0x0002c724                lv_group_get_focus_cb

.text.lv_group_get_edge_cb
                0x0002c738       0x14
 .text.lv_group_get_edge_cb
                0x0002c738       0x14 C:/SysGCC/m68k-elf/m68k-elf/lib/m68000\liblvgl.a(lv_group.o)
                0x0002c738                lv_group_get_edge_cb

.text.lv_group_get_editing
                0x0002c74c       0x1a
 .text.lv_group_get_editing
                0x0002c74c       0x1a C:/SysGCC/m68k-elf/m68k-elf/lib/m68000\liblvgl.a(lv_group.o)
                0x0002c74c                lv_group_get_editing

.text.lv_group_get_wrap
                0x0002c766       0x1a
 .text.lv_group_get_wrap
                0x0002c766       0x1a C:/SysGCC/m68k-elf/m68k-elf/lib/m68000\liblvgl.a(lv_group.o)
                0x0002c766                lv_group_get_wrap

.text.lv_group_get_obj_count
                0x0002c780        0x6
 .text.lv_group_get_obj_count
                0x0002c780        0x6 C:/SysGCC/m68k-elf/m68k-elf/lib/m68000\liblvgl.a(lv_group.o)
                0x0002c780                lv_group_get_obj_count

.text.lv_group_get_obj_by_index
                0x0002c786       0x3c
 .text.lv_group_get_obj_by_index
                0x0002c786       0x3c C:/SysGCC/m68k-elf/m68k-elf/lib/m68000\liblvgl.a(lv_group.o)
                0x0002c786                lv_group_get_obj_by_index

.text.lv_group_get_count
                0x0002c7c2       0x10
 .text.lv_group_get_count
                0x0002c7c2       0x10 C:/SysGCC/m68k-elf/m68k-elf/lib/m68000\liblvgl.a(lv_group.o)
                0x0002c7c2                lv_group_get_count

.text.lv_group_by_index
                0x0002c7d2       0x3a
 .text.lv_group_by_index
                0x0002c7d2       0x3a C:/SysGCC/m68k-elf/m68k-elf/lib/m68000\liblvgl.a(lv_group.o)
                0x0002c7d2                lv_group_by_index

.text.lv_group_set_user_data
                0x0002c80c       0x12
 .text.lv_group_set_user_data
                0x0002c80c       0x12 C:/SysGCC/m68k-elf/m68k-elf/lib/m68000\liblvgl.a(lv_group.o)
                0x0002c80c                lv_group_set_user_data

.text.lv_group_get_user_data
                0x0002c81e       0x14
 .text.lv_group_get_user_data
                0x0002c81e       0x14 C:/SysGCC/m68k-elf/m68k-elf/lib/m68000\liblvgl.a(lv_group.o)
                0x0002c81e                lv_group_get_user_data

.text.null_on_delete_cb
                0x0002c832       0x12
 .text.null_on_delete_cb
                0x0002c832       0x12 C:/SysGCC/m68k-elf/m68k-elf/lib/m68000\liblvgl.a(lv_obj.o)

.text.screen_load_on_trigger_event_cb
                0x0002c844       0x28
 .text.screen_load_on_trigger_event_cb
                0x0002c844       0x28 C:/SysGCC/m68k-elf/m68k-elf/lib/m68000\liblvgl.a(lv_obj.o)

.text.screen_create_on_trigger_event_cb
                0x0002c86c       0x4a
 .text.screen_create_on_trigger_event_cb
                0x0002c86c       0x4a C:/SysGCC/m68k-elf/m68k-elf/lib/m68000\liblvgl.a(lv_obj.o)

.text.delete_on_screen_unloaded_event_cb
                0x0002c8b6       0x16
 .text.delete_on_screen_unloaded_event_cb
                0x0002c8b6       0x16 C:/SysGCC/m68k-elf/m68k-elf/lib/m68000\liblvgl.a(lv_obj.o)

.text.play_timeline_on_trigger_event_cb
                0x0002c8cc       0x9c
 .text.play_timeline_on_trigger_event_cb
                0x0002c8cc       0x9c C:/SysGCC/m68k-elf/m68k-elf/lib/m68000\liblvgl.a(lv_obj.o)

.text.obj_valid_child.isra.1
                0x0002c968       0x52
 .text.obj_valid_child.isra.1
                0x0002c968       0x52 C:/SysGCC/m68k-elf/m68k-elf/lib/m68000\liblvgl.a(lv_obj.o)

.text.lv_obj_constructor
                0x0002c9ba       0xae
 .text.lv_obj_constructor
                0x0002c9ba       0xae C:/SysGCC/m68k-elf/m68k-elf/lib/m68000\liblvgl.a(lv_obj.o)

.text.update_obj_state
                0x0002ca68      0x25e
 .text.update_obj_state
                0x0002ca68      0x25e C:/SysGCC/m68k-elf/m68k-elf/lib/m68000\liblvgl.a(lv_obj.o)

.text.lv_obj_draw
                0x0002ccc6      0x67e
 .text.lv_obj_draw
                0x0002ccc6      0x67e C:/SysGCC/m68k-elf/m68k-elf/lib/m68000\liblvgl.a(lv_obj.o)

.text.lv_obj_create
                0x0002d344       0x2c
 .text.lv_obj_create
                0x0002d344       0x2c C:/SysGCC/m68k-elf/m68k-elf/lib/m68000\liblvgl.a(lv_obj.o)
                0x0002d344                lv_obj_create

.text.lv_obj_remove_flag
                0x0002d370       0xb8
 .text.lv_obj_remove_flag
                0x0002d370       0xb8 C:/SysGCC/m68k-elf/m68k-elf/lib/m68000\liblvgl.a(lv_obj.o)
                0x0002d370                lv_obj_remove_flag

.text.lv_obj_add_state
                0x0002d428       0x68
 .text.lv_obj_add_state
                0x0002d428       0x68 C:/SysGCC/m68k-elf/m68k-elf/lib/m68000\liblvgl.a(lv_obj.o)
                0x0002d428                lv_obj_add_state

.text.lv_obj_remove_state
                0x0002d490       0x6a
 .text.lv_obj_remove_state
                0x0002d490       0x6a C:/SysGCC/m68k-elf/m68k-elf/lib/m68000\liblvgl.a(lv_obj.o)
                0x0002d490                lv_obj_remove_state

.text.lv_obj_set_state
                0x0002d4fa       0x22
 .text.lv_obj_set_state
                0x0002d4fa       0x22 C:/SysGCC/m68k-elf/m68k-elf/lib/m68000\liblvgl.a(lv_obj.o)
                0x0002d4fa                lv_obj_set_state

.text.lv_obj_has_flag
                0x0002d51c       0x16
 .text.lv_obj_has_flag
                0x0002d51c       0x16 C:/SysGCC/m68k-elf/m68k-elf/lib/m68000\liblvgl.a(lv_obj.o)
                0x0002d51c                lv_obj_has_flag

.text.lv_obj_has_flag_any
                0x0002d532       0x12
 .text.lv_obj_has_flag_any
                0x0002d532       0x12 C:/SysGCC/m68k-elf/m68k-elf/lib/m68000\liblvgl.a(lv_obj.o)
                0x0002d532                lv_obj_has_flag_any

.text.lv_obj_get_state
                0x0002d544        0xc
 .text.lv_obj_get_state
                0x0002d544        0xc C:/SysGCC/m68k-elf/m68k-elf/lib/m68000\liblvgl.a(lv_obj.o)
                0x0002d544                lv_obj_get_state

.text.lv_obj_has_state
                0x0002d550       0x14
 .text.lv_obj_has_state
                0x0002d550       0x14 C:/SysGCC/m68k-elf/m68k-elf/lib/m68000\liblvgl.a(lv_obj.o)
                0x0002d550                lv_obj_has_state

.text.lv_obj_get_group
                0x0002d564       0x18
 .text.lv_obj_get_group
                0x0002d564       0x18 C:/SysGCC/m68k-elf/m68k-elf/lib/m68000\liblvgl.a(lv_obj.o)
                0x0002d564                lv_obj_get_group

.text.lv_obj_event
                0x0002d57c      0x5d6
 .text.lv_obj_event
                0x0002d57c      0x5d6 C:/SysGCC/m68k-elf/m68k-elf/lib/m68000\liblvgl.a(lv_obj.o)

.text.lv_obj_destructor
                0x0002db52       0x8c
 .text.lv_obj_destructor
                0x0002db52       0x8c C:/SysGCC/m68k-elf/m68k-elf/lib/m68000\liblvgl.a(lv_obj.o)

.text.lv_obj_add_flag
                0x0002dbde       0xe0
 .text.lv_obj_add_flag
                0x0002dbde       0xe0 C:/SysGCC/m68k-elf/m68k-elf/lib/m68000\liblvgl.a(lv_obj.o)
                0x0002dbde                lv_obj_add_flag

.text.lv_obj_set_flag
                0x0002dcbe       0x22
 .text.lv_obj_set_flag
                0x0002dcbe       0x22 C:/SysGCC/m68k-elf/m68k-elf/lib/m68000\liblvgl.a(lv_obj.o)
                0x0002dcbe                lv_obj_set_flag

.text.lv_obj_allocate_spec_attr
                0x0002dce0       0x30
 .text.lv_obj_allocate_spec_attr
                0x0002dce0       0x30 C:/SysGCC/m68k-elf/m68k-elf/lib/m68000\liblvgl.a(lv_obj.o)
                0x0002dce0                lv_obj_allocate_spec_attr

.text.lv_obj_check_type
                0x0002dd10       0x1a
 .text.lv_obj_check_type
                0x0002dd10       0x1a C:/SysGCC/m68k-elf/m68k-elf/lib/m68000\liblvgl.a(lv_obj.o)
                0x0002dd10                lv_obj_check_type

.text.lv_obj_has_class
                0x0002dd2a       0x1a
 .text.lv_obj_has_class
                0x0002dd2a       0x1a C:/SysGCC/m68k-elf/m68k-elf/lib/m68000\liblvgl.a(lv_obj.o)
                0x0002dd2a                lv_obj_has_class

.text.lv_obj_get_class
                0x0002dd44        0x8
 .text.lv_obj_get_class
                0x0002dd44        0x8 C:/SysGCC/m68k-elf/m68k-elf/lib/m68000\liblvgl.a(lv_obj.o)
                0x0002dd44                lv_obj_get_class

.text.lv_obj_is_valid
                0x0002dd4c       0x66
 .text.lv_obj_is_valid
                0x0002dd4c       0x66 C:/SysGCC/m68k-elf/m68k-elf/lib/m68000\liblvgl.a(lv_obj.o)
                0x0002dd4c                lv_obj_is_valid

.text.lv_obj_null_on_delete
                0x0002ddb2       0x1e
 .text.lv_obj_null_on_delete
                0x0002ddb2       0x1e C:/SysGCC/m68k-elf/m68k-elf/lib/m68000\liblvgl.a(lv_obj.o)
                0x0002ddb2                lv_obj_null_on_delete

.text.lv_obj_add_screen_load_event
                0x0002ddd0       0x84
 .text.lv_obj_add_screen_load_event
                0x0002ddd0       0x84 C:/SysGCC/m68k-elf/m68k-elf/lib/m68000\liblvgl.a(lv_obj.o)
                0x0002ddd0                lv_obj_add_screen_load_event

.text.lv_obj_add_screen_create_event
                0x0002de54       0x7a
 .text.lv_obj_add_screen_create_event
                0x0002de54       0x7a C:/SysGCC/m68k-elf/m68k-elf/lib/m68000\liblvgl.a(lv_obj.o)
                0x0002de54                lv_obj_add_screen_create_event

.text.lv_obj_add_play_timeline_event
                0x0002dece       0x72
 .text.lv_obj_add_play_timeline_event
                0x0002dece       0x72 C:/SysGCC/m68k-elf/m68k-elf/lib/m68000\liblvgl.a(lv_obj.o)
                0x0002dece                lv_obj_add_play_timeline_event

.text.lv_obj_set_user_data
                0x0002df40        0xc
 .text.lv_obj_set_user_data
                0x0002df40        0xc C:/SysGCC/m68k-elf/m68k-elf/lib/m68000\liblvgl.a(lv_obj.o)
                0x0002df40                lv_obj_set_user_data

.text.lv_obj_get_user_data
                0x0002df4c        0xa
 .text.lv_obj_get_user_data
                0x0002df4c        0xa C:/SysGCC/m68k-elf/m68k-elf/lib/m68000\liblvgl.a(lv_obj.o)
                0x0002df4c                lv_obj_get_user_data

.text.lv_obj_construct
                0x0002df56       0x3e
 .text.lv_obj_construct
                0x0002df56       0x3e C:/SysGCC/m68k-elf/m68k-elf/lib/m68000\liblvgl.a(lv_obj_class.o)

.text.lv_obj_class_create_obj
                0x0002df94      0x12a
 .text.lv_obj_class_create_obj
                0x0002df94      0x12a C:/SysGCC/m68k-elf/m68k-elf/lib/m68000\liblvgl.a(lv_obj_class.o)
                0x0002df94                lv_obj_class_create_obj

.text.lv_obj_destruct
                0x0002e0be       0x28
 .text.lv_obj_destruct
                0x0002e0be       0x28 C:/SysGCC/m68k-elf/m68k-elf/lib/m68000\liblvgl.a(lv_obj_class.o)
                0x0002e0be                lv_obj_destruct

.text.lv_obj_is_editable
                0x0002e0e6       0x24
 .text.lv_obj_is_editable
                0x0002e0e6       0x24 C:/SysGCC/m68k-elf/m68k-elf/lib/m68000\liblvgl.a(lv_obj_class.o)
                0x0002e0e6                lv_obj_is_editable

.text.lv_obj_is_group_def
                0x0002e10a       0x24
 .text.lv_obj_is_group_def
                0x0002e10a       0x24 C:/SysGCC/m68k-elf/m68k-elf/lib/m68000\liblvgl.a(lv_obj_class.o)
                0x0002e10a                lv_obj_is_group_def

.text.lv_obj_class_init_obj
                0x0002e12e       0xbe
 .text.lv_obj_class_init_obj
                0x0002e12e       0xbe C:/SysGCC/m68k-elf/m68k-elf/lib/m68000\liblvgl.a(lv_obj_class.o)
                0x0002e12e                lv_obj_class_init_obj

.text.lv_obj_get_style_drop_shadow_offset_x
                0x0002e1ec       0x22
 .text.lv_obj_get_style_drop_shadow_offset_x
                0x0002e1ec       0x22 C:/SysGCC/m68k-elf/m68k-elf/lib/m68000\liblvgl.a(lv_obj_draw.o)

.text.lv_obj_get_style_drop_shadow_offset_y
                0x0002e20e       0x22
 .text.lv_obj_get_style_drop_shadow_offset_y
                0x0002e20e       0x22 C:/SysGCC/m68k-elf/m68k-elf/lib/m68000\liblvgl.a(lv_obj_draw.o)

.text.lv_obj_get_style_text_color_filtered
                0x0002e230       0x52
 .text.lv_obj_get_style_text_color_filtered
                0x0002e230       0x52 C:/SysGCC/m68k-elf/m68k-elf/lib/m68000\liblvgl.a(lv_obj_draw.o)

.text.get_layer_opa.isra.0
                0x0002e282       0x68
 .text.get_layer_opa.isra.0
                0x0002e282       0x68 C:/SysGCC/m68k-elf/m68k-elf/lib/m68000\liblvgl.a(lv_obj_draw.o)

.text.image_apply_layer_recolor.isra.1
                0x0002e2ea      0x102
 .text.image_apply_layer_recolor.isra.1
                0x0002e2ea      0x102 C:/SysGCC/m68k-elf/m68k-elf/lib/m68000\liblvgl.a(lv_obj_draw.o)

.text.normal_apply_layer_recolor.isra.2
                0x0002e3ec       0xf4
 .text.normal_apply_layer_recolor.isra.2
                0x0002e3ec       0xf4 C:/SysGCC/m68k-elf/m68k-elf/lib/m68000\liblvgl.a(lv_obj_draw.o)

.text.drop_shadow_init
                0x0002e4e0      0x106
 .text.drop_shadow_init
                0x0002e4e0      0x106 C:/SysGCC/m68k-elf/m68k-elf/lib/m68000\liblvgl.a(lv_obj_draw.o)

.text.lv_obj_init_draw_rect_dsc
                0x0002e5e6      0x6c2
 .text.lv_obj_init_draw_rect_dsc
                0x0002e5e6      0x6c2 C:/SysGCC/m68k-elf/m68k-elf/lib/m68000\liblvgl.a(lv_obj_draw.o)
                0x0002e5e6                lv_obj_init_draw_rect_dsc

.text.lv_obj_init_draw_label_dsc
                0x0002eca8      0x160
 .text.lv_obj_init_draw_label_dsc
                0x0002eca8      0x160 C:/SysGCC/m68k-elf/m68k-elf/lib/m68000\liblvgl.a(lv_obj_draw.o)
                0x0002eca8                lv_obj_init_draw_label_dsc

.text.lv_obj_init_draw_image_dsc
                0x0002ee08      0x1c4
 .text.lv_obj_init_draw_image_dsc
                0x0002ee08      0x1c4 C:/SysGCC/m68k-elf/m68k-elf/lib/m68000\liblvgl.a(lv_obj_draw.o)
                0x0002ee08                lv_obj_init_draw_image_dsc

.text.lv_obj_init_draw_line_dsc
                0x0002efcc      0x186
 .text.lv_obj_init_draw_line_dsc
                0x0002efcc      0x186 C:/SysGCC/m68k-elf/m68k-elf/lib/m68000\liblvgl.a(lv_obj_draw.o)
                0x0002efcc                lv_obj_init_draw_line_dsc

.text.lv_obj_init_draw_arc_dsc
                0x0002f152      0x15a
 .text.lv_obj_init_draw_arc_dsc
                0x0002f152      0x15a C:/SysGCC/m68k-elf/m68k-elf/lib/m68000\liblvgl.a(lv_obj_draw.o)
                0x0002f152                lv_obj_init_draw_arc_dsc

.text.lv_obj_init_draw_blur_dsc
                0x0002f2ac       0x70
 .text.lv_obj_init_draw_blur_dsc
                0x0002f2ac       0x70 C:/SysGCC/m68k-elf/m68k-elf/lib/m68000\liblvgl.a(lv_obj_draw.o)
                0x0002f2ac                lv_obj_init_draw_blur_dsc

.text.lv_obj_calculate_ext_draw_size
                0x0002f31c      0x21a
 .text.lv_obj_calculate_ext_draw_size
                0x0002f31c      0x21a C:/SysGCC/m68k-elf/m68k-elf/lib/m68000\liblvgl.a(lv_obj_draw.o)
                0x0002f31c                lv_obj_calculate_ext_draw_size

.text.lv_obj_get_ext_draw_size
                0x0002f536       0x18
 .text.lv_obj_get_ext_draw_size
                0x0002f536       0x18 C:/SysGCC/m68k-elf/m68k-elf/lib/m68000\liblvgl.a(lv_obj_draw.o)
                0x0002f536                lv_obj_get_ext_draw_size

.text.lv_obj_refresh_ext_draw_size
                0x0002f54e       0x72
 .text.lv_obj_refresh_ext_draw_size
                0x0002f54e       0x72 C:/SysGCC/m68k-elf/m68k-elf/lib/m68000\liblvgl.a(lv_obj_draw.o)
                0x0002f54e                lv_obj_refresh_ext_draw_size

.text.lv_obj_get_layer_type
                0x0002f5c0       0x1e
 .text.lv_obj_get_layer_type
                0x0002f5c0       0x1e C:/SysGCC/m68k-elf/m68k-elf/lib/m68000\liblvgl.a(lv_obj_draw.o)
                0x0002f5c0                lv_obj_get_layer_type

.text.lv_obj_event_base
                0x0002f5de       0x48
 .text.lv_obj_event_base
                0x0002f5de       0x48 C:/SysGCC/m68k-elf/m68k-elf/lib/m68000\liblvgl.a(lv_obj_event.o)
                0x0002f5de                lv_obj_event_base

.text.event_send_core
                0x0002f626      0x1d6
 .text.event_send_core
                0x0002f626      0x1d6 C:/SysGCC/m68k-elf/m68k-elf/lib/m68000\liblvgl.a(lv_obj_event.o)

.text.lv_obj_send_event
                0x0002f7fc       0x5e
 .text.lv_obj_send_event
                0x0002f7fc       0x5e C:/SysGCC/m68k-elf/m68k-elf/lib/m68000\liblvgl.a(lv_obj_event.o)
                0x0002f7fc                lv_obj_send_event

.text.lv_obj_add_event_cb
                0x0002f85a       0x3e
 .text.lv_obj_add_event_cb
                0x0002f85a       0x3e C:/SysGCC/m68k-elf/m68k-elf/lib/m68000\liblvgl.a(lv_obj_event.o)
                0x0002f85a                lv_obj_add_event_cb

.text.lv_obj_get_event_count
                0x0002f898       0x1a
 .text.lv_obj_get_event_count
                0x0002f898       0x1a C:/SysGCC/m68k-elf/m68k-elf/lib/m68000\liblvgl.a(lv_obj_event.o)
                0x0002f898                lv_obj_get_event_count

.text.lv_obj_get_event_dsc
                0x0002f8b2       0x1a
 .text.lv_obj_get_event_dsc
                0x0002f8b2       0x1a C:/SysGCC/m68k-elf/m68k-elf/lib/m68000\liblvgl.a(lv_obj_event.o)
                0x0002f8b2                lv_obj_get_event_dsc

.text.lv_obj_remove_event
                0x0002f8cc       0x1a
 .text.lv_obj_remove_event
                0x0002f8cc       0x1a C:/SysGCC/m68k-elf/m68k-elf/lib/m68000\liblvgl.a(lv_obj_event.o)
                0x0002f8cc                lv_obj_remove_event

.text.lv_obj_remove_event_dsc
                0x0002f8e6       0x1a
 .text.lv_obj_remove_event_dsc
                0x0002f8e6       0x1a C:/SysGCC/m68k-elf/m68k-elf/lib/m68000\liblvgl.a(lv_obj_event.o)
                0x0002f8e6                lv_obj_remove_event_dsc

.text.lv_obj_remove_event_cb
                0x0002f900       0x5c
 .text.lv_obj_remove_event_cb
                0x0002f900       0x5c C:/SysGCC/m68k-elf/m68k-elf/lib/m68000\liblvgl.a(lv_obj_event.o)
                0x0002f900                lv_obj_remove_event_cb

.text.lv_obj_remove_event_cb_with_user_data
                0x0002f95c       0x6c
 .text.lv_obj_remove_event_cb_with_user_data
                0x0002f95c       0x6c C:/SysGCC/m68k-elf/m68k-elf/lib/m68000\liblvgl.a(lv_obj_event.o)
                0x0002f95c                lv_obj_remove_event_cb_with_user_data

.text.lv_event_get_current_target_obj
                0x0002f9c8        0x6
 .text.lv_event_get_current_target_obj
                0x0002f9c8        0x6 C:/SysGCC/m68k-elf/m68k-elf/lib/m68000\liblvgl.a(lv_obj_event.o)
                0x0002f9c8                lv_event_get_current_target_obj

.text.lv_event_get_target_obj
                0x0002f9ce        0x6
 .text.lv_event_get_target_obj
                0x0002f9ce        0x6 C:/SysGCC/m68k-elf/m68k-elf/lib/m68000\liblvgl.a(lv_obj_event.o)
                0x0002f9ce                lv_event_get_target_obj

.text.lv_event_get_indev
                0x0002f9d4       0x52
 .text.lv_event_get_indev
                0x0002f9d4       0x52 C:/SysGCC/m68k-elf/m68k-elf/lib/m68000\liblvgl.a(lv_obj_event.o)
                0x0002f9d4                lv_event_get_indev

.text.lv_event_get_layer
                0x0002fa26       0x1a
 .text.lv_event_get_layer
                0x0002fa26       0x1a C:/SysGCC/m68k-elf/m68k-elf/lib/m68000\liblvgl.a(lv_obj_event.o)
                0x0002fa26                lv_event_get_layer

.text.lv_event_get_old_size
                0x0002fa40       0x16
 .text.lv_event_get_old_size
                0x0002fa40       0x16 C:/SysGCC/m68k-elf/m68k-elf/lib/m68000\liblvgl.a(lv_obj_event.o)
                0x0002fa40                lv_event_get_old_size

.text.lv_event_get_key
                0x0002fa56       0x24
 .text.lv_event_get_key
                0x0002fa56       0x24 C:/SysGCC/m68k-elf/m68k-elf/lib/m68000\liblvgl.a(lv_obj_event.o)
                0x0002fa56                lv_event_get_key

.text.lv_event_get_rotary_diff
                0x0002fa7a       0x24
 .text.lv_event_get_rotary_diff
                0x0002fa7a       0x24 C:/SysGCC/m68k-elf/m68k-elf/lib/m68000\liblvgl.a(lv_obj_event.o)
                0x0002fa7a                lv_event_get_rotary_diff

.text.lv_event_get_scroll_anim
                0x0002fa9e       0x16
 .text.lv_event_get_scroll_anim
                0x0002fa9e       0x16 C:/SysGCC/m68k-elf/m68k-elf/lib/m68000\liblvgl.a(lv_obj_event.o)
                0x0002fa9e                lv_event_get_scroll_anim

.text.lv_event_set_ext_draw_size
                0x0002fab4       0x2e
 .text.lv_event_set_ext_draw_size
                0x0002fab4       0x2e C:/SysGCC/m68k-elf/m68k-elf/lib/m68000\liblvgl.a(lv_obj_event.o)
                0x0002fab4                lv_event_set_ext_draw_size

.text.lv_event_get_self_size_info
                0x0002fae2       0x16
 .text.lv_event_get_self_size_info
                0x0002fae2       0x16 C:/SysGCC/m68k-elf/m68k-elf/lib/m68000\liblvgl.a(lv_obj_event.o)
                0x0002fae2                lv_event_get_self_size_info

.text.lv_event_get_hit_test_info
                0x0002faf8       0x16
 .text.lv_event_get_hit_test_info
                0x0002faf8       0x16 C:/SysGCC/m68k-elf/m68k-elf/lib/m68000\liblvgl.a(lv_obj_event.o)
                0x0002faf8                lv_event_get_hit_test_info

.text.lv_event_get_cover_area
                0x0002fb0e       0x22
 .text.lv_event_get_cover_area
                0x0002fb0e       0x22 C:/SysGCC/m68k-elf/m68k-elf/lib/m68000\liblvgl.a(lv_obj_event.o)
                0x0002fb0e                lv_event_get_cover_area

.text.lv_event_set_cover_res
                0x0002fb30       0x28
 .text.lv_event_set_cover_res
                0x0002fb30       0x28 C:/SysGCC/m68k-elf/m68k-elf/lib/m68000\liblvgl.a(lv_obj_event.o)
                0x0002fb30                lv_event_set_cover_res

.text.lv_event_get_draw_task
                0x0002fb58       0x16
 .text.lv_event_get_draw_task
                0x0002fb58       0x16 C:/SysGCC/m68k-elf/m68k-elf/lib/m68000\liblvgl.a(lv_obj_event.o)
                0x0002fb58                lv_event_get_draw_task

.text.lv_event_get_prev_state
                0x0002fb6e       0x24
 .text.lv_event_get_prev_state
                0x0002fb6e       0x24 C:/SysGCC/m68k-elf/m68k-elf/lib/m68000\liblvgl.a(lv_obj_event.o)
                0x0002fb6e                lv_event_get_prev_state

.text.is_transformed
                0x0002fb92       0x30
 .text.is_transformed
                0x0002fb92       0x30 C:/SysGCC/m68k-elf/m68k-elf/lib/m68000\liblvgl.a(lv_obj_pos.o)

.text.invalidate_area_core.part.2
                0x0002fbc2       0x54
 .text.invalidate_area_core.part.2
                0x0002fbc2       0x54 C:/SysGCC/m68k-elf/m68k-elf/lib/m68000\liblvgl.a(lv_obj_pos.o)

.text.lv_obj_get_style_base_dir.constprop.7
                0x0002fc16       0x20
 .text.lv_obj_get_style_base_dir.constprop.7
                0x0002fc16       0x20 C:/SysGCC/m68k-elf/m68k-elf/lib/m68000\liblvgl.a(lv_obj_pos.o)

.text.transform_point_array
                0x0002fc36      0x1c2
 .text.transform_point_array
                0x0002fc36      0x1c2 C:/SysGCC/m68k-elf/m68k-elf/lib/m68000\liblvgl.a(lv_obj_pos.o)

.text.lv_obj_get_style_space_top.constprop.4
                0x0002fdf8       0x5a
 .text.lv_obj_get_style_space_top.constprop.4
                0x0002fdf8       0x5a C:/SysGCC/m68k-elf/m68k-elf/lib/m68000\liblvgl.a(lv_obj_pos.o)

.text.lv_obj_get_style_space_bottom.constprop.3
                0x0002fe52       0x5a
 .text.lv_obj_get_style_space_bottom.constprop.3
                0x0002fe52       0x5a C:/SysGCC/m68k-elf/m68k-elf/lib/m68000\liblvgl.a(lv_obj_pos.o)

.text.lv_obj_get_style_space_right.constprop.5
                0x0002feac       0x5a
 .text.lv_obj_get_style_space_right.constprop.5
                0x0002feac       0x5a C:/SysGCC/m68k-elf/m68k-elf/lib/m68000\liblvgl.a(lv_obj_pos.o)

.text.lv_obj_get_style_space_left.constprop.6
                0x0002ff06       0x5a
 .text.lv_obj_get_style_space_left.constprop.6
                0x0002ff06       0x5a C:/SysGCC/m68k-elf/m68k-elf/lib/m68000\liblvgl.a(lv_obj_pos.o)

.text.lv_obj_set_x
                0x0002ff60       0x54
 .text.lv_obj_set_x
                0x0002ff60       0x54 C:/SysGCC/m68k-elf/m68k-elf/lib/m68000\liblvgl.a(lv_obj_pos.o)
                0x0002ff60                lv_obj_set_x

.text.lv_obj_set_y
                0x0002ffb4       0x54
 .text.lv_obj_set_y
                0x0002ffb4       0x54 C:/SysGCC/m68k-elf/m68k-elf/lib/m68000\liblvgl.a(lv_obj_pos.o)
                0x0002ffb4                lv_obj_set_y

.text.lv_obj_set_pos
                0x00030008       0x2c
 .text.lv_obj_set_pos
                0x00030008       0x2c C:/SysGCC/m68k-elf/m68k-elf/lib/m68000\liblvgl.a(lv_obj_pos.o)
                0x00030008                lv_obj_set_pos

.text.lv_obj_set_width
                0x00030034       0x54
 .text.lv_obj_set_width
                0x00030034       0x54 C:/SysGCC/m68k-elf/m68k-elf/lib/m68000\liblvgl.a(lv_obj_pos.o)
                0x00030034                lv_obj_set_width

.text.lv_obj_set_height
                0x00030088       0x54
 .text.lv_obj_set_height
                0x00030088       0x54 C:/SysGCC/m68k-elf/m68k-elf/lib/m68000\liblvgl.a(lv_obj_pos.o)
                0x00030088                lv_obj_set_height

.text.lv_obj_set_size
                0x000300dc       0x2c
 .text.lv_obj_set_size
                0x000300dc       0x2c C:/SysGCC/m68k-elf/m68k-elf/lib/m68000\liblvgl.a(lv_obj_pos.o)
                0x000300dc                lv_obj_set_size

.text.lv_obj_set_content_width
                0x00030108       0x36
 .text.lv_obj_set_content_width
                0x00030108       0x36 C:/SysGCC/m68k-elf/m68k-elf/lib/m68000\liblvgl.a(lv_obj_pos.o)
                0x00030108                lv_obj_set_content_width

.text.lv_obj_set_content_height
                0x0003013e       0x36
 .text.lv_obj_set_content_height
                0x0003013e       0x36 C:/SysGCC/m68k-elf/m68k-elf/lib/m68000\liblvgl.a(lv_obj_pos.o)
                0x0003013e                lv_obj_set_content_height

.text.lv_obj_is_layout_positioned
                0x00030174       0x58
 .text.lv_obj_is_layout_positioned
                0x00030174       0x58 C:/SysGCC/m68k-elf/m68k-elf/lib/m68000\liblvgl.a(lv_obj_pos.o)
                0x00030174                lv_obj_is_layout_positioned

.text.lv_obj_mark_layout_as_dirty
                0x000301cc       0x36
 .text.lv_obj_mark_layout_as_dirty
                0x000301cc       0x36 C:/SysGCC/m68k-elf/m68k-elf/lib/m68000\liblvgl.a(lv_obj_pos.o)
                0x000301cc                lv_obj_mark_layout_as_dirty

.text.lv_obj_set_layout
                0x00030202       0x28
 .text.lv_obj_set_layout
                0x00030202       0x28 C:/SysGCC/m68k-elf/m68k-elf/lib/m68000\liblvgl.a(lv_obj_pos.o)
                0x00030202                lv_obj_set_layout

.text.lv_obj_set_align
                0x0003022a       0x16
 .text.lv_obj_set_align
                0x0003022a       0x16 C:/SysGCC/m68k-elf/m68k-elf/lib/m68000\liblvgl.a(lv_obj_pos.o)
                0x0003022a                lv_obj_set_align

.text.lv_obj_align
                0x00030240       0x38
 .text.lv_obj_align
                0x00030240       0x38 C:/SysGCC/m68k-elf/m68k-elf/lib/m68000\liblvgl.a(lv_obj_pos.o)
                0x00030240                lv_obj_align

.text.lv_obj_get_coords
                0x00030278       0x20
 .text.lv_obj_get_coords
                0x00030278       0x20 C:/SysGCC/m68k-elf/m68k-elf/lib/m68000\liblvgl.a(lv_obj_pos.o)
                0x00030278                lv_obj_get_coords

.text.lv_obj_get_x
                0x00030298       0x44
 .text.lv_obj_get_x
                0x00030298       0x44 C:/SysGCC/m68k-elf/m68k-elf/lib/m68000\liblvgl.a(lv_obj_pos.o)
                0x00030298                lv_obj_get_x

.text.lv_obj_get_x2
                0x000302dc       0x26
 .text.lv_obj_get_x2
                0x000302dc       0x26 C:/SysGCC/m68k-elf/m68k-elf/lib/m68000\liblvgl.a(lv_obj_pos.o)
                0x000302dc                lv_obj_get_x2

.text.lv_obj_get_y
                0x00030302       0x44
 .text.lv_obj_get_y
                0x00030302       0x44 C:/SysGCC/m68k-elf/m68k-elf/lib/m68000\liblvgl.a(lv_obj_pos.o)
                0x00030302                lv_obj_get_y

.text.lv_obj_get_y2
                0x00030346       0x26
 .text.lv_obj_get_y2
                0x00030346       0x26 C:/SysGCC/m68k-elf/m68k-elf/lib/m68000\liblvgl.a(lv_obj_pos.o)
                0x00030346                lv_obj_get_y2

.text.lv_obj_get_x_aligned
                0x0003036c       0x20
 .text.lv_obj_get_x_aligned
                0x0003036c       0x20 C:/SysGCC/m68k-elf/m68k-elf/lib/m68000\liblvgl.a(lv_obj_pos.o)
                0x0003036c                lv_obj_get_x_aligned

.text.lv_obj_get_y_aligned
                0x0003038c       0x20
 .text.lv_obj_get_y_aligned
                0x0003038c       0x20 C:/SysGCC/m68k-elf/m68k-elf/lib/m68000\liblvgl.a(lv_obj_pos.o)
                0x0003038c                lv_obj_get_y_aligned

.text.lv_obj_get_width
                0x000303ac        0xc
 .text.lv_obj_get_width
                0x000303ac        0xc C:/SysGCC/m68k-elf/m68k-elf/lib/m68000\liblvgl.a(lv_obj_pos.o)
                0x000303ac                lv_obj_get_width

.text.lv_obj_get_height
                0x000303b8        0xc
 .text.lv_obj_get_height
                0x000303b8        0xc C:/SysGCC/m68k-elf/m68k-elf/lib/m68000\liblvgl.a(lv_obj_pos.o)
                0x000303b8                lv_obj_get_height

.text.lv_obj_get_content_width
                0x000303c4       0x34
 .text.lv_obj_get_content_width
                0x000303c4       0x34 C:/SysGCC/m68k-elf/m68k-elf/lib/m68000\liblvgl.a(lv_obj_pos.o)
                0x000303c4                lv_obj_get_content_width

.text.lv_obj_get_content_height
                0x000303f8       0x34
 .text.lv_obj_get_content_height
                0x000303f8       0x34 C:/SysGCC/m68k-elf/m68k-elf/lib/m68000\liblvgl.a(lv_obj_pos.o)
                0x000303f8                lv_obj_get_content_height

.text.lv_obj_get_content_coords
                0x0003042c       0x70
 .text.lv_obj_get_content_coords
                0x0003042c       0x70 C:/SysGCC/m68k-elf/m68k-elf/lib/m68000\liblvgl.a(lv_obj_pos.o)
                0x0003042c                lv_obj_get_content_coords

.text.lv_obj_get_self_width
                0x0003049c       0x2e
 .text.lv_obj_get_self_width
                0x0003049c       0x2e C:/SysGCC/m68k-elf/m68k-elf/lib/m68000\liblvgl.a(lv_obj_pos.o)
                0x0003049c                lv_obj_get_self_width

.text.unlikely.calc_content_width
                0x000304ca      0x2bc
 .text.unlikely.calc_content_width
                0x000304ca      0x2bc C:/SysGCC/m68k-elf/m68k-elf/lib/m68000\liblvgl.a(lv_obj_pos.o)

.text.lv_obj_calc_dynamic_width
                0x00030786      0x10c
 .text.lv_obj_calc_dynamic_width
                0x00030786      0x10c C:/SysGCC/m68k-elf/m68k-elf/lib/m68000\liblvgl.a(lv_obj_pos.o)
                0x00030786                lv_obj_calc_dynamic_width

.text.lv_obj_get_self_height
                0x00030892       0x2e
 .text.lv_obj_get_self_height
                0x00030892       0x2e C:/SysGCC/m68k-elf/m68k-elf/lib/m68000\liblvgl.a(lv_obj_pos.o)
                0x00030892                lv_obj_get_self_height

.text.unlikely.calc_content_height
                0x000308c0      0x180
 .text.unlikely.calc_content_height
                0x000308c0      0x180 C:/SysGCC/m68k-elf/m68k-elf/lib/m68000\liblvgl.a(lv_obj_pos.o)

.text.lv_obj_calc_dynamic_height
                0x00030a40      0x10e
 .text.lv_obj_calc_dynamic_height
                0x00030a40      0x10e C:/SysGCC/m68k-elf/m68k-elf/lib/m68000\liblvgl.a(lv_obj_pos.o)
                0x00030a40                lv_obj_calc_dynamic_height

.text.lv_obj_refresh_self_size
                0x00030b4e       0x60
 .text.lv_obj_refresh_self_size
                0x00030b4e       0x60 C:/SysGCC/m68k-elf/m68k-elf/lib/m68000\liblvgl.a(lv_obj_pos.o)
                0x00030b4e                lv_obj_refresh_self_size

.text.lv_obj_move_children_by
                0x00030bae       0x7e
 .text.lv_obj_move_children_by
                0x00030bae       0x7e C:/SysGCC/m68k-elf/m68k-elf/lib/m68000\liblvgl.a(lv_obj_pos.o)
                0x00030bae                lv_obj_move_children_by

.text.lv_obj_transform_point_array
                0x00030c2c       0xae
 .text.lv_obj_transform_point_array
                0x00030c2c       0xae C:/SysGCC/m68k-elf/m68k-elf/lib/m68000\liblvgl.a(lv_obj_pos.o)
                0x00030c2c                lv_obj_transform_point_array

.text.lv_obj_transform_point
                0x00030cda       0x1c
 .text.lv_obj_transform_point
                0x00030cda       0x1c C:/SysGCC/m68k-elf/m68k-elf/lib/m68000\liblvgl.a(lv_obj_pos.o)
                0x00030cda                lv_obj_transform_point

.text.lv_obj_get_transformed_area
                0x00030cf6       0xe6
 .text.lv_obj_get_transformed_area
                0x00030cf6       0xe6 C:/SysGCC/m68k-elf/m68k-elf/lib/m68000\liblvgl.a(lv_obj_pos.o)
                0x00030cf6                lv_obj_get_transformed_area

.text.lv_obj_area_is_visible
                0x00030ddc      0x1b4
 .text.lv_obj_area_is_visible
                0x00030ddc      0x1b4 C:/SysGCC/m68k-elf/m68k-elf/lib/m68000\liblvgl.a(lv_obj_pos.o)
                0x00030ddc                lv_obj_area_is_visible

.text.blur_walk_cb
                0x00030f90      0x16e
 .text.blur_walk_cb
                0x00030f90      0x16e C:/SysGCC/m68k-elf/m68k-elf/lib/m68000\liblvgl.a(lv_obj_pos.o)

.text.lv_obj_invalidate_area
                0x000310fe       0xdc
 .text.lv_obj_invalidate_area
                0x000310fe       0xdc C:/SysGCC/m68k-elf/m68k-elf/lib/m68000\liblvgl.a(lv_obj_pos.o)
                0x000310fe                lv_obj_invalidate_area

.text.lv_obj_invalidate
                0x000311da       0x58
 .text.lv_obj_invalidate
                0x000311da       0x58 C:/SysGCC/m68k-elf/m68k-elf/lib/m68000\liblvgl.a(lv_obj_pos.o)
                0x000311da                lv_obj_invalidate

.text.lv_obj_refr_size
                0x00031232      0x316
 .text.lv_obj_refr_size
                0x00031232      0x316 C:/SysGCC/m68k-elf/m68k-elf/lib/m68000\liblvgl.a(lv_obj_pos.o)
                0x00031232                lv_obj_refr_size

.text.lv_obj_move_to
                0x00031548      0x15a
 .text.lv_obj_move_to
                0x00031548      0x15a C:/SysGCC/m68k-elf/m68k-elf/lib/m68000\liblvgl.a(lv_obj_pos.o)
                0x00031548                lv_obj_move_to

.text.lv_obj_refr_pos
                0x000316a2      0x2ee
 .text.lv_obj_refr_pos
                0x000316a2      0x2ee C:/SysGCC/m68k-elf/m68k-elf/lib/m68000\liblvgl.a(lv_obj_pos.o)
                0x000316a2                lv_obj_refr_pos

.text.layout_update_core
                0x00031990       0x82
 .text.layout_update_core
                0x00031990       0x82 C:/SysGCC/m68k-elf/m68k-elf/lib/m68000\liblvgl.a(lv_obj_pos.o)

.text.lv_obj_update_layout
                0x00031a12       0x64
 .text.lv_obj_update_layout
                0x00031a12       0x64 C:/SysGCC/m68k-elf/m68k-elf/lib/m68000\liblvgl.a(lv_obj_pos.o)
                0x00031a12                lv_obj_update_layout

.text.lv_obj_align_to
                0x00031a76      0x504
 .text.lv_obj_align_to
                0x00031a76      0x504 C:/SysGCC/m68k-elf/m68k-elf/lib/m68000\liblvgl.a(lv_obj_pos.o)
                0x00031a76                lv_obj_align_to

.text.lv_obj_is_visible
                0x00031f7a       0x58
 .text.lv_obj_is_visible
                0x00031f7a       0x58 C:/SysGCC/m68k-elf/m68k-elf/lib/m68000\liblvgl.a(lv_obj_pos.o)
                0x00031f7a                lv_obj_is_visible

.text.lv_obj_set_ext_click_area
                0x00031fd2       0x1e
 .text.lv_obj_set_ext_click_area
                0x00031fd2       0x1e C:/SysGCC/m68k-elf/m68k-elf/lib/m68000\liblvgl.a(lv_obj_pos.o)
                0x00031fd2                lv_obj_set_ext_click_area

.text.lv_obj_get_click_area
                0x00031ff0       0x3e
 .text.lv_obj_get_click_area
                0x00031ff0       0x3e C:/SysGCC/m68k-elf/m68k-elf/lib/m68000\liblvgl.a(lv_obj_pos.o)
                0x00031ff0                lv_obj_get_click_area

.text.lv_obj_hit_test
                0x0003202e       0x88
 .text.lv_obj_hit_test
                0x0003202e       0x88 C:/SysGCC/m68k-elf/m68k-elf/lib/m68000\liblvgl.a(lv_obj_pos.o)
                0x0003202e                lv_obj_hit_test

.text.lv_clamp_width
                0x000320b6       0xc4
 .text.lv_clamp_width
                0x000320b6       0xc4 C:/SysGCC/m68k-elf/m68k-elf/lib/m68000\liblvgl.a(lv_obj_pos.o)
                0x000320b6                lv_clamp_width

.text.lv_clamp_height
                0x0003217a       0xc4
 .text.lv_clamp_height
                0x0003217a       0xc4 C:/SysGCC/m68k-elf/m68k-elf/lib/m68000\liblvgl.a(lv_obj_pos.o)
                0x0003217a                lv_clamp_height

.text.lv_obj_center
                0x0003223e       0x18
 .text.lv_obj_center
                0x0003223e       0x18 C:/SysGCC/m68k-elf/m68k-elf/lib/m68000\liblvgl.a(lv_obj_pos.o)
                0x0003223e                lv_obj_center

.text.lv_obj_set_transform
                0x00032256        0x2
 .text.lv_obj_set_transform
                0x00032256        0x2 C:/SysGCC/m68k-elf/m68k-elf/lib/m68000\liblvgl.a(lv_obj_pos.o)
                0x00032256                lv_obj_set_transform

.text.lv_obj_reset_transform
                0x00032258        0x2
 .text.lv_obj_reset_transform
                0x00032258        0x2 C:/SysGCC/m68k-elf/m68k-elf/lib/m68000\liblvgl.a(lv_obj_pos.o)
                0x00032258                lv_obj_reset_transform

.text.lv_obj_get_transform
                0x0003225a        0x4
 .text.lv_obj_get_transform
                0x0003225a        0x4 C:/SysGCC/m68k-elf/m68k-elf/lib/m68000\liblvgl.a(lv_obj_pos.o)
                0x0003225a                lv_obj_get_transform

.text.lv_obj_get_style_base_dir
                0x0003225e       0x22
 .text.lv_obj_get_style_base_dir
                0x0003225e       0x22 C:/SysGCC/m68k-elf/m68k-elf/lib/m68000\liblvgl.a(lv_obj_scroll.o)

.text.scroll_end_cb
                0x00032280       0x20
 .text.scroll_end_cb
                0x00032280       0x20 C:/SysGCC/m68k-elf/m68k-elf/lib/m68000\liblvgl.a(lv_obj_scroll.o)

.text.lv_obj_get_style_space_bottom.constprop.4
                0x000322a0       0x5a
 .text.lv_obj_get_style_space_bottom.constprop.4
                0x000322a0       0x5a C:/SysGCC/m68k-elf/m68k-elf/lib/m68000\liblvgl.a(lv_obj_scroll.o)

.text.lv_obj_get_style_space_right.constprop.14
                0x000322fa       0x5a
 .text.lv_obj_get_style_space_right.constprop.14
                0x000322fa       0x5a C:/SysGCC/m68k-elf/m68k-elf/lib/m68000\liblvgl.a(lv_obj_scroll.o)

.text.lv_obj_get_style_space_top.constprop.5
                0x00032354       0x5a
 .text.lv_obj_get_style_space_top.constprop.5
                0x00032354       0x5a C:/SysGCC/m68k-elf/m68k-elf/lib/m68000\liblvgl.a(lv_obj_scroll.o)

.text.lv_obj_get_style_space_left.constprop.13
                0x000323ae       0x5a
 .text.lv_obj_get_style_space_left.constprop.13
                0x000323ae       0x5a C:/SysGCC/m68k-elf/m68k-elf/lib/m68000\liblvgl.a(lv_obj_scroll.o)

.text.lv_obj_set_scrollbar_mode
                0x00032408       0x4c
 .text.lv_obj_set_scrollbar_mode
                0x00032408       0x4c C:/SysGCC/m68k-elf/m68k-elf/lib/m68000\liblvgl.a(lv_obj_scroll.o)
                0x00032408                lv_obj_set_scrollbar_mode

.text.lv_obj_set_scroll_dir
                0x00032454       0x42
 .text.lv_obj_set_scroll_dir
                0x00032454       0x42 C:/SysGCC/m68k-elf/m68k-elf/lib/m68000\liblvgl.a(lv_obj_scroll.o)
                0x00032454                lv_obj_set_scroll_dir

.text.lv_obj_set_scroll_snap_x
                0x00032496       0x30
 .text.lv_obj_set_scroll_snap_x
                0x00032496       0x30 C:/SysGCC/m68k-elf/m68k-elf/lib/m68000\liblvgl.a(lv_obj_scroll.o)
                0x00032496                lv_obj_set_scroll_snap_x

.text.lv_obj_set_scroll_snap_y
                0x000324c6       0x32
 .text.lv_obj_set_scroll_snap_y
                0x000324c6       0x32 C:/SysGCC/m68k-elf/m68k-elf/lib/m68000\liblvgl.a(lv_obj_scroll.o)
                0x000324c6                lv_obj_set_scroll_snap_y

.text.lv_obj_get_scrollbar_mode
                0x000324f8       0x20
 .text.lv_obj_get_scrollbar_mode
                0x000324f8       0x20 C:/SysGCC/m68k-elf/m68k-elf/lib/m68000\liblvgl.a(lv_obj_scroll.o)
                0x000324f8                lv_obj_get_scrollbar_mode

.text.lv_obj_get_scroll_dir
                0x00032518       0x1e
 .text.lv_obj_get_scroll_dir
                0x00032518       0x1e C:/SysGCC/m68k-elf/m68k-elf/lib/m68000\liblvgl.a(lv_obj_scroll.o)
                0x00032518                lv_obj_get_scroll_dir

.text.lv_obj_get_scroll_snap_x
                0x00032536       0x1e
 .text.lv_obj_get_scroll_snap_x
                0x00032536       0x1e C:/SysGCC/m68k-elf/m68k-elf/lib/m68000\liblvgl.a(lv_obj_scroll.o)
                0x00032536                lv_obj_get_scroll_snap_x

.text.lv_obj_get_scroll_snap_y
                0x00032554       0x1e
 .text.lv_obj_get_scroll_snap_y
                0x00032554       0x1e C:/SysGCC/m68k-elf/m68k-elf/lib/m68000\liblvgl.a(lv_obj_scroll.o)
                0x00032554                lv_obj_get_scroll_snap_y

.text.lv_obj_get_scroll_x
                0x00032572       0x1a
 .text.lv_obj_get_scroll_x
                0x00032572       0x1a C:/SysGCC/m68k-elf/m68k-elf/lib/m68000\liblvgl.a(lv_obj_scroll.o)
                0x00032572                lv_obj_get_scroll_x

.text.lv_obj_get_scroll_y
                0x0003258c       0x1a
 .text.lv_obj_get_scroll_y
                0x0003258c       0x1a C:/SysGCC/m68k-elf/m68k-elf/lib/m68000\liblvgl.a(lv_obj_scroll.o)
                0x0003258c                lv_obj_get_scroll_y

.text.lv_obj_get_scroll_top
                0x000325a6       0x1a
 .text.lv_obj_get_scroll_top
                0x000325a6       0x1a C:/SysGCC/m68k-elf/m68k-elf/lib/m68000\liblvgl.a(lv_obj_scroll.o)
                0x000325a6                lv_obj_get_scroll_top

.text.lv_obj_get_scroll_bottom
                0x000325c0       0xce
 .text.lv_obj_get_scroll_bottom
                0x000325c0       0xce C:/SysGCC/m68k-elf/m68k-elf/lib/m68000\liblvgl.a(lv_obj_scroll.o)
                0x000325c0                lv_obj_get_scroll_bottom

.text.lv_obj_get_scroll_left
                0x0003268e      0x102
 .text.lv_obj_get_scroll_left
                0x0003268e      0x102 C:/SysGCC/m68k-elf/m68k-elf/lib/m68000\liblvgl.a(lv_obj_scroll.o)
                0x0003268e                lv_obj_get_scroll_left

.text.lv_obj_get_scroll_right
                0x00032790       0xfa
 .text.lv_obj_get_scroll_right
                0x00032790       0xfa C:/SysGCC/m68k-elf/m68k-elf/lib/m68000\liblvgl.a(lv_obj_scroll.o)
                0x00032790                lv_obj_get_scroll_right

.text.lv_obj_get_scroll_end
                0x0003288a       0x66
 .text.lv_obj_get_scroll_end
                0x0003288a       0x66 C:/SysGCC/m68k-elf/m68k-elf/lib/m68000\liblvgl.a(lv_obj_scroll.o)
                0x0003288a                lv_obj_get_scroll_end

.text.lv_obj_scroll_by_raw
                0x000328f0       0x66
 .text.lv_obj_scroll_by_raw
                0x000328f0       0x66 C:/SysGCC/m68k-elf/m68k-elf/lib/m68000\liblvgl.a(lv_obj_scroll.o)
                0x000328f0                lv_obj_scroll_by_raw

.text.scroll_y_anim
                0x00032956       0x26
 .text.scroll_y_anim
                0x00032956       0x26 C:/SysGCC/m68k-elf/m68k-elf/lib/m68000\liblvgl.a(lv_obj_scroll.o)

.text.scroll_x_anim
                0x0003297c       0x26
 .text.scroll_x_anim
                0x0003297c       0x26 C:/SysGCC/m68k-elf/m68k-elf/lib/m68000\liblvgl.a(lv_obj_scroll.o)

.text.lv_obj_scroll_by
                0x000329a2      0x1c8
 .text.lv_obj_scroll_by
                0x000329a2      0x1c8 C:/SysGCC/m68k-elf/m68k-elf/lib/m68000\liblvgl.a(lv_obj_scroll.o)
                0x000329a2                lv_obj_scroll_by

.text.lv_obj_scroll_by_bounded
                0x00032b6a      0x10e
 .text.lv_obj_scroll_by_bounded
                0x00032b6a      0x10e C:/SysGCC/m68k-elf/m68k-elf/lib/m68000\liblvgl.a(lv_obj_scroll.o)
                0x00032b6a                lv_obj_scroll_by_bounded

.text.lv_obj_scroll_to_x
                0x00032c78       0x44
 .text.lv_obj_scroll_to_x
                0x00032c78       0x44 C:/SysGCC/m68k-elf/m68k-elf/lib/m68000\liblvgl.a(lv_obj_scroll.o)
                0x00032c78                lv_obj_scroll_to_x

.text.lv_obj_scroll_to_y
                0x00032cbc       0x44
 .text.lv_obj_scroll_to_y
                0x00032cbc       0x44 C:/SysGCC/m68k-elf/m68k-elf/lib/m68000\liblvgl.a(lv_obj_scroll.o)
                0x00032cbc                lv_obj_scroll_to_y

.text.lv_obj_scroll_to
                0x00032d00       0x3a
 .text.lv_obj_scroll_to
                0x00032d00       0x3a C:/SysGCC/m68k-elf/m68k-elf/lib/m68000\liblvgl.a(lv_obj_scroll.o)
                0x00032d00                lv_obj_scroll_to

.text.scroll_area_into_view
                0x00032d3a      0x2ba
 .text.scroll_area_into_view
                0x00032d3a      0x2ba C:/SysGCC/m68k-elf/m68k-elf/lib/m68000\liblvgl.a(lv_obj_scroll.o)

.text.lv_obj_scroll_to_view
                0x00032ff4       0x48
 .text.lv_obj_scroll_to_view
                0x00032ff4       0x48 C:/SysGCC/m68k-elf/m68k-elf/lib/m68000\liblvgl.a(lv_obj_scroll.o)
                0x00032ff4                lv_obj_scroll_to_view

.text.lv_obj_scroll_to_view_recursive
                0x0003303c       0x64
 .text.lv_obj_scroll_to_view_recursive
                0x0003303c       0x64 C:/SysGCC/m68k-elf/m68k-elf/lib/m68000\liblvgl.a(lv_obj_scroll.o)
                0x0003303c                lv_obj_scroll_to_view_recursive

.text.lv_obj_is_scrolling
                0x000330a0       0x66
 .text.lv_obj_is_scrolling
                0x000330a0       0x66 C:/SysGCC/m68k-elf/m68k-elf/lib/m68000\liblvgl.a(lv_obj_scroll.o)
                0x000330a0                lv_obj_is_scrolling

.text.lv_obj_stop_scroll_anim
                0x00033106       0x2c
 .text.lv_obj_stop_scroll_anim
                0x00033106       0x2c C:/SysGCC/m68k-elf/m68k-elf/lib/m68000\liblvgl.a(lv_obj_scroll.o)
                0x00033106                lv_obj_stop_scroll_anim

.text.lv_obj_update_snap
                0x00033132       0x80
 .text.lv_obj_update_snap
                0x00033132       0x80 C:/SysGCC/m68k-elf/m68k-elf/lib/m68000\liblvgl.a(lv_obj_scroll.o)
                0x00033132                lv_obj_update_snap

.text.lv_obj_get_scrollbar_area
                0x000331b2      0x950
 .text.lv_obj_get_scrollbar_area
                0x000331b2      0x950 C:/SysGCC/m68k-elf/m68k-elf/lib/m68000\liblvgl.a(lv_obj_scroll.o)
                0x000331b2                lv_obj_get_scrollbar_area

.text.lv_obj_scrollbar_invalidate
                0x00033b02       0x76
 .text.lv_obj_scrollbar_invalidate
                0x00033b02       0x76 C:/SysGCC/m68k-elf/m68k-elf/lib/m68000\liblvgl.a(lv_obj_scroll.o)
                0x00033b02                lv_obj_scrollbar_invalidate

.text.lv_obj_readjust_scroll
                0x00033b78       0xce
 .text.lv_obj_readjust_scroll
                0x00033b78       0xce C:/SysGCC/m68k-elf/m68k-elf/lib/m68000\liblvgl.a(lv_obj_scroll.o)
                0x00033b78                lv_obj_readjust_scroll

.text.trans_delete
                0x00033c46       0xec
 .text.trans_delete
                0x00033c46       0xec C:/SysGCC/m68k-elf/m68k-elf/lib/m68000\liblvgl.a(lv_obj_style.o)

.text.refresh_children_style
                0x00033d32       0x5e
 .text.refresh_children_style
                0x00033d32       0x5e C:/SysGCC/m68k-elf/m68k-elf/lib/m68000\liblvgl.a(lv_obj_style.o)

.text.fade_anim_cb
                0x00033d90       0x1a
 .text.fade_anim_cb
                0x00033d90       0x1a C:/SysGCC/m68k-elf/m68k-elf/lib/m68000\liblvgl.a(lv_obj_style.o)

.text.lv_style_get_prop_inlined
                0x00033daa       0x64
 .text.lv_style_get_prop_inlined
                0x00033daa       0x64 C:/SysGCC/m68k-elf/m68k-elf/lib/m68000\liblvgl.a(lv_obj_style.o)

.text.get_prop_core
                0x00033e0e      0x14c
 .text.get_prop_core
                0x00033e0e      0x14c C:/SysGCC/m68k-elf/m68k-elf/lib/m68000\liblvgl.a(lv_obj_style.o)

.text.get_selector_style_prop.constprop.17
                0x00033f5a       0xca
 .text.get_selector_style_prop.constprop.17
                0x00033f5a       0xca C:/SysGCC/m68k-elf/m68k-elf/lib/m68000\liblvgl.a(lv_obj_style.o)

.text.style_has_flag.constprop.6
                0x00034024       0x72
 .text.style_has_flag.constprop.6
                0x00034024       0x72 C:/SysGCC/m68k-elf/m68k-elf/lib/m68000\liblvgl.a(lv_obj_style.o)

.text.get_trans_style
                0x00034096      0x104
 .text.get_trans_style
                0x00034096      0x104 C:/SysGCC/m68k-elf/m68k-elf/lib/m68000\liblvgl.a(lv_obj_style.o)

.text.lv_obj_style_init
                0x0003419a       0x14
 .text.lv_obj_style_init
                0x0003419a       0x14 C:/SysGCC/m68k-elf/m68k-elf/lib/m68000\liblvgl.a(lv_obj_style.o)
                0x0003419a                lv_obj_style_init

.text.lv_obj_style_deinit
                0x000341ae       0x28
 .text.lv_obj_style_deinit
                0x000341ae       0x28 C:/SysGCC/m68k-elf/m68k-elf/lib/m68000\liblvgl.a(lv_obj_style.o)
                0x000341ae                lv_obj_style_deinit

.text.lv_obj_style_get_disabled
                0x000341d6       0x4e
 .text.lv_obj_style_get_disabled
                0x000341d6       0x4e C:/SysGCC/m68k-elf/m68k-elf/lib/m68000\liblvgl.a(lv_obj_style.o)
                0x000341d6                lv_obj_style_get_disabled

.text.lv_obj_enable_style_refresh
                0x00034224        0xa
 .text.lv_obj_enable_style_refresh
                0x00034224        0xa C:/SysGCC/m68k-elf/m68k-elf/lib/m68000\liblvgl.a(lv_obj_style.o)
                0x00034224                lv_obj_enable_style_refresh

.text.lv_obj_get_style_prop
                0x0003422e       0x54
 .text.lv_obj_get_style_prop
                0x0003422e       0x54 C:/SysGCC/m68k-elf/m68k-elf/lib/m68000\liblvgl.a(lv_obj_style.o)
                0x0003422e                lv_obj_get_style_prop

.text.lv_obj_has_style_prop
                0x00034282       0x34
 .text.lv_obj_has_style_prop
                0x00034282       0x34 C:/SysGCC/m68k-elf/m68k-elf/lib/m68000\liblvgl.a(lv_obj_style.o)
                0x00034282                lv_obj_has_style_prop

.text.lv_obj_get_local_style_prop
                0x000342b6       0x66
 .text.lv_obj_get_local_style_prop
                0x000342b6       0x66 C:/SysGCC/m68k-elf/m68k-elf/lib/m68000\liblvgl.a(lv_obj_style.o)
                0x000342b6                lv_obj_get_local_style_prop

.text.lv_obj_style_apply_color_filter
                0x0003431c        0x8
 .text.lv_obj_style_apply_color_filter
                0x0003431c        0x8 C:/SysGCC/m68k-elf/m68k-elf/lib/m68000\liblvgl.a(lv_obj_style.o)
                0x0003431c                lv_obj_style_apply_color_filter

.text.lv_obj_style_state_compare
                0x00034324      0x310
 .text.lv_obj_style_state_compare
                0x00034324      0x310 C:/SysGCC/m68k-elf/m68k-elf/lib/m68000\liblvgl.a(lv_obj_style.o)
                0x00034324                lv_obj_style_state_compare

.text.lv_obj_fade_in
                0x00034634       0x78
 .text.lv_obj_fade_in
                0x00034634       0x78 C:/SysGCC/m68k-elf/m68k-elf/lib/m68000\liblvgl.a(lv_obj_style.o)
                0x00034634                lv_obj_fade_in

.text.lv_obj_fade_out
                0x000346ac       0x86
 .text.lv_obj_fade_out
                0x000346ac       0x86 C:/SysGCC/m68k-elf/m68k-elf/lib/m68000\liblvgl.a(lv_obj_style.o)
                0x000346ac                lv_obj_fade_out

.text.lv_obj_calculate_style_text_align
                0x00034732       0x4a
 .text.lv_obj_calculate_style_text_align
                0x00034732       0x4a C:/SysGCC/m68k-elf/m68k-elf/lib/m68000\liblvgl.a(lv_obj_style.o)
                0x00034732                lv_obj_calculate_style_text_align

.text.lv_obj_get_style_opa_recursive
                0x0003477c       0xce
 .text.lv_obj_get_style_opa_recursive
                0x0003477c       0xce C:/SysGCC/m68k-elf/m68k-elf/lib/m68000\liblvgl.a(lv_obj_style.o)
                0x0003477c                lv_obj_get_style_opa_recursive

.text.lv_obj_update_layer_type
                0x0003484a      0x138
 .text.lv_obj_update_layer_type
                0x0003484a      0x138 C:/SysGCC/m68k-elf/m68k-elf/lib/m68000\liblvgl.a(lv_obj_style.o)
                0x0003484a                lv_obj_update_layer_type

.text.lv_obj_refresh_style
                0x00034982      0x162
 .text.lv_obj_refresh_style
                0x00034982      0x162 C:/SysGCC/m68k-elf/m68k-elf/lib/m68000\liblvgl.a(lv_obj_style.o)
                0x00034982                lv_obj_refresh_style

.text.lv_obj_replace_style
                0x00034ae4       0xf8
 .text.lv_obj_replace_style
                0x00034ae4       0xf8 C:/SysGCC/m68k-elf/m68k-elf/lib/m68000\liblvgl.a(lv_obj_style.o)
                0x00034ae4                lv_obj_replace_style

.text.lv_obj_remove_style
                0x00034bdc      0x19e
 .text.lv_obj_remove_style
                0x00034bdc      0x19e C:/SysGCC/m68k-elf/m68k-elf/lib/m68000\liblvgl.a(lv_obj_style.o)
                0x00034bdc                lv_obj_remove_style

.text.lv_obj_remove_style_all
                0x00034d7a       0x18
 .text.lv_obj_remove_style_all
                0x00034d7a       0x18 C:/SysGCC/m68k-elf/m68k-elf/lib/m68000\liblvgl.a(lv_obj_style.o)
                0x00034d7a                lv_obj_remove_style_all

.text.trans_anim_completed_cb
                0x00034d92       0xee
 .text.trans_anim_completed_cb
                0x00034d92       0xee C:/SysGCC/m68k-elf/m68k-elf/lib/m68000\liblvgl.a(lv_obj_style.o)

.text.lv_obj_add_style
                0x00034e80      0x14c
 .text.lv_obj_add_style
                0x00034e80      0x14c C:/SysGCC/m68k-elf/m68k-elf/lib/m68000\liblvgl.a(lv_obj_style.o)
                0x00034e80                lv_obj_add_style

.text.report_style_change_core
                0x00034fcc       0x82
 .text.report_style_change_core
                0x00034fcc       0x82 C:/SysGCC/m68k-elf/m68k-elf/lib/m68000\liblvgl.a(lv_obj_style.o)

.text.lv_obj_report_style_change
                0x0003504e       0x58
 .text.lv_obj_report_style_change
                0x0003504e       0x58 C:/SysGCC/m68k-elf/m68k-elf/lib/m68000\liblvgl.a(lv_obj_style.o)
                0x0003504e                lv_obj_report_style_change

.text.lv_obj_style_set_disabled
                0x000350a6       0x84
 .text.lv_obj_style_set_disabled
                0x000350a6       0x84 C:/SysGCC/m68k-elf/m68k-elf/lib/m68000\liblvgl.a(lv_obj_style.o)
                0x000350a6                lv_obj_style_set_disabled

.text.bind_style_observer_cb
                0x0003512a       0x3e
 .text.bind_style_observer_cb
                0x0003512a       0x3e C:/SysGCC/m68k-elf/m68k-elf/lib/m68000\liblvgl.a(lv_obj_style.o)

.text.lv_obj_set_local_style_prop
                0x00035168      0x170
 .text.lv_obj_set_local_style_prop
                0x00035168      0x170 C:/SysGCC/m68k-elf/m68k-elf/lib/m68000\liblvgl.a(lv_obj_style.o)
                0x00035168                lv_obj_set_local_style_prop

.text.bind_style_prop_observer_cb
                0x000352d8       0x74
 .text.bind_style_prop_observer_cb
                0x000352d8       0x74 C:/SysGCC/m68k-elf/m68k-elf/lib/m68000\liblvgl.a(lv_obj_style.o)

.text.lv_obj_remove_local_style_prop
                0x0003534c       0x86
 .text.lv_obj_remove_local_style_prop
                0x0003534c       0x86 C:/SysGCC/m68k-elf/m68k-elf/lib/m68000\liblvgl.a(lv_obj_style.o)
                0x0003534c                lv_obj_remove_local_style_prop

.text.fade_in_anim_completed
                0x000353d2       0x18
 .text.fade_in_anim_completed
                0x000353d2       0x18 C:/SysGCC/m68k-elf/m68k-elf/lib/m68000\liblvgl.a(lv_obj_style.o)

.text.lv_obj_style_create_transition
                0x000353ea      0x244
 .text.lv_obj_style_create_transition
                0x000353ea      0x244 C:/SysGCC/m68k-elf/m68k-elf/lib/m68000\liblvgl.a(lv_obj_style.o)
                0x000353ea                lv_obj_style_create_transition

.text.trans_anim_start_cb
                0x0003562e       0x96
 .text.trans_anim_start_cb
                0x0003562e       0x96 C:/SysGCC/m68k-elf/m68k-elf/lib/m68000\liblvgl.a(lv_obj_style.o)

.text.trans_anim_cb
                0x000356c4      0x24c
 .text.trans_anim_cb
                0x000356c4      0x24c C:/SysGCC/m68k-elf/m68k-elf/lib/m68000\liblvgl.a(lv_obj_style.o)

.text.lv_obj_style_apply_recolor
                0x00035910       0xa8
 .text.lv_obj_style_apply_recolor
                0x00035910       0xa8 C:/SysGCC/m68k-elf/m68k-elf/lib/m68000\liblvgl.a(lv_obj_style.o)
                0x00035910                lv_obj_style_apply_recolor

.text.lv_obj_get_style_recolor_recursive
                0x000359b8       0xd0
 .text.lv_obj_get_style_recolor_recursive
                0x000359b8       0xd0 C:/SysGCC/m68k-elf/m68k-elf/lib/m68000\liblvgl.a(lv_obj_style.o)
                0x000359b8                lv_obj_get_style_recolor_recursive

.text.lv_obj_bind_style
                0x00035a88       0x76
 .text.lv_obj_bind_style
                0x00035a88       0x76 C:/SysGCC/m68k-elf/m68k-elf/lib/m68000\liblvgl.a(lv_obj_style.o)
                0x00035a88                lv_obj_bind_style

.text.lv_obj_bind_style_prop
                0x00035afe       0x6a
 .text.lv_obj_bind_style_prop
                0x00035afe       0x6a C:/SysGCC/m68k-elf/m68k-elf/lib/m68000\liblvgl.a(lv_obj_style.o)
                0x00035afe                lv_obj_bind_style_prop

.text.lv_obj_set_style_width
                0x00035b68       0x1e
 .text.lv_obj_set_style_width
                0x00035b68       0x1e C:/SysGCC/m68k-elf/m68k-elf/lib/m68000\liblvgl.a(lv_obj_style_gen.o)
                0x00035b68                lv_obj_set_style_width

.text.lv_obj_set_style_min_width
                0x00035b86       0x1e
 .text.lv_obj_set_style_min_width
                0x00035b86       0x1e C:/SysGCC/m68k-elf/m68k-elf/lib/m68000\liblvgl.a(lv_obj_style_gen.o)
                0x00035b86                lv_obj_set_style_min_width

.text.lv_obj_set_style_max_width
                0x00035ba4       0x1e
 .text.lv_obj_set_style_max_width
                0x00035ba4       0x1e C:/SysGCC/m68k-elf/m68k-elf/lib/m68000\liblvgl.a(lv_obj_style_gen.o)
                0x00035ba4                lv_obj_set_style_max_width

.text.lv_obj_set_style_height
                0x00035bc2       0x1e
 .text.lv_obj_set_style_height
                0x00035bc2       0x1e C:/SysGCC/m68k-elf/m68k-elf/lib/m68000\liblvgl.a(lv_obj_style_gen.o)
                0x00035bc2                lv_obj_set_style_height

.text.lv_obj_set_style_min_height
                0x00035be0       0x1e
 .text.lv_obj_set_style_min_height
                0x00035be0       0x1e C:/SysGCC/m68k-elf/m68k-elf/lib/m68000\liblvgl.a(lv_obj_style_gen.o)
                0x00035be0                lv_obj_set_style_min_height

.text.lv_obj_set_style_max_height
                0x00035bfe       0x1e
 .text.lv_obj_set_style_max_height
                0x00035bfe       0x1e C:/SysGCC/m68k-elf/m68k-elf/lib/m68000\liblvgl.a(lv_obj_style_gen.o)
                0x00035bfe                lv_obj_set_style_max_height

.text.lv_obj_set_style_length
                0x00035c1c       0x1e
 .text.lv_obj_set_style_length
                0x00035c1c       0x1e C:/SysGCC/m68k-elf/m68k-elf/lib/m68000\liblvgl.a(lv_obj_style_gen.o)
                0x00035c1c                lv_obj_set_style_length

.text.lv_obj_set_style_x
                0x00035c3a       0x1e
 .text.lv_obj_set_style_x
                0x00035c3a       0x1e C:/SysGCC/m68k-elf/m68k-elf/lib/m68000\liblvgl.a(lv_obj_style_gen.o)
                0x00035c3a                lv_obj_set_style_x

.text.lv_obj_set_style_y
                0x00035c58       0x1e
 .text.lv_obj_set_style_y
                0x00035c58       0x1e C:/SysGCC/m68k-elf/m68k-elf/lib/m68000\liblvgl.a(lv_obj_style_gen.o)
                0x00035c58                lv_obj_set_style_y

.text.lv_obj_set_style_align
                0x00035c76       0x1e
 .text.lv_obj_set_style_align
                0x00035c76       0x1e C:/SysGCC/m68k-elf/m68k-elf/lib/m68000\liblvgl.a(lv_obj_style_gen.o)
                0x00035c76                lv_obj_set_style_align

.text.lv_obj_set_style_transform_width
                0x00035c94       0x1e
 .text.lv_obj_set_style_transform_width
                0x00035c94       0x1e C:/SysGCC/m68k-elf/m68k-elf/lib/m68000\liblvgl.a(lv_obj_style_gen.o)
                0x00035c94                lv_obj_set_style_transform_width

.text.lv_obj_set_style_transform_height
                0x00035cb2       0x1e
 .text.lv_obj_set_style_transform_height
                0x00035cb2       0x1e C:/SysGCC/m68k-elf/m68k-elf/lib/m68000\liblvgl.a(lv_obj_style_gen.o)
                0x00035cb2                lv_obj_set_style_transform_height

.text.lv_obj_set_style_translate_x
                0x00035cd0       0x1e
 .text.lv_obj_set_style_translate_x
                0x00035cd0       0x1e C:/SysGCC/m68k-elf/m68k-elf/lib/m68000\liblvgl.a(lv_obj_style_gen.o)
                0x00035cd0                lv_obj_set_style_translate_x

.text.lv_obj_set_style_translate_y
                0x00035cee       0x1e
 .text.lv_obj_set_style_translate_y
                0x00035cee       0x1e C:/SysGCC/m68k-elf/m68k-elf/lib/m68000\liblvgl.a(lv_obj_style_gen.o)
                0x00035cee                lv_obj_set_style_translate_y

.text.lv_obj_set_style_translate_radial
                0x00035d0c       0x1e
 .text.lv_obj_set_style_translate_radial
                0x00035d0c       0x1e C:/SysGCC/m68k-elf/m68k-elf/lib/m68000\liblvgl.a(lv_obj_style_gen.o)
                0x00035d0c                lv_obj_set_style_translate_radial

.text.lv_obj_set_style_transform_scale_x
                0x00035d2a       0x1e
 .text.lv_obj_set_style_transform_scale_x
                0x00035d2a       0x1e C:/SysGCC/m68k-elf/m68k-elf/lib/m68000\liblvgl.a(lv_obj_style_gen.o)
                0x00035d2a                lv_obj_set_style_transform_scale_x

.text.lv_obj_set_style_transform_scale_y
                0x00035d48       0x1e
 .text.lv_obj_set_style_transform_scale_y
                0x00035d48       0x1e C:/SysGCC/m68k-elf/m68k-elf/lib/m68000\liblvgl.a(lv_obj_style_gen.o)
                0x00035d48                lv_obj_set_style_transform_scale_y

.text.lv_obj_set_style_transform_rotation
                0x00035d66       0x1e
 .text.lv_obj_set_style_transform_rotation
                0x00035d66       0x1e C:/SysGCC/m68k-elf/m68k-elf/lib/m68000\liblvgl.a(lv_obj_style_gen.o)
                0x00035d66                lv_obj_set_style_transform_rotation

.text.lv_obj_set_style_transform_pivot_x
                0x00035d84       0x1e
 .text.lv_obj_set_style_transform_pivot_x
                0x00035d84       0x1e C:/SysGCC/m68k-elf/m68k-elf/lib/m68000\liblvgl.a(lv_obj_style_gen.o)
                0x00035d84                lv_obj_set_style_transform_pivot_x

.text.lv_obj_set_style_transform_pivot_y
                0x00035da2       0x1e
 .text.lv_obj_set_style_transform_pivot_y
                0x00035da2       0x1e C:/SysGCC/m68k-elf/m68k-elf/lib/m68000\liblvgl.a(lv_obj_style_gen.o)
                0x00035da2                lv_obj_set_style_transform_pivot_y

.text.lv_obj_set_style_transform_skew_x
                0x00035dc0       0x1e
 .text.lv_obj_set_style_transform_skew_x
                0x00035dc0       0x1e C:/SysGCC/m68k-elf/m68k-elf/lib/m68000\liblvgl.a(lv_obj_style_gen.o)
                0x00035dc0                lv_obj_set_style_transform_skew_x

.text.lv_obj_set_style_transform_skew_y
                0x00035dde       0x1e
 .text.lv_obj_set_style_transform_skew_y
                0x00035dde       0x1e C:/SysGCC/m68k-elf/m68k-elf/lib/m68000\liblvgl.a(lv_obj_style_gen.o)
                0x00035dde                lv_obj_set_style_transform_skew_y

.text.lv_obj_set_style_pad_top
                0x00035dfc       0x1e
 .text.lv_obj_set_style_pad_top
                0x00035dfc       0x1e C:/SysGCC/m68k-elf/m68k-elf/lib/m68000\liblvgl.a(lv_obj_style_gen.o)
                0x00035dfc                lv_obj_set_style_pad_top

.text.lv_obj_set_style_pad_bottom
                0x00035e1a       0x1e
 .text.lv_obj_set_style_pad_bottom
                0x00035e1a       0x1e C:/SysGCC/m68k-elf/m68k-elf/lib/m68000\liblvgl.a(lv_obj_style_gen.o)
                0x00035e1a                lv_obj_set_style_pad_bottom

.text.lv_obj_set_style_pad_left
                0x00035e38       0x1e
 .text.lv_obj_set_style_pad_left
                0x00035e38       0x1e C:/SysGCC/m68k-elf/m68k-elf/lib/m68000\liblvgl.a(lv_obj_style_gen.o)
                0x00035e38                lv_obj_set_style_pad_left

.text.lv_obj_set_style_pad_right
                0x00035e56       0x1e
 .text.lv_obj_set_style_pad_right
                0x00035e56       0x1e C:/SysGCC/m68k-elf/m68k-elf/lib/m68000\liblvgl.a(lv_obj_style_gen.o)
                0x00035e56                lv_obj_set_style_pad_right

.text.lv_obj_set_style_pad_row
                0x00035e74       0x1e
 .text.lv_obj_set_style_pad_row
                0x00035e74       0x1e C:/SysGCC/m68k-elf/m68k-elf/lib/m68000\liblvgl.a(lv_obj_style_gen.o)
                0x00035e74                lv_obj_set_style_pad_row

.text.lv_obj_set_style_pad_column
                0x00035e92       0x1e
 .text.lv_obj_set_style_pad_column
                0x00035e92       0x1e C:/SysGCC/m68k-elf/m68k-elf/lib/m68000\liblvgl.a(lv_obj_style_gen.o)
                0x00035e92                lv_obj_set_style_pad_column

.text.lv_obj_set_style_pad_radial
                0x00035eb0       0x1e
 .text.lv_obj_set_style_pad_radial
                0x00035eb0       0x1e C:/SysGCC/m68k-elf/m68k-elf/lib/m68000\liblvgl.a(lv_obj_style_gen.o)
                0x00035eb0                lv_obj_set_style_pad_radial

.text.lv_obj_set_style_margin_top
                0x00035ece       0x1e
 .text.lv_obj_set_style_margin_top
                0x00035ece       0x1e C:/SysGCC/m68k-elf/m68k-elf/lib/m68000\liblvgl.a(lv_obj_style_gen.o)
                0x00035ece                lv_obj_set_style_margin_top

.text.lv_obj_set_style_margin_bottom
                0x00035eec       0x1e
 .text.lv_obj_set_style_margin_bottom
                0x00035eec       0x1e C:/SysGCC/m68k-elf/m68k-elf/lib/m68000\liblvgl.a(lv_obj_style_gen.o)
                0x00035eec                lv_obj_set_style_margin_bottom

.text.lv_obj_set_style_margin_left
                0x00035f0a       0x1e
 .text.lv_obj_set_style_margin_left
                0x00035f0a       0x1e C:/SysGCC/m68k-elf/m68k-elf/lib/m68000\liblvgl.a(lv_obj_style_gen.o)
                0x00035f0a                lv_obj_set_style_margin_left

.text.lv_obj_set_style_margin_right
                0x00035f28       0x1e
 .text.lv_obj_set_style_margin_right
                0x00035f28       0x1e C:/SysGCC/m68k-elf/m68k-elf/lib/m68000\liblvgl.a(lv_obj_style_gen.o)
                0x00035f28                lv_obj_set_style_margin_right

.text.lv_obj_set_style_bg_color
                0x00035f46       0x36
 .text.lv_obj_set_style_bg_color
                0x00035f46       0x36 C:/SysGCC/m68k-elf/m68k-elf/lib/m68000\liblvgl.a(lv_obj_style_gen.o)
                0x00035f46                lv_obj_set_style_bg_color

.text.lv_obj_set_style_bg_opa
                0x00035f7c       0x22
 .text.lv_obj_set_style_bg_opa
                0x00035f7c       0x22 C:/SysGCC/m68k-elf/m68k-elf/lib/m68000\liblvgl.a(lv_obj_style_gen.o)
                0x00035f7c                lv_obj_set_style_bg_opa

.text.lv_obj_set_style_bg_grad_color
                0x00035f9e       0x36
 .text.lv_obj_set_style_bg_grad_color
                0x00035f9e       0x36 C:/SysGCC/m68k-elf/m68k-elf/lib/m68000\liblvgl.a(lv_obj_style_gen.o)
                0x00035f9e                lv_obj_set_style_bg_grad_color

.text.lv_obj_set_style_bg_grad_dir
                0x00035fd4       0x1e
 .text.lv_obj_set_style_bg_grad_dir
                0x00035fd4       0x1e C:/SysGCC/m68k-elf/m68k-elf/lib/m68000\liblvgl.a(lv_obj_style_gen.o)
                0x00035fd4                lv_obj_set_style_bg_grad_dir

.text.lv_obj_set_style_bg_main_stop
                0x00035ff2       0x1e
 .text.lv_obj_set_style_bg_main_stop
                0x00035ff2       0x1e C:/SysGCC/m68k-elf/m68k-elf/lib/m68000\liblvgl.a(lv_obj_style_gen.o)
                0x00035ff2                lv_obj_set_style_bg_main_stop

.text.lv_obj_set_style_bg_grad_stop
                0x00036010       0x1e
 .text.lv_obj_set_style_bg_grad_stop
                0x00036010       0x1e C:/SysGCC/m68k-elf/m68k-elf/lib/m68000\liblvgl.a(lv_obj_style_gen.o)
                0x00036010                lv_obj_set_style_bg_grad_stop

.text.lv_obj_set_style_bg_main_opa
                0x0003602e       0x22
 .text.lv_obj_set_style_bg_main_opa
                0x0003602e       0x22 C:/SysGCC/m68k-elf/m68k-elf/lib/m68000\liblvgl.a(lv_obj_style_gen.o)
                0x0003602e                lv_obj_set_style_bg_main_opa

.text.lv_obj_set_style_bg_grad_opa
                0x00036050       0x22
 .text.lv_obj_set_style_bg_grad_opa
                0x00036050       0x22 C:/SysGCC/m68k-elf/m68k-elf/lib/m68000\liblvgl.a(lv_obj_style_gen.o)
                0x00036050                lv_obj_set_style_bg_grad_opa

.text.lv_obj_set_style_bg_grad
                0x00036072       0x1e
 .text.lv_obj_set_style_bg_grad
                0x00036072       0x1e C:/SysGCC/m68k-elf/m68k-elf/lib/m68000\liblvgl.a(lv_obj_style_gen.o)
                0x00036072                lv_obj_set_style_bg_grad

.text.lv_obj_set_style_bg_image_src
                0x00036090       0x1e
 .text.lv_obj_set_style_bg_image_src
                0x00036090       0x1e C:/SysGCC/m68k-elf/m68k-elf/lib/m68000\liblvgl.a(lv_obj_style_gen.o)
                0x00036090                lv_obj_set_style_bg_image_src

.text.lv_obj_set_style_bg_image_opa
                0x000360ae       0x22
 .text.lv_obj_set_style_bg_image_opa
                0x000360ae       0x22 C:/SysGCC/m68k-elf/m68k-elf/lib/m68000\liblvgl.a(lv_obj_style_gen.o)
                0x000360ae                lv_obj_set_style_bg_image_opa

.text.lv_obj_set_style_bg_image_recolor
                0x000360d0       0x36
 .text.lv_obj_set_style_bg_image_recolor
                0x000360d0       0x36 C:/SysGCC/m68k-elf/m68k-elf/lib/m68000\liblvgl.a(lv_obj_style_gen.o)
                0x000360d0                lv_obj_set_style_bg_image_recolor

.text.lv_obj_set_style_bg_image_recolor_opa
                0x00036106       0x22
 .text.lv_obj_set_style_bg_image_recolor_opa
                0x00036106       0x22 C:/SysGCC/m68k-elf/m68k-elf/lib/m68000\liblvgl.a(lv_obj_style_gen.o)
                0x00036106                lv_obj_set_style_bg_image_recolor_opa

.text.lv_obj_set_style_bg_image_tiled
                0x00036128       0x22
 .text.lv_obj_set_style_bg_image_tiled
                0x00036128       0x22 C:/SysGCC/m68k-elf/m68k-elf/lib/m68000\liblvgl.a(lv_obj_style_gen.o)
                0x00036128                lv_obj_set_style_bg_image_tiled

.text.lv_obj_set_style_border_color
                0x0003614a       0x36
 .text.lv_obj_set_style_border_color
                0x0003614a       0x36 C:/SysGCC/m68k-elf/m68k-elf/lib/m68000\liblvgl.a(lv_obj_style_gen.o)
                0x0003614a                lv_obj_set_style_border_color

.text.lv_obj_set_style_border_opa
                0x00036180       0x22
 .text.lv_obj_set_style_border_opa
                0x00036180       0x22 C:/SysGCC/m68k-elf/m68k-elf/lib/m68000\liblvgl.a(lv_obj_style_gen.o)
                0x00036180                lv_obj_set_style_border_opa

.text.lv_obj_set_style_border_width
                0x000361a2       0x1e
 .text.lv_obj_set_style_border_width
                0x000361a2       0x1e C:/SysGCC/m68k-elf/m68k-elf/lib/m68000\liblvgl.a(lv_obj_style_gen.o)
                0x000361a2                lv_obj_set_style_border_width

.text.lv_obj_set_style_border_side
                0x000361c0       0x1e
 .text.lv_obj_set_style_border_side
                0x000361c0       0x1e C:/SysGCC/m68k-elf/m68k-elf/lib/m68000\liblvgl.a(lv_obj_style_gen.o)
                0x000361c0                lv_obj_set_style_border_side

.text.lv_obj_set_style_border_post
                0x000361de       0x22
 .text.lv_obj_set_style_border_post
                0x000361de       0x22 C:/SysGCC/m68k-elf/m68k-elf/lib/m68000\liblvgl.a(lv_obj_style_gen.o)
                0x000361de                lv_obj_set_style_border_post

.text.lv_obj_set_style_outline_width
                0x00036200       0x1e
 .text.lv_obj_set_style_outline_width
                0x00036200       0x1e C:/SysGCC/m68k-elf/m68k-elf/lib/m68000\liblvgl.a(lv_obj_style_gen.o)
                0x00036200                lv_obj_set_style_outline_width

.text.lv_obj_set_style_outline_color
                0x0003621e       0x36
 .text.lv_obj_set_style_outline_color
                0x0003621e       0x36 C:/SysGCC/m68k-elf/m68k-elf/lib/m68000\liblvgl.a(lv_obj_style_gen.o)
                0x0003621e                lv_obj_set_style_outline_color

.text.lv_obj_set_style_outline_opa
                0x00036254       0x22
 .text.lv_obj_set_style_outline_opa
                0x00036254       0x22 C:/SysGCC/m68k-elf/m68k-elf/lib/m68000\liblvgl.a(lv_obj_style_gen.o)
                0x00036254                lv_obj_set_style_outline_opa

.text.lv_obj_set_style_outline_pad
                0x00036276       0x1e
 .text.lv_obj_set_style_outline_pad
                0x00036276       0x1e C:/SysGCC/m68k-elf/m68k-elf/lib/m68000\liblvgl.a(lv_obj_style_gen.o)
                0x00036276                lv_obj_set_style_outline_pad

.text.lv_obj_set_style_shadow_width
                0x00036294       0x1e
 .text.lv_obj_set_style_shadow_width
                0x00036294       0x1e C:/SysGCC/m68k-elf/m68k-elf/lib/m68000\liblvgl.a(lv_obj_style_gen.o)
                0x00036294                lv_obj_set_style_shadow_width

.text.lv_obj_set_style_shadow_offset_x
                0x000362b2       0x1e
 .text.lv_obj_set_style_shadow_offset_x
                0x000362b2       0x1e C:/SysGCC/m68k-elf/m68k-elf/lib/m68000\liblvgl.a(lv_obj_style_gen.o)
                0x000362b2                lv_obj_set_style_shadow_offset_x

.text.lv_obj_set_style_shadow_offset_y
                0x000362d0       0x1e
 .text.lv_obj_set_style_shadow_offset_y
                0x000362d0       0x1e C:/SysGCC/m68k-elf/m68k-elf/lib/m68000\liblvgl.a(lv_obj_style_gen.o)
                0x000362d0                lv_obj_set_style_shadow_offset_y

.text.lv_obj_set_style_shadow_spread
                0x000362ee       0x1e
 .text.lv_obj_set_style_shadow_spread
                0x000362ee       0x1e C:/SysGCC/m68k-elf/m68k-elf/lib/m68000\liblvgl.a(lv_obj_style_gen.o)
                0x000362ee                lv_obj_set_style_shadow_spread

.text.lv_obj_set_style_shadow_color
                0x0003630c       0x36
 .text.lv_obj_set_style_shadow_color
                0x0003630c       0x36 C:/SysGCC/m68k-elf/m68k-elf/lib/m68000\liblvgl.a(lv_obj_style_gen.o)
                0x0003630c                lv_obj_set_style_shadow_color

.text.lv_obj_set_style_shadow_opa
                0x00036342       0x22
 .text.lv_obj_set_style_shadow_opa
                0x00036342       0x22 C:/SysGCC/m68k-elf/m68k-elf/lib/m68000\liblvgl.a(lv_obj_style_gen.o)
                0x00036342                lv_obj_set_style_shadow_opa

.text.lv_obj_set_style_image_opa
                0x00036364       0x22
 .text.lv_obj_set_style_image_opa
                0x00036364       0x22 C:/SysGCC/m68k-elf/m68k-elf/lib/m68000\liblvgl.a(lv_obj_style_gen.o)
                0x00036364                lv_obj_set_style_image_opa

.text.lv_obj_set_style_image_recolor
                0x00036386       0x36
 .text.lv_obj_set_style_image_recolor
                0x00036386       0x36 C:/SysGCC/m68k-elf/m68k-elf/lib/m68000\liblvgl.a(lv_obj_style_gen.o)
                0x00036386                lv_obj_set_style_image_recolor

.text.lv_obj_set_style_image_recolor_opa
                0x000363bc       0x22
 .text.lv_obj_set_style_image_recolor_opa
                0x000363bc       0x22 C:/SysGCC/m68k-elf/m68k-elf/lib/m68000\liblvgl.a(lv_obj_style_gen.o)
                0x000363bc                lv_obj_set_style_image_recolor_opa

.text.lv_obj_set_style_image_colorkey
                0x000363de       0x1e
 .text.lv_obj_set_style_image_colorkey
                0x000363de       0x1e C:/SysGCC/m68k-elf/m68k-elf/lib/m68000\liblvgl.a(lv_obj_style_gen.o)
                0x000363de                lv_obj_set_style_image_colorkey

.text.lv_obj_set_style_line_width
                0x000363fc       0x1e
 .text.lv_obj_set_style_line_width
                0x000363fc       0x1e C:/SysGCC/m68k-elf/m68k-elf/lib/m68000\liblvgl.a(lv_obj_style_gen.o)
                0x000363fc                lv_obj_set_style_line_width

.text.lv_obj_set_style_line_dash_width
                0x0003641a       0x1e
 .text.lv_obj_set_style_line_dash_width
                0x0003641a       0x1e C:/SysGCC/m68k-elf/m68k-elf/lib/m68000\liblvgl.a(lv_obj_style_gen.o)
                0x0003641a                lv_obj_set_style_line_dash_width

.text.lv_obj_set_style_line_dash_gap
                0x00036438       0x1e
 .text.lv_obj_set_style_line_dash_gap
                0x00036438       0x1e C:/SysGCC/m68k-elf/m68k-elf/lib/m68000\liblvgl.a(lv_obj_style_gen.o)
                0x00036438                lv_obj_set_style_line_dash_gap

.text.lv_obj_set_style_line_rounded
                0x00036456       0x22
 .text.lv_obj_set_style_line_rounded
                0x00036456       0x22 C:/SysGCC/m68k-elf/m68k-elf/lib/m68000\liblvgl.a(lv_obj_style_gen.o)
                0x00036456                lv_obj_set_style_line_rounded

.text.lv_obj_set_style_line_color
                0x00036478       0x36
 .text.lv_obj_set_style_line_color
                0x00036478       0x36 C:/SysGCC/m68k-elf/m68k-elf/lib/m68000\liblvgl.a(lv_obj_style_gen.o)
                0x00036478                lv_obj_set_style_line_color

.text.lv_obj_set_style_line_opa
                0x000364ae       0x22
 .text.lv_obj_set_style_line_opa
                0x000364ae       0x22 C:/SysGCC/m68k-elf/m68k-elf/lib/m68000\liblvgl.a(lv_obj_style_gen.o)
                0x000364ae                lv_obj_set_style_line_opa

.text.lv_obj_set_style_arc_width
                0x000364d0       0x1e
 .text.lv_obj_set_style_arc_width
                0x000364d0       0x1e C:/SysGCC/m68k-elf/m68k-elf/lib/m68000\liblvgl.a(lv_obj_style_gen.o)
                0x000364d0                lv_obj_set_style_arc_width

.text.lv_obj_set_style_arc_rounded
                0x000364ee       0x22
 .text.lv_obj_set_style_arc_rounded
                0x000364ee       0x22 C:/SysGCC/m68k-elf/m68k-elf/lib/m68000\liblvgl.a(lv_obj_style_gen.o)
                0x000364ee                lv_obj_set_style_arc_rounded

.text.lv_obj_set_style_arc_color
                0x00036510       0x36
 .text.lv_obj_set_style_arc_color
                0x00036510       0x36 C:/SysGCC/m68k-elf/m68k-elf/lib/m68000\liblvgl.a(lv_obj_style_gen.o)
                0x00036510                lv_obj_set_style_arc_color

.text.lv_obj_set_style_arc_opa
                0x00036546       0x22
 .text.lv_obj_set_style_arc_opa
                0x00036546       0x22 C:/SysGCC/m68k-elf/m68k-elf/lib/m68000\liblvgl.a(lv_obj_style_gen.o)
                0x00036546                lv_obj_set_style_arc_opa

.text.lv_obj_set_style_arc_image_src
                0x00036568       0x1e
 .text.lv_obj_set_style_arc_image_src
                0x00036568       0x1e C:/SysGCC/m68k-elf/m68k-elf/lib/m68000\liblvgl.a(lv_obj_style_gen.o)
                0x00036568                lv_obj_set_style_arc_image_src

.text.lv_obj_set_style_text_color
                0x00036586       0x36
 .text.lv_obj_set_style_text_color
                0x00036586       0x36 C:/SysGCC/m68k-elf/m68k-elf/lib/m68000\liblvgl.a(lv_obj_style_gen.o)
                0x00036586                lv_obj_set_style_text_color

.text.lv_obj_set_style_text_opa
                0x000365bc       0x22
 .text.lv_obj_set_style_text_opa
                0x000365bc       0x22 C:/SysGCC/m68k-elf/m68k-elf/lib/m68000\liblvgl.a(lv_obj_style_gen.o)
                0x000365bc                lv_obj_set_style_text_opa

.text.lv_obj_set_style_text_font
                0x000365de       0x1e
 .text.lv_obj_set_style_text_font
                0x000365de       0x1e C:/SysGCC/m68k-elf/m68k-elf/lib/m68000\liblvgl.a(lv_obj_style_gen.o)
                0x000365de                lv_obj_set_style_text_font

.text.lv_obj_set_style_text_letter_space
                0x000365fc       0x1e
 .text.lv_obj_set_style_text_letter_space
                0x000365fc       0x1e C:/SysGCC/m68k-elf/m68k-elf/lib/m68000\liblvgl.a(lv_obj_style_gen.o)
                0x000365fc                lv_obj_set_style_text_letter_space

.text.lv_obj_set_style_text_line_space
                0x0003661a       0x1e
 .text.lv_obj_set_style_text_line_space
                0x0003661a       0x1e C:/SysGCC/m68k-elf/m68k-elf/lib/m68000\liblvgl.a(lv_obj_style_gen.o)
                0x0003661a                lv_obj_set_style_text_line_space

.text.lv_obj_set_style_text_decor
                0x00036638       0x1e
 .text.lv_obj_set_style_text_decor
                0x00036638       0x1e C:/SysGCC/m68k-elf/m68k-elf/lib/m68000\liblvgl.a(lv_obj_style_gen.o)
                0x00036638                lv_obj_set_style_text_decor

.text.lv_obj_set_style_text_align
                0x00036656       0x1e
 .text.lv_obj_set_style_text_align
                0x00036656       0x1e C:/SysGCC/m68k-elf/m68k-elf/lib/m68000\liblvgl.a(lv_obj_style_gen.o)
                0x00036656                lv_obj_set_style_text_align

.text.lv_obj_set_style_text_outline_stroke_color
                0x00036674       0x36
 .text.lv_obj_set_style_text_outline_stroke_color
                0x00036674       0x36 C:/SysGCC/m68k-elf/m68k-elf/lib/m68000\liblvgl.a(lv_obj_style_gen.o)
                0x00036674                lv_obj_set_style_text_outline_stroke_color

.text.lv_obj_set_style_text_outline_stroke_width
                0x000366aa       0x1e
 .text.lv_obj_set_style_text_outline_stroke_width
                0x000366aa       0x1e C:/SysGCC/m68k-elf/m68k-elf/lib/m68000\liblvgl.a(lv_obj_style_gen.o)
                0x000366aa                lv_obj_set_style_text_outline_stroke_width

.text.lv_obj_set_style_text_outline_stroke_opa
                0x000366c8       0x22
 .text.lv_obj_set_style_text_outline_stroke_opa
                0x000366c8       0x22 C:/SysGCC/m68k-elf/m68k-elf/lib/m68000\liblvgl.a(lv_obj_style_gen.o)
                0x000366c8                lv_obj_set_style_text_outline_stroke_opa

.text.lv_obj_set_style_blur_radius
                0x000366ea       0x1e
 .text.lv_obj_set_style_blur_radius
                0x000366ea       0x1e C:/SysGCC/m68k-elf/m68k-elf/lib/m68000\liblvgl.a(lv_obj_style_gen.o)
                0x000366ea                lv_obj_set_style_blur_radius

.text.lv_obj_set_style_blur_backdrop
                0x00036708       0x22
 .text.lv_obj_set_style_blur_backdrop
                0x00036708       0x22 C:/SysGCC/m68k-elf/m68k-elf/lib/m68000\liblvgl.a(lv_obj_style_gen.o)
                0x00036708                lv_obj_set_style_blur_backdrop

.text.lv_obj_set_style_blur_quality
                0x0003672a       0x1e
 .text.lv_obj_set_style_blur_quality
                0x0003672a       0x1e C:/SysGCC/m68k-elf/m68k-elf/lib/m68000\liblvgl.a(lv_obj_style_gen.o)
                0x0003672a                lv_obj_set_style_blur_quality

.text.lv_obj_set_style_drop_shadow_radius
                0x00036748       0x1e
 .text.lv_obj_set_style_drop_shadow_radius
                0x00036748       0x1e C:/SysGCC/m68k-elf/m68k-elf/lib/m68000\liblvgl.a(lv_obj_style_gen.o)
                0x00036748                lv_obj_set_style_drop_shadow_radius

.text.lv_obj_set_style_drop_shadow_offset_x
                0x00036766       0x1e
 .text.lv_obj_set_style_drop_shadow_offset_x
                0x00036766       0x1e C:/SysGCC/m68k-elf/m68k-elf/lib/m68000\liblvgl.a(lv_obj_style_gen.o)
                0x00036766                lv_obj_set_style_drop_shadow_offset_x

.text.lv_obj_set_style_drop_shadow_offset_y
                0x00036784       0x1e
 .text.lv_obj_set_style_drop_shadow_offset_y
                0x00036784       0x1e C:/SysGCC/m68k-elf/m68k-elf/lib/m68000\liblvgl.a(lv_obj_style_gen.o)
                0x00036784                lv_obj_set_style_drop_shadow_offset_y

.text.lv_obj_set_style_drop_shadow_color
                0x000367a2       0x36
 .text.lv_obj_set_style_drop_shadow_color
                0x000367a2       0x36 C:/SysGCC/m68k-elf/m68k-elf/lib/m68000\liblvgl.a(lv_obj_style_gen.o)
                0x000367a2                lv_obj_set_style_drop_shadow_color

.text.lv_obj_set_style_drop_shadow_opa
                0x000367d8       0x22
 .text.lv_obj_set_style_drop_shadow_opa
                0x000367d8       0x22 C:/SysGCC/m68k-elf/m68k-elf/lib/m68000\liblvgl.a(lv_obj_style_gen.o)
                0x000367d8                lv_obj_set_style_drop_shadow_opa

.text.lv_obj_set_style_drop_shadow_quality
                0x000367fa       0x1e
 .text.lv_obj_set_style_drop_shadow_quality
                0x000367fa       0x1e C:/SysGCC/m68k-elf/m68k-elf/lib/m68000\liblvgl.a(lv_obj_style_gen.o)
                0x000367fa                lv_obj_set_style_drop_shadow_quality

.text.lv_obj_set_style_radius
                0x00036818       0x1e
 .text.lv_obj_set_style_radius
                0x00036818       0x1e C:/SysGCC/m68k-elf/m68k-elf/lib/m68000\liblvgl.a(lv_obj_style_gen.o)
                0x00036818                lv_obj_set_style_radius

.text.lv_obj_set_style_radial_offset
                0x00036836       0x1e
 .text.lv_obj_set_style_radial_offset
                0x00036836       0x1e C:/SysGCC/m68k-elf/m68k-elf/lib/m68000\liblvgl.a(lv_obj_style_gen.o)
                0x00036836                lv_obj_set_style_radial_offset

.text.lv_obj_set_style_clip_corner
                0x00036854       0x22
 .text.lv_obj_set_style_clip_corner
                0x00036854       0x22 C:/SysGCC/m68k-elf/m68k-elf/lib/m68000\liblvgl.a(lv_obj_style_gen.o)
                0x00036854                lv_obj_set_style_clip_corner

.text.lv_obj_set_style_opa
                0x00036876       0x22
 .text.lv_obj_set_style_opa
                0x00036876       0x22 C:/SysGCC/m68k-elf/m68k-elf/lib/m68000\liblvgl.a(lv_obj_style_gen.o)
                0x00036876                lv_obj_set_style_opa

.text.lv_obj_set_style_opa_layered
                0x00036898       0x22
 .text.lv_obj_set_style_opa_layered
                0x00036898       0x22 C:/SysGCC/m68k-elf/m68k-elf/lib/m68000\liblvgl.a(lv_obj_style_gen.o)
                0x00036898                lv_obj_set_style_opa_layered

.text.lv_obj_set_style_color_filter_dsc
                0x000368ba       0x1e
 .text.lv_obj_set_style_color_filter_dsc
                0x000368ba       0x1e C:/SysGCC/m68k-elf/m68k-elf/lib/m68000\liblvgl.a(lv_obj_style_gen.o)
                0x000368ba                lv_obj_set_style_color_filter_dsc

.text.lv_obj_set_style_color_filter_opa
                0x000368d8       0x22
 .text.lv_obj_set_style_color_filter_opa
                0x000368d8       0x22 C:/SysGCC/m68k-elf/m68k-elf/lib/m68000\liblvgl.a(lv_obj_style_gen.o)
                0x000368d8                lv_obj_set_style_color_filter_opa

.text.lv_obj_set_style_recolor
                0x000368fa       0x36
 .text.lv_obj_set_style_recolor
                0x000368fa       0x36 C:/SysGCC/m68k-elf/m68k-elf/lib/m68000\liblvgl.a(lv_obj_style_gen.o)
                0x000368fa                lv_obj_set_style_recolor

.text.lv_obj_set_style_recolor_opa
                0x00036930       0x22
 .text.lv_obj_set_style_recolor_opa
                0x00036930       0x22 C:/SysGCC/m68k-elf/m68k-elf/lib/m68000\liblvgl.a(lv_obj_style_gen.o)
                0x00036930                lv_obj_set_style_recolor_opa

.text.lv_obj_set_style_anim
                0x00036952       0x1e
 .text.lv_obj_set_style_anim
                0x00036952       0x1e C:/SysGCC/m68k-elf/m68k-elf/lib/m68000\liblvgl.a(lv_obj_style_gen.o)
                0x00036952                lv_obj_set_style_anim

.text.lv_obj_set_style_anim_duration
                0x00036970       0x1e
 .text.lv_obj_set_style_anim_duration
                0x00036970       0x1e C:/SysGCC/m68k-elf/m68k-elf/lib/m68000\liblvgl.a(lv_obj_style_gen.o)
                0x00036970                lv_obj_set_style_anim_duration

.text.lv_obj_set_style_transition
                0x0003698e       0x1e
 .text.lv_obj_set_style_transition
                0x0003698e       0x1e C:/SysGCC/m68k-elf/m68k-elf/lib/m68000\liblvgl.a(lv_obj_style_gen.o)
                0x0003698e                lv_obj_set_style_transition

.text.lv_obj_set_style_blend_mode
                0x000369ac       0x1e
 .text.lv_obj_set_style_blend_mode
                0x000369ac       0x1e C:/SysGCC/m68k-elf/m68k-elf/lib/m68000\liblvgl.a(lv_obj_style_gen.o)
                0x000369ac                lv_obj_set_style_blend_mode

.text.lv_obj_set_style_layout
                0x000369ca       0x22
 .text.lv_obj_set_style_layout
                0x000369ca       0x22 C:/SysGCC/m68k-elf/m68k-elf/lib/m68000\liblvgl.a(lv_obj_style_gen.o)
                0x000369ca                lv_obj_set_style_layout

.text.lv_obj_set_style_base_dir
                0x000369ec       0x1e
 .text.lv_obj_set_style_base_dir
                0x000369ec       0x1e C:/SysGCC/m68k-elf/m68k-elf/lib/m68000\liblvgl.a(lv_obj_style_gen.o)
                0x000369ec                lv_obj_set_style_base_dir

.text.lv_obj_set_style_bitmap_mask_src
                0x00036a0a       0x1e
 .text.lv_obj_set_style_bitmap_mask_src
                0x00036a0a       0x1e C:/SysGCC/m68k-elf/m68k-elf/lib/m68000\liblvgl.a(lv_obj_style_gen.o)
                0x00036a0a                lv_obj_set_style_bitmap_mask_src

.text.lv_obj_set_style_rotary_sensitivity
                0x00036a28       0x1e
 .text.lv_obj_set_style_rotary_sensitivity
                0x00036a28       0x1e C:/SysGCC/m68k-elf/m68k-elf/lib/m68000\liblvgl.a(lv_obj_style_gen.o)
                0x00036a28                lv_obj_set_style_rotary_sensitivity

.text.lv_obj_set_style_flex_flow
                0x00036a46       0x1e
 .text.lv_obj_set_style_flex_flow
                0x00036a46       0x1e C:/SysGCC/m68k-elf/m68k-elf/lib/m68000\liblvgl.a(lv_obj_style_gen.o)
                0x00036a46                lv_obj_set_style_flex_flow

.text.lv_obj_set_style_flex_main_place
                0x00036a64       0x1e
 .text.lv_obj_set_style_flex_main_place
                0x00036a64       0x1e C:/SysGCC/m68k-elf/m68k-elf/lib/m68000\liblvgl.a(lv_obj_style_gen.o)
                0x00036a64                lv_obj_set_style_flex_main_place

.text.lv_obj_set_style_flex_cross_place
                0x00036a82       0x1e
 .text.lv_obj_set_style_flex_cross_place
                0x00036a82       0x1e C:/SysGCC/m68k-elf/m68k-elf/lib/m68000\liblvgl.a(lv_obj_style_gen.o)
                0x00036a82                lv_obj_set_style_flex_cross_place

.text.lv_obj_set_style_flex_track_place
                0x00036aa0       0x1e
 .text.lv_obj_set_style_flex_track_place
                0x00036aa0       0x1e C:/SysGCC/m68k-elf/m68k-elf/lib/m68000\liblvgl.a(lv_obj_style_gen.o)
                0x00036aa0                lv_obj_set_style_flex_track_place

.text.lv_obj_set_style_flex_grow
                0x00036abe       0x22
 .text.lv_obj_set_style_flex_grow
                0x00036abe       0x22 C:/SysGCC/m68k-elf/m68k-elf/lib/m68000\liblvgl.a(lv_obj_style_gen.o)
                0x00036abe                lv_obj_set_style_flex_grow

.text.lv_obj_set_style_grid_column_dsc_array
                0x00036ae0       0x1e
 .text.lv_obj_set_style_grid_column_dsc_array
                0x00036ae0       0x1e C:/SysGCC/m68k-elf/m68k-elf/lib/m68000\liblvgl.a(lv_obj_style_gen.o)
                0x00036ae0                lv_obj_set_style_grid_column_dsc_array

.text.lv_obj_set_style_grid_column_align
                0x00036afe       0x1e
 .text.lv_obj_set_style_grid_column_align
                0x00036afe       0x1e C:/SysGCC/m68k-elf/m68k-elf/lib/m68000\liblvgl.a(lv_obj_style_gen.o)
                0x00036afe                lv_obj_set_style_grid_column_align

.text.lv_obj_set_style_grid_row_dsc_array
                0x00036b1c       0x1e
 .text.lv_obj_set_style_grid_row_dsc_array
                0x00036b1c       0x1e C:/SysGCC/m68k-elf/m68k-elf/lib/m68000\liblvgl.a(lv_obj_style_gen.o)
                0x00036b1c                lv_obj_set_style_grid_row_dsc_array

.text.lv_obj_set_style_grid_row_align
                0x00036b3a       0x1e
 .text.lv_obj_set_style_grid_row_align
                0x00036b3a       0x1e C:/SysGCC/m68k-elf/m68k-elf/lib/m68000\liblvgl.a(lv_obj_style_gen.o)
                0x00036b3a                lv_obj_set_style_grid_row_align

.text.lv_obj_set_style_grid_cell_column_pos
                0x00036b58       0x1e
 .text.lv_obj_set_style_grid_cell_column_pos
                0x00036b58       0x1e C:/SysGCC/m68k-elf/m68k-elf/lib/m68000\liblvgl.a(lv_obj_style_gen.o)
                0x00036b58                lv_obj_set_style_grid_cell_column_pos

.text.lv_obj_set_style_grid_cell_x_align
                0x00036b76       0x1e
 .text.lv_obj_set_style_grid_cell_x_align
                0x00036b76       0x1e C:/SysGCC/m68k-elf/m68k-elf/lib/m68000\liblvgl.a(lv_obj_style_gen.o)
                0x00036b76                lv_obj_set_style_grid_cell_x_align

.text.lv_obj_set_style_grid_cell_column_span
                0x00036b94       0x1e
 .text.lv_obj_set_style_grid_cell_column_span
                0x00036b94       0x1e C:/SysGCC/m68k-elf/m68k-elf/lib/m68000\liblvgl.a(lv_obj_style_gen.o)
                0x00036b94                lv_obj_set_style_grid_cell_column_span

.text.lv_obj_set_style_grid_cell_row_pos
                0x00036bb2       0x1e
 .text.lv_obj_set_style_grid_cell_row_pos
                0x00036bb2       0x1e C:/SysGCC/m68k-elf/m68k-elf/lib/m68000\liblvgl.a(lv_obj_style_gen.o)
                0x00036bb2                lv_obj_set_style_grid_cell_row_pos

.text.lv_obj_set_style_grid_cell_y_align
                0x00036bd0       0x1e
 .text.lv_obj_set_style_grid_cell_y_align
                0x00036bd0       0x1e C:/SysGCC/m68k-elf/m68k-elf/lib/m68000\liblvgl.a(lv_obj_style_gen.o)
                0x00036bd0                lv_obj_set_style_grid_cell_y_align

.text.lv_obj_set_style_grid_cell_row_span
                0x00036bee       0x1e
 .text.lv_obj_set_style_grid_cell_row_span
                0x00036bee       0x1e C:/SysGCC/m68k-elf/m68k-elf/lib/m68000\liblvgl.a(lv_obj_style_gen.o)
                0x00036bee                lv_obj_set_style_grid_cell_row_span

.text.obj_indev_reset
                0x00036c0c       0x36
 .text.obj_indev_reset
                0x00036c0c       0x36 C:/SysGCC/m68k-elf/m68k-elf/lib/m68000\liblvgl.a(lv_obj_tree.o)

.text.lv_obj_get_first_not_deleting_child.isra.0
                0x00036c42       0x3c
 .text.lv_obj_get_first_not_deleting_child.isra.0
                0x00036c42       0x3c C:/SysGCC/m68k-elf/m68k-elf/lib/m68000\liblvgl.a(lv_obj_tree.o)

.text.lv_obj_delete_delayed
                0x00036c7e       0x66
 .text.lv_obj_delete_delayed
                0x00036c7e       0x66 C:/SysGCC/m68k-elf/m68k-elf/lib/m68000\liblvgl.a(lv_obj_tree.o)
                0x00036c7e                lv_obj_delete_delayed

.text.lv_obj_delete_async
                0x00036ce4       0x14
 .text.lv_obj_delete_async
                0x00036ce4       0x14 C:/SysGCC/m68k-elf/m68k-elf/lib/m68000\liblvgl.a(lv_obj_tree.o)
                0x00036ce4                lv_obj_delete_async

.text.lv_obj_get_screen
                0x00036cf8       0x14
 .text.lv_obj_get_screen
                0x00036cf8       0x14 C:/SysGCC/m68k-elf/m68k-elf/lib/m68000\liblvgl.a(lv_obj_tree.o)
                0x00036cf8                lv_obj_get_screen

.text.lv_obj_get_display
                0x00036d0c       0x6a
 .text.lv_obj_get_display
                0x00036d0c       0x6a C:/SysGCC/m68k-elf/m68k-elf/lib/m68000\liblvgl.a(lv_obj_tree.o)
                0x00036d0c                lv_obj_get_display

.text.lv_obj_get_parent
                0x00036d76       0x14
 .text.lv_obj_get_parent
                0x00036d76       0x14 C:/SysGCC/m68k-elf/m68k-elf/lib/m68000\liblvgl.a(lv_obj_tree.o)
                0x00036d76                lv_obj_get_parent

.text.lv_obj_get_child
                0x00036d8a       0x36
 .text.lv_obj_get_child
                0x00036d8a       0x36 C:/SysGCC/m68k-elf/m68k-elf/lib/m68000\liblvgl.a(lv_obj_tree.o)
                0x00036d8a                lv_obj_get_child

.text.dump_tree_core
                0x00036dc0       0x52
 .text.dump_tree_core
                0x00036dc0       0x52 C:/SysGCC/m68k-elf/m68k-elf/lib/m68000\liblvgl.a(lv_obj_tree.o)

.text.lv_obj_get_child_by_type
                0x00036e12       0x7e
 .text.lv_obj_get_child_by_type
                0x00036e12       0x7e C:/SysGCC/m68k-elf/m68k-elf/lib/m68000\liblvgl.a(lv_obj_tree.o)
                0x00036e12                lv_obj_get_child_by_type

.text.lv_obj_get_child_count
                0x00036e90       0x18
 .text.lv_obj_get_child_count
                0x00036e90       0x18 C:/SysGCC/m68k-elf/m68k-elf/lib/m68000\liblvgl.a(lv_obj_tree.o)
                0x00036e90                lv_obj_get_child_count

.text.walk_core
                0x00036ea8       0xbe
 .text.walk_core
                0x00036ea8       0xbe C:/SysGCC/m68k-elf/m68k-elf/lib/m68000\liblvgl.a(lv_obj_tree.o)

.text.lv_obj_get_child_count_by_type
                0x00036f66       0x42
 .text.lv_obj_get_child_count_by_type
                0x00036f66       0x42 C:/SysGCC/m68k-elf/m68k-elf/lib/m68000\liblvgl.a(lv_obj_tree.o)
                0x00036f66                lv_obj_get_child_count_by_type

.text.lv_obj_get_index
                0x00036fa8       0x44
 .text.lv_obj_get_index
                0x00036fa8       0x44 C:/SysGCC/m68k-elf/m68k-elf/lib/m68000\liblvgl.a(lv_obj_tree.o)
                0x00036fa8                lv_obj_get_index

.text.obj_delete_core
                0x00036fec      0x1fc
 .text.obj_delete_core
                0x00036fec      0x1fc C:/SysGCC/m68k-elf/m68k-elf/lib/m68000\liblvgl.a(lv_obj_tree.o)

.text.lv_obj_delete
                0x000371e8       0x98
 .text.lv_obj_delete
                0x000371e8       0x98 C:/SysGCC/m68k-elf/m68k-elf/lib/m68000\liblvgl.a(lv_obj_tree.o)
                0x000371e8                lv_obj_delete

.text.lv_obj_delete_async_cb
                0x00037280        0x6
 .text.lv_obj_delete_async_cb
                0x00037280        0x6 C:/SysGCC/m68k-elf/m68k-elf/lib/m68000\liblvgl.a(lv_obj_tree.o)

.text.lv_obj_delete_anim_completed_cb
                0x00037286        0xe
 .text.lv_obj_delete_anim_completed_cb
                0x00037286        0xe C:/SysGCC/m68k-elf/m68k-elf/lib/m68000\liblvgl.a(lv_obj_tree.o)
                0x00037286                lv_obj_delete_anim_completed_cb

.text.lv_obj_clean
                0x00037294       0x94
 .text.lv_obj_clean
                0x00037294       0x94 C:/SysGCC/m68k-elf/m68k-elf/lib/m68000\liblvgl.a(lv_obj_tree.o)
                0x00037294                lv_obj_clean

.text.lv_obj_set_parent
                0x00037328      0x144
 .text.lv_obj_set_parent
                0x00037328      0x144 C:/SysGCC/m68k-elf/m68k-elf/lib/m68000\liblvgl.a(lv_obj_tree.o)
                0x00037328                lv_obj_set_parent

.text.lv_obj_move_to_index
                0x0003746c       0xbe
 .text.lv_obj_move_to_index
                0x0003746c       0xbe C:/SysGCC/m68k-elf/m68k-elf/lib/m68000\liblvgl.a(lv_obj_tree.o)
                0x0003746c                lv_obj_move_to_index

.text.lv_obj_swap
                0x0003752a       0xd4
 .text.lv_obj_swap
                0x0003752a       0xd4 C:/SysGCC/m68k-elf/m68k-elf/lib/m68000\liblvgl.a(lv_obj_tree.o)
                0x0003752a                lv_obj_swap

.text.lv_obj_get_sibling
                0x000375fe       0x42
 .text.lv_obj_get_sibling
                0x000375fe       0x42 C:/SysGCC/m68k-elf/m68k-elf/lib/m68000\liblvgl.a(lv_obj_tree.o)
                0x000375fe                lv_obj_get_sibling

.text.lv_obj_get_index_by_type
                0x00037640       0x50
 .text.lv_obj_get_index_by_type
                0x00037640       0x50 C:/SysGCC/m68k-elf/m68k-elf/lib/m68000\liblvgl.a(lv_obj_tree.o)
                0x00037640                lv_obj_get_index_by_type

.text.lv_obj_get_sibling_by_type
                0x00037690       0x4c
 .text.lv_obj_get_sibling_by_type
                0x00037690       0x4c C:/SysGCC/m68k-elf/m68k-elf/lib/m68000\liblvgl.a(lv_obj_tree.o)
                0x00037690                lv_obj_get_sibling_by_type

.text.lv_obj_tree_walk
                0x000376dc        0x6
 .text.lv_obj_tree_walk
                0x000376dc        0x6 C:/SysGCC/m68k-elf/m68k-elf/lib/m68000\liblvgl.a(lv_obj_tree.o)
                0x000376dc                lv_obj_tree_walk

.text.lv_obj_dump_tree
                0x000376e2       0x62
 .text.lv_obj_dump_tree
                0x000376e2       0x62 C:/SysGCC/m68k-elf/m68k-elf/lib/m68000\liblvgl.a(lv_obj_tree.o)
                0x000376e2                lv_obj_dump_tree

.text.subject_set_string_free_user_data_event_cb
                0x00037744       0x26
 .text.subject_set_string_free_user_data_event_cb
                0x00037744       0x26 C:/SysGCC/m68k-elf/m68k-elf/lib/m68000\liblvgl.a(lv_observer.o)

.text.obj_flag_observer_cb
                0x0003776a       0x7c
 .text.obj_flag_observer_cb
                0x0003776a       0x7c C:/SysGCC/m68k-elf/m68k-elf/lib/m68000\liblvgl.a(lv_observer.o)

.text.obj_state_observer_cb
                0x000377e6       0x7c
 .text.obj_state_observer_cb
                0x000377e6       0x7c C:/SysGCC/m68k-elf/m68k-elf/lib/m68000\liblvgl.a(lv_observer.o)

.text.lv_subject_init_int
                0x00037862       0x5a
 .text.lv_subject_init_int
                0x00037862       0x5a C:/SysGCC/m68k-elf/m68k-elf/lib/m68000\liblvgl.a(lv_observer.o)
                0x00037862                lv_subject_init_int

.text.lv_subject_get_int
                0x000378bc       0x1c
 .text.lv_subject_get_int
                0x000378bc       0x1c C:/SysGCC/m68k-elf/m68k-elf/lib/m68000\liblvgl.a(lv_observer.o)
                0x000378bc                lv_subject_get_int

.text.lv_subject_get_previous_int
                0x000378d8       0x1c
 .text.lv_subject_get_previous_int
                0x000378d8       0x1c C:/SysGCC/m68k-elf/m68k-elf/lib/m68000\liblvgl.a(lv_observer.o)
                0x000378d8                lv_subject_get_previous_int

.text.lv_subject_set_min_value_int
                0x000378f4       0x1a
 .text.lv_subject_set_min_value_int
                0x000378f4       0x1a C:/SysGCC/m68k-elf/m68k-elf/lib/m68000\liblvgl.a(lv_observer.o)
                0x000378f4                lv_subject_set_min_value_int

.text.lv_subject_set_max_value_int
                0x0003790e       0x1a
 .text.lv_subject_set_max_value_int
                0x0003790e       0x1a C:/SysGCC/m68k-elf/m68k-elf/lib/m68000\liblvgl.a(lv_observer.o)
                0x0003790e                lv_subject_set_max_value_int

.text.lv_subject_init_string
                0x00037928       0x8c
 .text.lv_subject_init_string
                0x00037928       0x8c C:/SysGCC/m68k-elf/m68k-elf/lib/m68000\liblvgl.a(lv_observer.o)
                0x00037928                lv_subject_init_string

.text.lv_subject_get_string
                0x000379b4       0x20
 .text.lv_subject_get_string
                0x000379b4       0x20 C:/SysGCC/m68k-elf/m68k-elf/lib/m68000\liblvgl.a(lv_observer.o)
                0x000379b4                lv_subject_get_string

.text.lv_subject_get_previous_string
                0x000379d4       0x1c
 .text.lv_subject_get_previous_string
                0x000379d4       0x1c C:/SysGCC/m68k-elf/m68k-elf/lib/m68000\liblvgl.a(lv_observer.o)
                0x000379d4                lv_subject_get_previous_string

.text.lv_subject_init_pointer
                0x000379f0       0x4a
 .text.lv_subject_init_pointer
                0x000379f0       0x4a C:/SysGCC/m68k-elf/m68k-elf/lib/m68000\liblvgl.a(lv_observer.o)
                0x000379f0                lv_subject_init_pointer

.text.lv_subject_get_pointer
                0x00037a3a       0x1c
 .text.lv_subject_get_pointer
                0x00037a3a       0x1c C:/SysGCC/m68k-elf/m68k-elf/lib/m68000\liblvgl.a(lv_observer.o)
                0x00037a3a                lv_subject_get_pointer

.text.lv_subject_get_previous_pointer
                0x00037a56       0x1c
 .text.lv_subject_get_previous_pointer
                0x00037a56       0x1c C:/SysGCC/m68k-elf/m68k-elf/lib/m68000\liblvgl.a(lv_observer.o)
                0x00037a56                lv_subject_get_previous_pointer

.text.lv_subject_init_color
                0x00037a72       0x60
 .text.lv_subject_init_color
                0x00037a72       0x60 C:/SysGCC/m68k-elf/m68k-elf/lib/m68000\liblvgl.a(lv_observer.o)
                0x00037a72                lv_subject_init_color

.text.lv_subject_get_color
                0x00037ad2       0x38
 .text.lv_subject_get_color
                0x00037ad2       0x38 C:/SysGCC/m68k-elf/m68k-elf/lib/m68000\liblvgl.a(lv_observer.o)
                0x00037ad2                lv_subject_get_color

.text.lv_subject_get_previous_color
                0x00037b0a       0x38
 .text.lv_subject_get_previous_color
                0x00037b0a       0x38 C:/SysGCC/m68k-elf/m68k-elf/lib/m68000\liblvgl.a(lv_observer.o)
                0x00037b0a                lv_subject_get_previous_color

.text.lv_subject_get_group_element
                0x00037b42       0x3e
 .text.lv_subject_get_group_element
                0x00037b42       0x3e C:/SysGCC/m68k-elf/m68k-elf/lib/m68000\liblvgl.a(lv_observer.o)
                0x00037b42                lv_subject_get_group_element

.text.lv_subject_add_observer_obj
                0x00037b80       0x8a
 .text.lv_subject_add_observer_obj
                0x00037b80       0x8a C:/SysGCC/m68k-elf/m68k-elf/lib/m68000\liblvgl.a(lv_observer.o)
                0x00037b80                lv_subject_add_observer_obj

.text.lv_subject_add_observer
                0x00037c0a       0x26
 .text.lv_subject_add_observer
                0x00037c0a       0x26 C:/SysGCC/m68k-elf/m68k-elf/lib/m68000\liblvgl.a(lv_observer.o)
                0x00037c0a                lv_subject_add_observer

.text.lv_subject_init_group
                0x00037c30       0x74
 .text.lv_subject_init_group
                0x00037c30       0x74 C:/SysGCC/m68k-elf/m68k-elf/lib/m68000\liblvgl.a(lv_observer.o)
                0x00037c30                lv_subject_init_group

.text.bind_to_bitfield
                0x00037ca4       0x7a
 .text.bind_to_bitfield
                0x00037ca4       0x7a C:/SysGCC/m68k-elf/m68k-elf/lib/m68000\liblvgl.a(lv_observer.o)

.text.lv_subject_add_observer_with_target
                0x00037d1e       0x64
 .text.lv_subject_add_observer_with_target
                0x00037d1e       0x64 C:/SysGCC/m68k-elf/m68k-elf/lib/m68000\liblvgl.a(lv_observer.o)
                0x00037d1e                lv_subject_add_observer_with_target

.text.lv_observer_remove
                0x00037d82       0x6a
 .text.lv_observer_remove
                0x00037d82       0x6a C:/SysGCC/m68k-elf/m68k-elf/lib/m68000\liblvgl.a(lv_observer.o)
                0x00037d82                lv_observer_remove

.text.lv_subject_deinit
                0x00037dec       0x46
 .text.lv_subject_deinit
                0x00037dec       0x46 C:/SysGCC/m68k-elf/m68k-elf/lib/m68000\liblvgl.a(lv_observer.o)
                0x00037dec                lv_subject_deinit

.text.unsubscribe_on_delete_cb
                0x00037e32       0x16
 .text.unsubscribe_on_delete_cb
                0x00037e32       0x16 C:/SysGCC/m68k-elf/m68k-elf/lib/m68000\liblvgl.a(lv_observer.o)

.text.lv_obj_remove_from_subject
                0x00037e48       0x78
 .text.lv_obj_remove_from_subject
                0x00037e48       0x78 C:/SysGCC/m68k-elf/m68k-elf/lib/m68000\liblvgl.a(lv_observer.o)
                0x00037e48                lv_obj_remove_from_subject

.text.lv_observer_get_target
                0x00037ec0        0xa
 .text.lv_observer_get_target
                0x00037ec0        0xa C:/SysGCC/m68k-elf/m68k-elf/lib/m68000\liblvgl.a(lv_observer.o)
                0x00037ec0                lv_observer_get_target

.text.lv_subject_notify
                0x00037eca       0x8e
 .text.lv_subject_notify
                0x00037eca       0x8e C:/SysGCC/m68k-elf/m68k-elf/lib/m68000\liblvgl.a(lv_observer.o)
                0x00037eca                lv_subject_notify

.text.lv_subject_notify_if_changed
                0x00037f58       0xa6
 .text.lv_subject_notify_if_changed
                0x00037f58       0xa6 C:/SysGCC/m68k-elf/m68k-elf/lib/m68000\liblvgl.a(lv_observer.o)

.text.lv_subject_set_int
                0x00037ffe       0x40
 .text.lv_subject_set_int
                0x00037ffe       0x40 C:/SysGCC/m68k-elf/m68k-elf/lib/m68000\liblvgl.a(lv_observer.o)
                0x00037ffe                lv_subject_set_int

.text.subject_increment_cb
                0x0003803e       0x7e
 .text.subject_increment_cb
                0x0003803e       0x7e C:/SysGCC/m68k-elf/m68k-elf/lib/m68000\liblvgl.a(lv_observer.o)

.text.subject_toggle_cb
                0x000380bc       0x34
 .text.subject_toggle_cb
                0x000380bc       0x34 C:/SysGCC/m68k-elf/m68k-elf/lib/m68000\liblvgl.a(lv_observer.o)

.text.subject_set_int_cb
                0x000380f0       0x1e
 .text.subject_set_int_cb
                0x000380f0       0x1e C:/SysGCC/m68k-elf/m68k-elf/lib/m68000\liblvgl.a(lv_observer.o)

.text.obj_value_changed_event_cb
                0x0003810e       0x42
 .text.obj_value_changed_event_cb
                0x0003810e       0x42 C:/SysGCC/m68k-elf/m68k-elf/lib/m68000\liblvgl.a(lv_observer.o)

.text.lv_subject_copy_string
                0x00038150       0x70
 .text.lv_subject_copy_string
                0x00038150       0x70 C:/SysGCC/m68k-elf/m68k-elf/lib/m68000\liblvgl.a(lv_observer.o)
                0x00038150                lv_subject_copy_string

.text.subject_set_string_cb
                0x000381c0       0x1e
 .text.subject_set_string_cb
                0x000381c0       0x1e C:/SysGCC/m68k-elf/m68k-elf/lib/m68000\liblvgl.a(lv_observer.o)

.text.lv_subject_snprintf
                0x000381de       0x7c
 .text.lv_subject_snprintf
                0x000381de       0x7c C:/SysGCC/m68k-elf/m68k-elf/lib/m68000\liblvgl.a(lv_observer.o)
                0x000381de                lv_subject_snprintf

.text.lv_subject_set_pointer
                0x0003825a       0x28
 .text.lv_subject_set_pointer
                0x0003825a       0x28 C:/SysGCC/m68k-elf/m68k-elf/lib/m68000\liblvgl.a(lv_observer.o)
                0x0003825a                lv_subject_set_pointer

.text.lv_subject_set_color
                0x00038282       0x52
 .text.lv_subject_set_color
                0x00038282       0x52 C:/SysGCC/m68k-elf/m68k-elf/lib/m68000\liblvgl.a(lv_observer.o)
                0x00038282                lv_subject_set_color

.text.group_notify_cb
                0x000382d4       0x10
 .text.group_notify_cb
                0x000382d4       0x10 C:/SysGCC/m68k-elf/m68k-elf/lib/m68000\liblvgl.a(lv_observer.o)

.text.lv_obj_add_subject_increment_event
                0x000382e4       0x7e
 .text.lv_obj_add_subject_increment_event
                0x000382e4       0x7e C:/SysGCC/m68k-elf/m68k-elf/lib/m68000\liblvgl.a(lv_observer.o)
                0x000382e4                lv_obj_add_subject_increment_event

.text.lv_obj_set_subject_increment_event_min_value
                0x00038362       0x38
 .text.lv_obj_set_subject_increment_event_min_value
                0x00038362       0x38 C:/SysGCC/m68k-elf/m68k-elf/lib/m68000\liblvgl.a(lv_observer.o)
                0x00038362                lv_obj_set_subject_increment_event_min_value

.text.lv_obj_set_subject_increment_event_max_value
                0x0003839a       0x38
 .text.lv_obj_set_subject_increment_event_max_value
                0x0003839a       0x38 C:/SysGCC/m68k-elf/m68k-elf/lib/m68000\liblvgl.a(lv_observer.o)
                0x0003839a                lv_obj_set_subject_increment_event_max_value

.text.lv_obj_set_subject_increment_event_rollover
                0x000383d2       0x14
 .text.lv_obj_set_subject_increment_event_rollover
                0x000383d2       0x14 C:/SysGCC/m68k-elf/m68k-elf/lib/m68000\liblvgl.a(lv_observer.o)
                0x000383d2                lv_obj_set_subject_increment_event_rollover

.text.lv_obj_add_subject_toggle_event
                0x000383e6       0x2e
 .text.lv_obj_add_subject_toggle_event
                0x000383e6       0x2e C:/SysGCC/m68k-elf/m68k-elf/lib/m68000\liblvgl.a(lv_observer.o)
                0x000383e6                lv_obj_add_subject_toggle_event

.text.lv_obj_add_subject_set_int_event
                0x00038414       0x76
 .text.lv_obj_add_subject_set_int_event
                0x00038414       0x76 C:/SysGCC/m68k-elf/m68k-elf/lib/m68000\liblvgl.a(lv_observer.o)
                0x00038414                lv_obj_add_subject_set_int_event

.text.lv_obj_add_subject_set_string_event
                0x0003848a       0x7e
 .text.lv_obj_add_subject_set_string_event
                0x0003848a       0x7e C:/SysGCC/m68k-elf/m68k-elf/lib/m68000\liblvgl.a(lv_observer.o)
                0x0003848a                lv_obj_add_subject_set_string_event

.text.lv_obj_bind_flag_if_eq
                0x00038508       0x26
 .text.lv_obj_bind_flag_if_eq
                0x00038508       0x26 C:/SysGCC/m68k-elf/m68k-elf/lib/m68000\liblvgl.a(lv_observer.o)
                0x00038508                lv_obj_bind_flag_if_eq

.text.lv_obj_bind_flag_if_not_eq
                0x0003852e       0x28
 .text.lv_obj_bind_flag_if_not_eq
                0x0003852e       0x28 C:/SysGCC/m68k-elf/m68k-elf/lib/m68000\liblvgl.a(lv_observer.o)
                0x0003852e                lv_obj_bind_flag_if_not_eq

.text.lv_obj_bind_flag_if_gt
                0x00038556       0x28
 .text.lv_obj_bind_flag_if_gt
                0x00038556       0x28 C:/SysGCC/m68k-elf/m68k-elf/lib/m68000\liblvgl.a(lv_observer.o)
                0x00038556                lv_obj_bind_flag_if_gt

.text.lv_obj_bind_flag_if_ge
                0x0003857e       0x28
 .text.lv_obj_bind_flag_if_ge
                0x0003857e       0x28 C:/SysGCC/m68k-elf/m68k-elf/lib/m68000\liblvgl.a(lv_observer.o)
                0x0003857e                lv_obj_bind_flag_if_ge

.text.lv_obj_bind_flag_if_lt
                0x000385a6       0x2a
 .text.lv_obj_bind_flag_if_lt
                0x000385a6       0x2a C:/SysGCC/m68k-elf/m68k-elf/lib/m68000\liblvgl.a(lv_observer.o)
                0x000385a6                lv_obj_bind_flag_if_lt

.text.lv_obj_bind_flag_if_le
                0x000385d0       0x2a
 .text.lv_obj_bind_flag_if_le
                0x000385d0       0x2a C:/SysGCC/m68k-elf/m68k-elf/lib/m68000\liblvgl.a(lv_observer.o)
                0x000385d0                lv_obj_bind_flag_if_le

.text.lv_obj_bind_state_if_eq
                0x000385fa       0x26
 .text.lv_obj_bind_state_if_eq
                0x000385fa       0x26 C:/SysGCC/m68k-elf/m68k-elf/lib/m68000\liblvgl.a(lv_observer.o)
                0x000385fa                lv_obj_bind_state_if_eq

.text.lv_obj_bind_state_if_not_eq
                0x00038620       0x28
 .text.lv_obj_bind_state_if_not_eq
                0x00038620       0x28 C:/SysGCC/m68k-elf/m68k-elf/lib/m68000\liblvgl.a(lv_observer.o)
                0x00038620                lv_obj_bind_state_if_not_eq

.text.lv_obj_bind_state_if_gt
                0x00038648       0x28
 .text.lv_obj_bind_state_if_gt
                0x00038648       0x28 C:/SysGCC/m68k-elf/m68k-elf/lib/m68000\liblvgl.a(lv_observer.o)
                0x00038648                lv_obj_bind_state_if_gt

.text.lv_obj_bind_state_if_ge
                0x00038670       0x28
 .text.lv_obj_bind_state_if_ge
                0x00038670       0x28 C:/SysGCC/m68k-elf/m68k-elf/lib/m68000\liblvgl.a(lv_observer.o)
                0x00038670                lv_obj_bind_state_if_ge

.text.lv_obj_bind_state_if_lt
                0x00038698       0x2a
 .text.lv_obj_bind_state_if_lt
                0x00038698       0x2a C:/SysGCC/m68k-elf/m68k-elf/lib/m68000\liblvgl.a(lv_observer.o)
                0x00038698                lv_obj_bind_state_if_lt

.text.lv_obj_bind_state_if_le
                0x000386c2       0x2a
 .text.lv_obj_bind_state_if_le
                0x000386c2       0x2a C:/SysGCC/m68k-elf/m68k-elf/lib/m68000\liblvgl.a(lv_observer.o)
                0x000386c2                lv_obj_bind_state_if_le

.text.lv_obj_bind_checked
                0x000386ec       0x4a
 .text.lv_obj_bind_checked
                0x000386ec       0x4a C:/SysGCC/m68k-elf/m68k-elf/lib/m68000\liblvgl.a(lv_observer.o)
                0x000386ec                lv_obj_bind_checked

.text.lv_observer_get_target_obj
                0x00038736        0xa
 .text.lv_observer_get_target_obj
                0x00038736        0xa C:/SysGCC/m68k-elf/m68k-elf/lib/m68000\liblvgl.a(lv_observer.o)
                0x00038736                lv_observer_get_target_obj

.text.lv_observer_get_user_data
                0x00038740        0xa
 .text.lv_observer_get_user_data
                0x00038740        0xa C:/SysGCC/m68k-elf/m68k-elf/lib/m68000\liblvgl.a(lv_observer.o)
                0x00038740                lv_observer_get_user_data

.text.wait_for_flushing
                0x0003874a       0x5a
 .text.wait_for_flushing
                0x0003874a       0x5a C:/SysGCC/m68k-elf/m68k-elf/lib/m68000\liblvgl.a(lv_refr.o)

.text.draw_buf_flush
                0x000387a4      0x118
 .text.draw_buf_flush
                0x000387a4      0x118 C:/SysGCC/m68k-elf/m68k-elf/lib/m68000\liblvgl.a(lv_refr.o)

.text.layer_reshape_draw_buf
                0x000388bc       0x3c
 .text.layer_reshape_draw_buf
                0x000388bc       0x3c C:/SysGCC/m68k-elf/m68k-elf/lib/m68000\liblvgl.a(lv_refr.o)

.text.lv_refr_init
                0x000388f8        0x2
 .text.lv_refr_init
                0x000388f8        0x2 C:/SysGCC/m68k-elf/m68k-elf/lib/m68000\liblvgl.a(lv_refr.o)
                0x000388f8                lv_refr_init

.text.lv_refr_deinit
                0x000388fa        0x2
 .text.lv_refr_deinit
                0x000388fa        0x2 C:/SysGCC/m68k-elf/m68k-elf/lib/m68000\liblvgl.a(lv_refr.o)
                0x000388fa                lv_refr_deinit

.text.lv_inv_area
                0x000388fc      0x166
 .text.lv_inv_area
                0x000388fc      0x166 C:/SysGCC/m68k-elf/m68k-elf/lib/m68000\liblvgl.a(lv_refr.o)
                0x000388fc                lv_inv_area

.text.lv_refr_get_disp_refreshing
                0x00038a62        0x8
 .text.lv_refr_get_disp_refreshing
                0x00038a62        0x8 C:/SysGCC/m68k-elf/m68k-elf/lib/m68000\liblvgl.a(lv_refr.o)
                0x00038a62                lv_refr_get_disp_refreshing

.text.lv_refr_set_disp_refreshing
                0x00038a6a        0xa
 .text.lv_refr_set_disp_refreshing
                0x00038a6a        0xa C:/SysGCC/m68k-elf/m68k-elf/lib/m68000\liblvgl.a(lv_refr.o)
                0x00038a6a                lv_refr_set_disp_refreshing

.text.lv_refr_get_top_obj
                0x00038a74       0xd0
 .text.lv_refr_get_top_obj
                0x00038a74       0xd0 C:/SysGCC/m68k-elf/m68k-elf/lib/m68000\liblvgl.a(lv_refr.o)
                0x00038a74                lv_refr_get_top_obj

.text.lv_obj_refr
                0x00038b44      0x582
 .text.lv_obj_refr
                0x00038b44      0x582 C:/SysGCC/m68k-elf/m68k-elf/lib/m68000\liblvgl.a(lv_refr.o)
                0x00038b44                lv_obj_refr

.text.lv_obj_redraw
                0x000390c6      0x406
 .text.lv_obj_redraw
                0x000390c6      0x406 C:/SysGCC/m68k-elf/m68k-elf/lib/m68000\liblvgl.a(lv_refr.o)
                0x000390c6                lv_obj_redraw

.text.refr_obj_and_children
                0x000394cc       0xec
 .text.refr_obj_and_children
                0x000394cc       0xec C:/SysGCC/m68k-elf/m68k-elf/lib/m68000\liblvgl.a(lv_refr.o)

.text.refr_configured_layer
                0x000395b8      0x17a
 .text.refr_configured_layer
                0x000395b8      0x17a C:/SysGCC/m68k-elf/m68k-elf/lib/m68000\liblvgl.a(lv_refr.o)

.text.refr_area
                0x00039732      0x2ce
 .text.refr_area
                0x00039732      0x2ce C:/SysGCC/m68k-elf/m68k-elf/lib/m68000\liblvgl.a(lv_refr.o)

.text.lv_display_refr_timer
                0x00039a00      0x748
 .text.lv_display_refr_timer
                0x00039a00      0x748 C:/SysGCC/m68k-elf/m68k-elf/lib/m68000\liblvgl.a(lv_refr.o)
                0x00039a00                lv_display_refr_timer

.text.lv_refr_now
                0x0003a148       0x5e
 .text.lv_refr_now
                0x0003a148       0x5e C:/SysGCC/m68k-elf/m68k-elf/lib/m68000\liblvgl.a(lv_refr.o)
                0x0003a148                lv_refr_now

.text.disp_event_cb
                0x0003a1a6       0x3e
 .text.disp_event_cb
                0x0003a1a6       0x3e C:/SysGCC/m68k-elf/m68k-elf/lib/m68000\liblvgl.a(lv_display.o)

.text.invalidate_layout_cb
                0x0003a1e4       0x10
 .text.invalidate_layout_cb
                0x0003a1e4       0x10 C:/SysGCC/m68k-elf/m68k-elf/lib/m68000\liblvgl.a(lv_display.o)

.text.scr_anim_completed
                0x0003a1f4       0x96
 .text.scr_anim_completed
                0x0003a1f4       0x96 C:/SysGCC/m68k-elf/m68k-elf/lib/m68000\liblvgl.a(lv_display.o)

.text.scr_load_anim_start
                0x0003a28a       0x32
 .text.scr_load_anim_start
                0x0003a28a       0x32 C:/SysGCC/m68k-elf/m68k-elf/lib/m68000\liblvgl.a(lv_display.o)

.text.load_new_screen
                0x0003a2bc       0x8e
 .text.load_new_screen
                0x0003a2bc       0x8e C:/SysGCC/m68k-elf/m68k-elf/lib/m68000\liblvgl.a(lv_display.o)

.text.opa_scale_anim
                0x0003a34a       0x1a
 .text.opa_scale_anim
                0x0003a34a       0x1a C:/SysGCC/m68k-elf/m68k-elf/lib/m68000\liblvgl.a(lv_display.o)

.text.set_x_anim
                0x0003a364        0x6
 .text.set_x_anim
                0x0003a364        0x6 C:/SysGCC/m68k-elf/m68k-elf/lib/m68000\liblvgl.a(lv_display.o)

.text.lv_display_create
                0x0003a36a      0x230
 .text.lv_display_create
                0x0003a36a      0x230 C:/SysGCC/m68k-elf/m68k-elf/lib/m68000\liblvgl.a(lv_display.o)
                0x0003a36a                lv_display_create

.text.lv_display_set_default
                0x0003a59a        0xa
 .text.lv_display_set_default
                0x0003a59a        0xa C:/SysGCC/m68k-elf/m68k-elf/lib/m68000\liblvgl.a(lv_display.o)
                0x0003a59a                lv_display_set_default

.text.lv_display_get_default
                0x0003a5a4        0x8
 .text.lv_display_get_default
                0x0003a5a4        0x8 C:/SysGCC/m68k-elf/m68k-elf/lib/m68000\liblvgl.a(lv_display.o)
                0x0003a5a4                lv_display_get_default

.text.lv_display_get_next
                0x0003a5ac       0x26
 .text.lv_display_get_next
                0x0003a5ac       0x26 C:/SysGCC/m68k-elf/m68k-elf/lib/m68000\liblvgl.a(lv_display.o)
                0x0003a5ac                lv_display_get_next

.text.lv_display_set_physical_resolution
                0x0003a5d2       0x34
 .text.lv_display_set_physical_resolution
                0x0003a5d2       0x34 C:/SysGCC/m68k-elf/m68k-elf/lib/m68000\liblvgl.a(lv_display.o)
                0x0003a5d2                lv_display_set_physical_resolution

.text.lv_display_set_offset
                0x0003a606       0x34
 .text.lv_display_set_offset
                0x0003a606       0x34 C:/SysGCC/m68k-elf/m68k-elf/lib/m68000\liblvgl.a(lv_display.o)
                0x0003a606                lv_display_set_offset

.text.lv_display_set_dpi
                0x0003a63a       0x1e
 .text.lv_display_set_dpi
                0x0003a63a       0x1e C:/SysGCC/m68k-elf/m68k-elf/lib/m68000\liblvgl.a(lv_display.o)
                0x0003a63a                lv_display_set_dpi

.text.lv_display_get_horizontal_resolution
                0x0003a658       0x3e
 .text.lv_display_get_horizontal_resolution
                0x0003a658       0x3e C:/SysGCC/m68k-elf/m68k-elf/lib/m68000\liblvgl.a(lv_display.o)
                0x0003a658                lv_display_get_horizontal_resolution

.text.lv_display_get_vertical_resolution
                0x0003a696       0x3e
 .text.lv_display_get_vertical_resolution
                0x0003a696       0x3e C:/SysGCC/m68k-elf/m68k-elf/lib/m68000\liblvgl.a(lv_display.o)
                0x0003a696                lv_display_get_vertical_resolution

.text.lv_display_get_original_horizontal_resolution
                0x0003a6d4       0x1e
 .text.lv_display_get_original_horizontal_resolution
                0x0003a6d4       0x1e C:/SysGCC/m68k-elf/m68k-elf/lib/m68000\liblvgl.a(lv_display.o)
                0x0003a6d4                lv_display_get_original_horizontal_resolution

.text.lv_display_get_original_vertical_resolution
                0x0003a6f2       0x20
 .text.lv_display_get_original_vertical_resolution
                0x0003a6f2       0x20 C:/SysGCC/m68k-elf/m68k-elf/lib/m68000\liblvgl.a(lv_display.o)
                0x0003a6f2                lv_display_get_original_vertical_resolution

.text.lv_display_get_physical_horizontal_resolution
                0x0003a712       0x4a
 .text.lv_display_get_physical_horizontal_resolution
                0x0003a712       0x4a C:/SysGCC/m68k-elf/m68k-elf/lib/m68000\liblvgl.a(lv_display.o)
                0x0003a712                lv_display_get_physical_horizontal_resolution

.text.lv_display_get_physical_vertical_resolution
                0x0003a75c       0x4a
 .text.lv_display_get_physical_vertical_resolution
                0x0003a75c       0x4a C:/SysGCC/m68k-elf/m68k-elf/lib/m68000\liblvgl.a(lv_display.o)
                0x0003a75c                lv_display_get_physical_vertical_resolution

.text.lv_display_get_offset_x
                0x0003a7a6       0x6c
 .text.lv_display_get_offset_x
                0x0003a7a6       0x6c C:/SysGCC/m68k-elf/m68k-elf/lib/m68000\liblvgl.a(lv_display.o)
                0x0003a7a6                lv_display_get_offset_x

.text.lv_display_get_offset_y
                0x0003a812       0x6c
 .text.lv_display_get_offset_y
                0x0003a812       0x6c C:/SysGCC/m68k-elf/m68k-elf/lib/m68000\liblvgl.a(lv_display.o)
                0x0003a812                lv_display_get_offset_y

.text.lv_display_get_dpi
                0x0003a87e       0x20
 .text.lv_display_get_dpi
                0x0003a87e       0x20 C:/SysGCC/m68k-elf/m68k-elf/lib/m68000\liblvgl.a(lv_display.o)
                0x0003a87e                lv_display_get_dpi

.text.lv_display_set_draw_buffers
                0x0003a89e       0x30
 .text.lv_display_set_draw_buffers
                0x0003a89e       0x30 C:/SysGCC/m68k-elf/m68k-elf/lib/m68000\liblvgl.a(lv_display.o)
                0x0003a89e                lv_display_set_draw_buffers

.text.lv_display_set_3rd_draw_buffer
                0x0003a8ce       0x2e
 .text.lv_display_set_3rd_draw_buffer
                0x0003a8ce       0x2e C:/SysGCC/m68k-elf/m68k-elf/lib/m68000\liblvgl.a(lv_display.o)
                0x0003a8ce                lv_display_set_3rd_draw_buffer

.text.lv_display_set_render_mode
                0x0003a8fc       0x1e
 .text.lv_display_set_render_mode
                0x0003a8fc       0x1e C:/SysGCC/m68k-elf/m68k-elf/lib/m68000\liblvgl.a(lv_display.o)
                0x0003a8fc                lv_display_set_render_mode

.text.lv_display_set_flush_cb
                0x0003a91a       0x1e
 .text.lv_display_set_flush_cb
                0x0003a91a       0x1e C:/SysGCC/m68k-elf/m68k-elf/lib/m68000\liblvgl.a(lv_display.o)
                0x0003a91a                lv_display_set_flush_cb

.text.lv_display_set_flush_wait_cb
                0x0003a938       0x1e
 .text.lv_display_set_flush_wait_cb
                0x0003a938       0x1e C:/SysGCC/m68k-elf/m68k-elf/lib/m68000\liblvgl.a(lv_display.o)
                0x0003a938                lv_display_set_flush_wait_cb

.text.lv_display_get_color_format
                0x0003a956       0x20
 .text.lv_display_get_color_format
                0x0003a956       0x20 C:/SysGCC/m68k-elf/m68k-elf/lib/m68000\liblvgl.a(lv_display.o)
                0x0003a956                lv_display_get_color_format

.text.lv_display_set_buffers
                0x0003a976      0x114
 .text.lv_display_set_buffers
                0x0003a976      0x114 C:/SysGCC/m68k-elf/m68k-elf/lib/m68000\liblvgl.a(lv_display.o)
                0x0003a976                lv_display_set_buffers

.text.lv_display_set_buffers_with_stride
                0x0003aa8a       0xe6
 .text.lv_display_set_buffers_with_stride
                0x0003aa8a       0xe6 C:/SysGCC/m68k-elf/m68k-elf/lib/m68000\liblvgl.a(lv_display.o)
                0x0003aa8a                lv_display_set_buffers_with_stride

.text.lv_display_set_tile_cnt
                0x0003ab70       0x3a
 .text.lv_display_set_tile_cnt
                0x0003ab70       0x3a C:/SysGCC/m68k-elf/m68k-elf/lib/m68000\liblvgl.a(lv_display.o)
                0x0003ab70                lv_display_set_tile_cnt

.text.lv_display_get_tile_cnt
                0x0003abaa       0x28
 .text.lv_display_get_tile_cnt
                0x0003abaa       0x28 C:/SysGCC/m68k-elf/m68k-elf/lib/m68000\liblvgl.a(lv_display.o)
                0x0003abaa                lv_display_get_tile_cnt

.text.lv_display_set_antialiasing
                0x0003abd2       0x2c
 .text.lv_display_set_antialiasing
                0x0003abd2       0x2c C:/SysGCC/m68k-elf/m68k-elf/lib/m68000\liblvgl.a(lv_display.o)
                0x0003abd2                lv_display_set_antialiasing

.text.lv_display_get_antialiasing
                0x0003abfe       0x22
 .text.lv_display_get_antialiasing
                0x0003abfe       0x22 C:/SysGCC/m68k-elf/m68k-elf/lib/m68000\liblvgl.a(lv_display.o)
                0x0003abfe                lv_display_get_antialiasing

.text.lv_display_get_render_mode
                0x0003ac20       0x1e
 .text.lv_display_get_render_mode
                0x0003ac20       0x1e C:/SysGCC/m68k-elf/m68k-elf/lib/m68000\liblvgl.a(lv_display.o)
                0x0003ac20                lv_display_get_render_mode

.text.lv_display_flush_ready
                0x0003ac3e        0xc
 .text.lv_display_flush_ready
                0x0003ac3e        0xc C:/SysGCC/m68k-elf/m68k-elf/lib/m68000\liblvgl.a(lv_display.o)
                0x0003ac3e                lv_display_flush_ready

.text.lv_display_flush_is_last
                0x0003ac4a        0xe
 .text.lv_display_flush_is_last
                0x0003ac4a        0xe C:/SysGCC/m68k-elf/m68k-elf/lib/m68000\liblvgl.a(lv_display.o)
                0x0003ac4a                lv_display_flush_is_last

.text.lv_display_is_double_buffered
                0x0003ac58        0xe
 .text.lv_display_is_double_buffered
                0x0003ac58        0xe C:/SysGCC/m68k-elf/m68k-elf/lib/m68000\liblvgl.a(lv_display.o)
                0x0003ac58                lv_display_is_double_buffered

.text.lv_display_get_screen_active
                0x0003ac66       0x20
 .text.lv_display_get_screen_active
                0x0003ac66       0x20 C:/SysGCC/m68k-elf/m68k-elf/lib/m68000\liblvgl.a(lv_display.o)
                0x0003ac66                lv_display_get_screen_active

.text.lv_display_get_screen_loading
                0x0003ac86       0x20
 .text.lv_display_get_screen_loading
                0x0003ac86       0x20 C:/SysGCC/m68k-elf/m68k-elf/lib/m68000\liblvgl.a(lv_display.o)
                0x0003ac86                lv_display_get_screen_loading

.text.lv_display_get_screen_prev
                0x0003aca6       0x20
 .text.lv_display_get_screen_prev
                0x0003aca6       0x20 C:/SysGCC/m68k-elf/m68k-elf/lib/m68000\liblvgl.a(lv_display.o)
                0x0003aca6                lv_display_get_screen_prev

.text.lv_display_get_layer_top
                0x0003acc6       0x20
 .text.lv_display_get_layer_top
                0x0003acc6       0x20 C:/SysGCC/m68k-elf/m68k-elf/lib/m68000\liblvgl.a(lv_display.o)
                0x0003acc6                lv_display_get_layer_top

.text.lv_display_get_layer_sys
                0x0003ace6       0x20
 .text.lv_display_get_layer_sys
                0x0003ace6       0x20 C:/SysGCC/m68k-elf/m68k-elf/lib/m68000\liblvgl.a(lv_display.o)
                0x0003ace6                lv_display_get_layer_sys

.text.lv_display_get_layer_bottom
                0x0003ad06       0x20
 .text.lv_display_get_layer_bottom
                0x0003ad06       0x20 C:/SysGCC/m68k-elf/m68k-elf/lib/m68000\liblvgl.a(lv_display.o)
                0x0003ad06                lv_display_get_layer_bottom

.text.lv_screen_load_anim
                0x0003ad26      0x3fa
 .text.lv_screen_load_anim
                0x0003ad26      0x3fa C:/SysGCC/m68k-elf/m68k-elf/lib/m68000\liblvgl.a(lv_display.o)
                0x0003ad26                lv_screen_load_anim

.text.lv_screen_load
                0x0003b120       0x18
 .text.lv_screen_load
                0x0003b120       0x18 C:/SysGCC/m68k-elf/m68k-elf/lib/m68000\liblvgl.a(lv_display.o)
                0x0003b120                lv_screen_load

.text.lv_display_add_event_cb
                0x0003b138        0xe
 .text.lv_display_add_event_cb
                0x0003b138        0xe C:/SysGCC/m68k-elf/m68k-elf/lib/m68000\liblvgl.a(lv_display.o)
                0x0003b138                lv_display_add_event_cb

.text.lv_display_get_event_count
                0x0003b146        0xe
 .text.lv_display_get_event_count
                0x0003b146        0xe C:/SysGCC/m68k-elf/m68k-elf/lib/m68000\liblvgl.a(lv_display.o)
                0x0003b146                lv_display_get_event_count

.text.lv_display_get_event_dsc
                0x0003b154        0xe
 .text.lv_display_get_event_dsc
                0x0003b154        0xe C:/SysGCC/m68k-elf/m68k-elf/lib/m68000\liblvgl.a(lv_display.o)
                0x0003b154                lv_display_get_event_dsc

.text.lv_display_delete_event
                0x0003b162        0xe
 .text.lv_display_delete_event
                0x0003b162        0xe C:/SysGCC/m68k-elf/m68k-elf/lib/m68000\liblvgl.a(lv_display.o)
                0x0003b162                lv_display_delete_event

.text.lv_display_remove_event_cb_with_user_data
                0x0003b170       0x66
 .text.lv_display_remove_event_cb_with_user_data
                0x0003b170       0x66 C:/SysGCC/m68k-elf/m68k-elf/lib/m68000\liblvgl.a(lv_display.o)
                0x0003b170                lv_display_remove_event_cb_with_user_data

.text.lv_display_send_event
                0x0003b1d6       0x1e
 .text.lv_display_send_event
                0x0003b1d6       0x1e C:/SysGCC/m68k-elf/m68k-elf/lib/m68000\liblvgl.a(lv_display.o)
                0x0003b1d6                lv_display_send_event

.text.lv_display_delete
                0x0003b1f4      0x14c
 .text.lv_display_delete
                0x0003b1f4      0x14c C:/SysGCC/m68k-elf/m68k-elf/lib/m68000\liblvgl.a(lv_display.o)
                0x0003b1f4                lv_display_delete

.text.update_resolution
                0x0003b340      0x174
 .text.update_resolution
                0x0003b340      0x174 C:/SysGCC/m68k-elf/m68k-elf/lib/m68000\liblvgl.a(lv_display.o)

.text.lv_display_set_resolution
                0x0003b4b4       0x3a
 .text.lv_display_set_resolution
                0x0003b4b4       0x3a C:/SysGCC/m68k-elf/m68k-elf/lib/m68000\liblvgl.a(lv_display.o)
                0x0003b4b4                lv_display_set_resolution

.text.lv_display_set_color_format
                0x0003b4ee       0x9a
 .text.lv_display_set_color_format
                0x0003b4ee       0x9a C:/SysGCC/m68k-elf/m68k-elf/lib/m68000\liblvgl.a(lv_display.o)
                0x0003b4ee                lv_display_set_color_format

.text.lv_event_get_invalidated_area
                0x0003b588       0x16
 .text.lv_event_get_invalidated_area
                0x0003b588       0x16 C:/SysGCC/m68k-elf/m68k-elf/lib/m68000\liblvgl.a(lv_display.o)
                0x0003b588                lv_event_get_invalidated_area

.text.lv_display_set_rotation
                0x0003b59e       0x36
 .text.lv_display_set_rotation
                0x0003b59e       0x36 C:/SysGCC/m68k-elf/m68k-elf/lib/m68000\liblvgl.a(lv_display.o)
                0x0003b59e                lv_display_set_rotation

.text.lv_display_get_rotation
                0x0003b5d4       0x28
 .text.lv_display_get_rotation
                0x0003b5d4       0x28 C:/SysGCC/m68k-elf/m68k-elf/lib/m68000\liblvgl.a(lv_display.o)
                0x0003b5d4                lv_display_get_rotation

.text.lv_display_set_matrix_rotation
                0x0003b5fc        0x2
 .text.lv_display_set_matrix_rotation
                0x0003b5fc        0x2 C:/SysGCC/m68k-elf/m68k-elf/lib/m68000\liblvgl.a(lv_display.o)
                0x0003b5fc                lv_display_set_matrix_rotation

.text.lv_display_get_matrix_rotation
                0x0003b5fe       0x26
 .text.lv_display_get_matrix_rotation
                0x0003b5fe       0x26 C:/SysGCC/m68k-elf/m68k-elf/lib/m68000\liblvgl.a(lv_display.o)
                0x0003b5fe                lv_display_get_matrix_rotation

.text.lv_display_set_theme
                0x0003b624       0x98
 .text.lv_display_set_theme
                0x0003b624       0x98 C:/SysGCC/m68k-elf/m68k-elf/lib/m68000\liblvgl.a(lv_display.o)
                0x0003b624                lv_display_set_theme

.text.lv_display_get_theme
                0x0003b6bc       0x16
 .text.lv_display_get_theme
                0x0003b6bc       0x16 C:/SysGCC/m68k-elf/m68k-elf/lib/m68000\liblvgl.a(lv_display.o)
                0x0003b6bc                lv_display_get_theme

.text.lv_display_get_inactive_time
                0x0003b6d2       0x62
 .text.lv_display_get_inactive_time
                0x0003b6d2       0x62 C:/SysGCC/m68k-elf/m68k-elf/lib/m68000\liblvgl.a(lv_display.o)
                0x0003b6d2                lv_display_get_inactive_time

.text.lv_display_trigger_activity
                0x0003b734       0x26
 .text.lv_display_trigger_activity
                0x0003b734       0x26 C:/SysGCC/m68k-elf/m68k-elf/lib/m68000\liblvgl.a(lv_display.o)
                0x0003b734                lv_display_trigger_activity

.text.lv_display_enable_invalidation
                0x0003b75a       0x2c
 .text.lv_display_enable_invalidation
                0x0003b75a       0x2c C:/SysGCC/m68k-elf/m68k-elf/lib/m68000\liblvgl.a(lv_display.o)
                0x0003b75a                lv_display_enable_invalidation

.text.lv_display_is_invalidation_enabled
                0x0003b786       0x24
 .text.lv_display_is_invalidation_enabled
                0x0003b786       0x24 C:/SysGCC/m68k-elf/m68k-elf/lib/m68000\liblvgl.a(lv_display.o)
                0x0003b786                lv_display_is_invalidation_enabled

.text.lv_display_get_refr_timer
                0x0003b7aa       0x20
 .text.lv_display_get_refr_timer
                0x0003b7aa       0x20 C:/SysGCC/m68k-elf/m68k-elf/lib/m68000\liblvgl.a(lv_display.o)
                0x0003b7aa                lv_display_get_refr_timer

.text.lv_display_delete_refr_timer
                0x0003b7ca       0x30
 .text.lv_display_delete_refr_timer
                0x0003b7ca       0x30 C:/SysGCC/m68k-elf/m68k-elf/lib/m68000\liblvgl.a(lv_display.o)
                0x0003b7ca                lv_display_delete_refr_timer

.text.lv_display_send_vsync_event
                0x0003b7fa       0x36
 .text.lv_display_send_vsync_event
                0x0003b7fa       0x36 C:/SysGCC/m68k-elf/m68k-elf/lib/m68000\liblvgl.a(lv_display.o)
                0x0003b7fa                lv_display_send_vsync_event

.text.lv_display_register_vsync_event
                0x0003b830       0x56
 .text.lv_display_register_vsync_event
                0x0003b830       0x56 C:/SysGCC/m68k-elf/m68k-elf/lib/m68000\liblvgl.a(lv_display.o)
                0x0003b830                lv_display_register_vsync_event

.text.lv_display_unregister_vsync_event
                0x0003b886       0x58
 .text.lv_display_unregister_vsync_event
                0x0003b886       0x58 C:/SysGCC/m68k-elf/m68k-elf/lib/m68000\liblvgl.a(lv_display.o)
                0x0003b886                lv_display_unregister_vsync_event

.text.lv_display_set_user_data
                0x0003b8de       0x1e
 .text.lv_display_set_user_data
                0x0003b8de       0x1e C:/SysGCC/m68k-elf/m68k-elf/lib/m68000\liblvgl.a(lv_display.o)
                0x0003b8de                lv_display_set_user_data

.text.lv_display_set_driver_data
                0x0003b8fc       0x1e
 .text.lv_display_set_driver_data
                0x0003b8fc       0x1e C:/SysGCC/m68k-elf/m68k-elf/lib/m68000\liblvgl.a(lv_display.o)
                0x0003b8fc                lv_display_set_driver_data

.text.lv_display_get_user_data
                0x0003b91a       0x20
 .text.lv_display_get_user_data
                0x0003b91a       0x20 C:/SysGCC/m68k-elf/m68k-elf/lib/m68000\liblvgl.a(lv_display.o)
                0x0003b91a                lv_display_get_user_data

.text.lv_display_get_driver_data
                0x0003b93a       0x20
 .text.lv_display_get_driver_data
                0x0003b93a       0x20 C:/SysGCC/m68k-elf/m68k-elf/lib/m68000\liblvgl.a(lv_display.o)
                0x0003b93a                lv_display_get_driver_data

.text.lv_display_get_buf_active
                0x0003b95a       0x20
 .text.lv_display_get_buf_active
                0x0003b95a       0x20 C:/SysGCC/m68k-elf/m68k-elf/lib/m68000\liblvgl.a(lv_display.o)
                0x0003b95a                lv_display_get_buf_active

.text.lv_display_rotate_area
                0x0003b97a       0xaa
 .text.lv_display_rotate_area
                0x0003b97a       0xaa C:/SysGCC/m68k-elf/m68k-elf/lib/m68000\liblvgl.a(lv_display.o)
                0x0003b97a                lv_display_rotate_area

.text.lv_display_rotate_point
                0x0003ba24       0x6e
 .text.lv_display_rotate_point
                0x0003ba24       0x6e C:/SysGCC/m68k-elf/m68k-elf/lib/m68000\liblvgl.a(lv_display.o)
                0x0003ba24                lv_display_rotate_point

.text.lv_display_get_draw_buf_size
                0x0003ba92       0x2a
 .text.lv_display_get_draw_buf_size
                0x0003ba92       0x2a C:/SysGCC/m68k-elf/m68k-elf/lib/m68000\liblvgl.a(lv_display.o)
                0x0003ba92                lv_display_get_draw_buf_size

.text.lv_display_get_invalidated_draw_buf_size
                0x0003babc       0x9e
 .text.lv_display_get_invalidated_draw_buf_size
                0x0003babc       0x9e C:/SysGCC/m68k-elf/m68k-elf/lib/m68000\liblvgl.a(lv_display.o)
                0x0003babc                lv_display_get_invalidated_draw_buf_size

.text.lv_screen_active
                0x0003bb5a       0x10
 .text.lv_screen_active
                0x0003bb5a       0x10 C:/SysGCC/m68k-elf/m68k-elf/lib/m68000\liblvgl.a(lv_display.o)
                0x0003bb5a                lv_screen_active

.text.lv_layer_top
                0x0003bb6a       0x10
 .text.lv_layer_top
                0x0003bb6a       0x10 C:/SysGCC/m68k-elf/m68k-elf/lib/m68000\liblvgl.a(lv_display.o)
                0x0003bb6a                lv_layer_top

.text.lv_layer_sys
                0x0003bb7a       0x10
 .text.lv_layer_sys
                0x0003bb7a       0x10 C:/SysGCC/m68k-elf/m68k-elf/lib/m68000\liblvgl.a(lv_display.o)
                0x0003bb7a                lv_layer_sys

.text.lv_layer_bottom
                0x0003bb8a       0x10
 .text.lv_layer_bottom
                0x0003bb8a       0x10 C:/SysGCC/m68k-elf/m68k-elf/lib/m68000\liblvgl.a(lv_display.o)
                0x0003bb8a                lv_layer_bottom

.text.lv_dpx    0x0003bb9a       0x42
 .text.lv_dpx   0x0003bb9a       0x42 C:/SysGCC/m68k-elf/m68k-elf/lib/m68000\liblvgl.a(lv_display.o)
                0x0003bb9a                lv_dpx

.text.lv_display_dpx
                0x0003bbdc       0x44
 .text.lv_display_dpx
                0x0003bbdc       0x44 C:/SysGCC/m68k-elf/m68k-elf/lib/m68000\liblvgl.a(lv_display.o)
                0x0003bbdc                lv_display_dpx

.text.lv_draw_init
                0x0003bc20        0x2
 .text.lv_draw_init
                0x0003bc20        0x2 C:/SysGCC/m68k-elf/m68k-elf/lib/m68000\liblvgl.a(lv_draw.o)
                0x0003bc20                lv_draw_init

.text.lv_draw_deinit
                0x0003bc22       0x3e
 .text.lv_draw_deinit
                0x0003bc22       0x3e C:/SysGCC/m68k-elf/m68k-elf/lib/m68000\liblvgl.a(lv_draw.o)
                0x0003bc22                lv_draw_deinit

.text.lv_draw_create_unit
                0x0003bc60       0x2a
 .text.lv_draw_create_unit
                0x0003bc60       0x2a C:/SysGCC/m68k-elf/m68k-elf/lib/m68000\liblvgl.a(lv_draw.o)
                0x0003bc60                lv_draw_create_unit

.text.lv_draw_add_task
                0x0003bc8a       0xaa
 .text.lv_draw_add_task
                0x0003bc8a       0xaa C:/SysGCC/m68k-elf/m68k-elf/lib/m68000\liblvgl.a(lv_draw.o)
                0x0003bc8a                lv_draw_add_task

.text.lv_draw_wait_for_finish
                0x0003bd34        0x2
 .text.lv_draw_wait_for_finish
                0x0003bd34        0x2 C:/SysGCC/m68k-elf/m68k-elf/lib/m68000\liblvgl.a(lv_draw.o)
                0x0003bd34                lv_draw_wait_for_finish

.text.lv_draw_dispatch_wait_for_request
                0x0003bd36       0x12
 .text.lv_draw_dispatch_wait_for_request
                0x0003bd36       0x12 C:/SysGCC/m68k-elf/m68k-elf/lib/m68000\liblvgl.a(lv_draw.o)
                0x0003bd36                lv_draw_dispatch_wait_for_request

.text.lv_draw_dispatch_request
                0x0003bd48        0xa
 .text.lv_draw_dispatch_request
                0x0003bd48        0xa C:/SysGCC/m68k-elf/m68k-elf/lib/m68000\liblvgl.a(lv_draw.o)
                0x0003bd48                lv_draw_dispatch_request

.text.lv_draw_get_unit_count
                0x0003bd52        0x8
 .text.lv_draw_get_unit_count
                0x0003bd52        0x8 C:/SysGCC/m68k-elf/m68k-elf/lib/m68000\liblvgl.a(lv_draw.o)
                0x0003bd52                lv_draw_get_unit_count

.text.lv_draw_get_next_available_task
                0x0003bd5a       0xf2
 .text.lv_draw_get_next_available_task
                0x0003bd5a       0xf2 C:/SysGCC/m68k-elf/m68k-elf/lib/m68000\liblvgl.a(lv_draw.o)
                0x0003bd5a                lv_draw_get_next_available_task

.text.lv_draw_get_available_task
                0x0003be4c       0x4e
 .text.lv_draw_get_available_task
                0x0003be4c       0x4e C:/SysGCC/m68k-elf/m68k-elf/lib/m68000\liblvgl.a(lv_draw.o)
                0x0003be4c                lv_draw_get_available_task

.text.lv_draw_get_dependent_count
                0x0003be9a       0x56
 .text.lv_draw_get_dependent_count
                0x0003be9a       0x56 C:/SysGCC/m68k-elf/m68k-elf/lib/m68000\liblvgl.a(lv_draw.o)
                0x0003be9a                lv_draw_get_dependent_count

.text.lv_draw_unit_send_event
                0x0003bef0       0x7a
 .text.lv_draw_unit_send_event
                0x0003bef0       0x7a C:/SysGCC/m68k-elf/m68k-elf/lib/m68000\liblvgl.a(lv_draw.o)
                0x0003bef0                lv_draw_unit_send_event

.text.lv_draw_dispatch_layer
                0x0003bf6a      0x1b4
 .text.lv_draw_dispatch_layer
                0x0003bf6a      0x1b4 C:/SysGCC/m68k-elf/m68k-elf/lib/m68000\liblvgl.a(lv_draw.o)
                0x0003bf6a                lv_draw_dispatch_layer

.text.lv_draw_dispatch
                0x0003c11e       0x4a
 .text.lv_draw_dispatch
                0x0003c11e       0x4a C:/SysGCC/m68k-elf/m68k-elf/lib/m68000\liblvgl.a(lv_draw.o)
                0x0003c11e                lv_draw_dispatch

.text.lv_draw_finalize_task_creation
                0x0003c168       0xc8
 .text.lv_draw_finalize_task_creation
                0x0003c168       0xc8 C:/SysGCC/m68k-elf/m68k-elf/lib/m68000\liblvgl.a(lv_draw.o)
                0x0003c168                lv_draw_finalize_task_creation

.text.lv_layer_reset
                0x0003c230       0x3e
 .text.lv_layer_reset
                0x0003c230       0x3e C:/SysGCC/m68k-elf/m68k-elf/lib/m68000\liblvgl.a(lv_draw.o)
                0x0003c230                lv_layer_reset

.text.lv_layer_init
                0x0003c26e       0x24
 .text.lv_layer_init
                0x0003c26e       0x24 C:/SysGCC/m68k-elf/m68k-elf/lib/m68000\liblvgl.a(lv_draw.o)
                0x0003c26e                lv_layer_init

.text.lv_draw_layer_init
                0x0003c292       0x9e
 .text.lv_draw_layer_init
                0x0003c292       0x9e C:/SysGCC/m68k-elf/m68k-elf/lib/m68000\liblvgl.a(lv_draw.o)
                0x0003c292                lv_draw_layer_init

.text.lv_draw_layer_create
                0x0003c330       0x50
 .text.lv_draw_layer_create
                0x0003c330       0x50 C:/SysGCC/m68k-elf/m68k-elf/lib/m68000\liblvgl.a(lv_draw.o)
                0x0003c330                lv_draw_layer_create

.text.lv_draw_layer_alloc_buf
                0x0003c380       0x8c
 .text.lv_draw_layer_alloc_buf
                0x0003c380       0x8c C:/SysGCC/m68k-elf/m68k-elf/lib/m68000\liblvgl.a(lv_draw.o)
                0x0003c380                lv_draw_layer_alloc_buf

.text.lv_draw_layer_go_to_xy
                0x0003c40c        0xe
 .text.lv_draw_layer_go_to_xy
                0x0003c40c        0xe C:/SysGCC/m68k-elf/m68k-elf/lib/m68000\liblvgl.a(lv_draw.o)
                0x0003c40c                lv_draw_layer_go_to_xy

.text.lv_draw_task_get_type
                0x0003c41a        0xa
 .text.lv_draw_task_get_type
                0x0003c41a        0xa C:/SysGCC/m68k-elf/m68k-elf/lib/m68000\liblvgl.a(lv_draw.o)
                0x0003c41a                lv_draw_task_get_type

.text.lv_draw_task_get_draw_dsc
                0x0003c424        0xa
 .text.lv_draw_task_get_draw_dsc
                0x0003c424        0xa C:/SysGCC/m68k-elf/m68k-elf/lib/m68000\liblvgl.a(lv_draw.o)
                0x0003c424                lv_draw_task_get_draw_dsc

.text.lv_draw_task_get_area
                0x0003c42e       0x1c
 .text.lv_draw_task_get_area
                0x0003c42e       0x1c C:/SysGCC/m68k-elf/m68k-elf/lib/m68000\liblvgl.a(lv_draw.o)
                0x0003c42e                lv_draw_task_get_area

.text.lv_draw_layer_create_drop_shadow
                0x0003c44a       0x50
 .text.lv_draw_layer_create_drop_shadow
                0x0003c44a       0x50 C:/SysGCC/m68k-elf/m68k-elf/lib/m68000\liblvgl.a(lv_draw.o)
                0x0003c44a                lv_draw_layer_create_drop_shadow

.text.lv_draw_layer_finish_drop_shadow
                0x0003c49a       0xb0
 .text.lv_draw_layer_finish_drop_shadow
                0x0003c49a       0xb0 C:/SysGCC/m68k-elf/m68k-elf/lib/m68000\liblvgl.a(lv_draw.o)
                0x0003c49a                lv_draw_layer_finish_drop_shadow

.text.lv_draw_arc_dsc_init
                0x0003c54a       0x50
 .text.lv_draw_arc_dsc_init
                0x0003c54a       0x50 C:/SysGCC/m68k-elf/m68k-elf/lib/m68000\liblvgl.a(lv_draw_arc.o)
                0x0003c54a                lv_draw_arc_dsc_init

.text.lv_draw_task_get_arc_dsc
                0x0003c59a       0x16
 .text.lv_draw_task_get_arc_dsc
                0x0003c59a       0x16 C:/SysGCC/m68k-elf/m68k-elf/lib/m68000\liblvgl.a(lv_draw_arc.o)
                0x0003c59a                lv_draw_task_get_arc_dsc

.text.lv_draw_arc
                0x0003c5b0       0xda
 .text.lv_draw_arc
                0x0003c5b0       0xda C:/SysGCC/m68k-elf/m68k-elf/lib/m68000\liblvgl.a(lv_draw_arc.o)
                0x0003c5b0                lv_draw_arc

.text.lv_draw_arc_get_area
                0x0003c68a      0x550
 .text.lv_draw_arc_get_area
                0x0003c68a      0x550 C:/SysGCC/m68k-elf/m68k-elf/lib/m68000\liblvgl.a(lv_draw_arc.o)
                0x0003c68a                lv_draw_arc_get_area

.text.lv_draw_blur_dsc_init
                0x0003cbda       0x22
 .text.lv_draw_blur_dsc_init
                0x0003cbda       0x22 C:/SysGCC/m68k-elf/m68k-elf/lib/m68000\liblvgl.a(lv_draw_blur.o)
                0x0003cbda                lv_draw_blur_dsc_init

.text.lv_draw_task_get_blur_dsc
                0x0003cbfc       0x16
 .text.lv_draw_task_get_blur_dsc
                0x0003cbfc       0x16 C:/SysGCC/m68k-elf/m68k-elf/lib/m68000\liblvgl.a(lv_draw_blur.o)
                0x0003cbfc                lv_draw_task_get_blur_dsc

.text.lv_draw_blur
                0x0003cc12       0x52
 .text.lv_draw_blur
                0x0003cc12       0x52 C:/SysGCC/m68k-elf/m68k-elf/lib/m68000\liblvgl.a(lv_draw_blur.o)
                0x0003cc12                lv_draw_blur

.text.buf_align
                0x0003cc64        0xe
 .text.buf_align
                0x0003cc64        0xe C:/SysGCC/m68k-elf/m68k-elf/lib/m68000\liblvgl.a(lv_draw_buf.o)

.text.width_to_stride
                0x0003cc72       0x26
 .text.width_to_stride
                0x0003cc72       0x26 C:/SysGCC/m68k-elf/m68k-elf/lib/m68000\liblvgl.a(lv_draw_buf.o)

.text.buf_free  0x0003cc98        0x6
 .text.buf_free
                0x0003cc98        0x6 C:/SysGCC/m68k-elf/m68k-elf/lib/m68000\liblvgl.a(lv_draw_buf.o)

.text.buf_malloc
                0x0003cc9e        0xa
 .text.buf_malloc
                0x0003cc9e        0xa C:/SysGCC/m68k-elf/m68k-elf/lib/m68000\liblvgl.a(lv_draw_buf.o)

.text.lv_draw_buf_init_with_default_handlers
                0x0003cca8       0x4a
 .text.lv_draw_buf_init_with_default_handlers
                0x0003cca8       0x4a C:/SysGCC/m68k-elf/m68k-elf/lib/m68000\liblvgl.a(lv_draw_buf.o)
                0x0003cca8                lv_draw_buf_init_with_default_handlers

.text.lv_draw_buf_init_handlers
                0x0003ccf2       0x28
 .text.lv_draw_buf_init_handlers
                0x0003ccf2       0x28 C:/SysGCC/m68k-elf/m68k-elf/lib/m68000\liblvgl.a(lv_draw_buf.o)
                0x0003ccf2                lv_draw_buf_init_handlers

.text.lv_draw_buf_handlers_init
                0x0003cd1a       0x44
 .text.lv_draw_buf_handlers_init
                0x0003cd1a       0x44 C:/SysGCC/m68k-elf/m68k-elf/lib/m68000\liblvgl.a(lv_draw_buf.o)
                0x0003cd1a                lv_draw_buf_handlers_init

.text.lv_draw_buf_get_handlers
                0x0003cd5e        0x8
 .text.lv_draw_buf_get_handlers
                0x0003cd5e        0x8 C:/SysGCC/m68k-elf/m68k-elf/lib/m68000\liblvgl.a(lv_draw_buf.o)
                0x0003cd5e                lv_draw_buf_get_handlers

.text.lv_draw_buf_get_font_handlers
                0x0003cd66        0x8
 .text.lv_draw_buf_get_font_handlers
                0x0003cd66        0x8 C:/SysGCC/m68k-elf/m68k-elf/lib/m68000\liblvgl.a(lv_draw_buf.o)
                0x0003cd66                lv_draw_buf_get_font_handlers

.text.lv_draw_buf_get_image_handlers
                0x0003cd6e        0x8
 .text.lv_draw_buf_get_image_handlers
                0x0003cd6e        0x8 C:/SysGCC/m68k-elf/m68k-elf/lib/m68000\liblvgl.a(lv_draw_buf.o)
                0x0003cd6e                lv_draw_buf_get_image_handlers

.text.lv_draw_buf_width_to_stride_ex
                0x0003cd76       0x24
 .text.lv_draw_buf_width_to_stride_ex
                0x0003cd76       0x24 C:/SysGCC/m68k-elf/m68k-elf/lib/m68000\liblvgl.a(lv_draw_buf.o)
                0x0003cd76                lv_draw_buf_width_to_stride_ex

.text.lv_draw_buf_width_to_stride
                0x0003cd9a       0x1a
 .text.lv_draw_buf_width_to_stride
                0x0003cd9a       0x1a C:/SysGCC/m68k-elf/m68k-elf/lib/m68000\liblvgl.a(lv_draw_buf.o)
                0x0003cd9a                lv_draw_buf_width_to_stride

.text._calculate_draw_buf_size
                0x0003cdb4       0x7e
 .text._calculate_draw_buf_size
                0x0003cdb4       0x7e C:/SysGCC/m68k-elf/m68k-elf/lib/m68000\liblvgl.a(lv_draw_buf.o)

.text.lv_draw_buf_align_ex
                0x0003ce32       0x24
 .text.lv_draw_buf_align_ex
                0x0003ce32       0x24 C:/SysGCC/m68k-elf/m68k-elf/lib/m68000\liblvgl.a(lv_draw_buf.o)
                0x0003ce32                lv_draw_buf_align_ex

.text.lv_draw_buf_align
                0x0003ce56       0x1a
 .text.lv_draw_buf_align
                0x0003ce56       0x1a C:/SysGCC/m68k-elf/m68k-elf/lib/m68000\liblvgl.a(lv_draw_buf.o)
                0x0003ce56                lv_draw_buf_align

.text.lv_draw_buf_invalidate_cache
                0x0003ce70       0x60
 .text.lv_draw_buf_invalidate_cache
                0x0003ce70       0x60 C:/SysGCC/m68k-elf/m68k-elf/lib/m68000\liblvgl.a(lv_draw_buf.o)
                0x0003ce70                lv_draw_buf_invalidate_cache

.text.lv_draw_buf_flush_cache
                0x0003ced0       0x60
 .text.lv_draw_buf_flush_cache
                0x0003ced0       0x60 C:/SysGCC/m68k-elf/m68k-elf/lib/m68000\liblvgl.a(lv_draw_buf.o)
                0x0003ced0                lv_draw_buf_flush_cache

.text.lv_draw_buf_init
                0x0003cf30       0x9e
 .text.lv_draw_buf_init
                0x0003cf30       0x9e C:/SysGCC/m68k-elf/m68k-elf/lib/m68000\liblvgl.a(lv_draw_buf.o)
                0x0003cf30                lv_draw_buf_init

.text.lv_draw_buf_create_ex
                0x0003cfce       0xb4
 .text.lv_draw_buf_create_ex
                0x0003cfce       0xb4 C:/SysGCC/m68k-elf/m68k-elf/lib/m68000\liblvgl.a(lv_draw_buf.o)
                0x0003cfce                lv_draw_buf_create_ex

.text.lv_draw_buf_create
                0x0003d082       0x22
 .text.lv_draw_buf_create
                0x0003d082       0x22 C:/SysGCC/m68k-elf/m68k-elf/lib/m68000\liblvgl.a(lv_draw_buf.o)
                0x0003d082                lv_draw_buf_create

.text.lv_draw_buf_dup_ex
                0x0003d0a4       0x72
 .text.lv_draw_buf_dup_ex
                0x0003d0a4       0x72 C:/SysGCC/m68k-elf/m68k-elf/lib/m68000\liblvgl.a(lv_draw_buf.o)
                0x0003d0a4                lv_draw_buf_dup_ex

.text.lv_draw_buf_dup
                0x0003d116       0x14
 .text.lv_draw_buf_dup
                0x0003d116       0x14 C:/SysGCC/m68k-elf/m68k-elf/lib/m68000\liblvgl.a(lv_draw_buf.o)
                0x0003d116                lv_draw_buf_dup

.text.lv_draw_buf_reshape
                0x0003d12a       0x6e
 .text.lv_draw_buf_reshape
                0x0003d12a       0x6e C:/SysGCC/m68k-elf/m68k-elf/lib/m68000\liblvgl.a(lv_draw_buf.o)
                0x0003d12a                lv_draw_buf_reshape

.text.lv_draw_buf_destroy
                0x0003d198       0x3c
 .text.lv_draw_buf_destroy
                0x0003d198       0x3c C:/SysGCC/m68k-elf/m68k-elf/lib/m68000\liblvgl.a(lv_draw_buf.o)
                0x0003d198                lv_draw_buf_destroy

.text.lv_draw_buf_copy
                0x0003d1d4        0xe
 .text.lv_draw_buf_copy
                0x0003d1d4        0xe C:/SysGCC/m68k-elf/m68k-elf/lib/m68000\liblvgl.a(lv_draw_buf.o)
                0x0003d1d4                lv_draw_buf_copy

.text.lv_draw_buf_goto_xy
                0x0003d1e2       0xac
 .text.lv_draw_buf_goto_xy
                0x0003d1e2       0xac C:/SysGCC/m68k-elf/m68k-elf/lib/m68000\liblvgl.a(lv_draw_buf.o)
                0x0003d1e2                lv_draw_buf_goto_xy

.text.buf_copy  0x0003d28e      0x15a
 .text.buf_copy
                0x0003d28e      0x15a C:/SysGCC/m68k-elf/m68k-elf/lib/m68000\liblvgl.a(lv_draw_buf.o)

.text.lv_draw_buf_clear
                0x0003d3e8      0x11c
 .text.lv_draw_buf_clear
                0x0003d3e8      0x11c C:/SysGCC/m68k-elf/m68k-elf/lib/m68000\liblvgl.a(lv_draw_buf.o)
                0x0003d3e8                lv_draw_buf_clear

.text.lv_draw_buf_adjust_stride
                0x0003d504      0x15e
 .text.lv_draw_buf_adjust_stride
                0x0003d504      0x15e C:/SysGCC/m68k-elf/m68k-elf/lib/m68000\liblvgl.a(lv_draw_buf.o)
                0x0003d504                lv_draw_buf_adjust_stride

.text.lv_draw_buf_premultiply
                0x0003d662       0x82
 .text.lv_draw_buf_premultiply
                0x0003d662       0x82 C:/SysGCC/m68k-elf/m68k-elf/lib/m68000\liblvgl.a(lv_draw_buf.o)
                0x0003d662                lv_draw_buf_premultiply

.text.lv_draw_buf_set_palette
                0x0003d6e4       0x44
 .text.lv_draw_buf_set_palette
                0x0003d6e4       0x44 C:/SysGCC/m68k-elf/m68k-elf/lib/m68000\liblvgl.a(lv_draw_buf.o)
                0x0003d6e4                lv_draw_buf_set_palette

.text.lv_draw_buf_from_image
                0x0003d728       0x4e
 .text.lv_draw_buf_from_image
                0x0003d728       0x4e C:/SysGCC/m68k-elf/m68k-elf/lib/m68000\liblvgl.a(lv_draw_buf.o)
                0x0003d728                lv_draw_buf_from_image

.text.lv_draw_buf_to_image
                0x0003d776       0x18
 .text.lv_draw_buf_to_image
                0x0003d776       0x18 C:/SysGCC/m68k-elf/m68k-elf/lib/m68000\liblvgl.a(lv_draw_buf.o)
                0x0003d776                lv_draw_buf_to_image

.text.lv_image_buf_set_palette
                0x0003d78e       0x10
 .text.lv_image_buf_set_palette
                0x0003d78e       0x10 C:/SysGCC/m68k-elf/m68k-elf/lib/m68000\liblvgl.a(lv_draw_buf.o)
                0x0003d78e                lv_image_buf_set_palette

.text.lv_image_buf_free
                0x0003d79e       0x2c
 .text.lv_image_buf_free
                0x0003d79e       0x2c C:/SysGCC/m68k-elf/m68k-elf/lib/m68000\liblvgl.a(lv_draw_buf.o)
                0x0003d79e                lv_image_buf_free

.text.img_decode_and_draw
                0x0003d7ca      0x152
 .text.img_decode_and_draw
                0x0003d7ca      0x152 C:/SysGCC/m68k-elf/m68k-elf/lib/m68000\liblvgl.a(lv_draw_image.o)

.text.lv_draw_image_dsc_init
                0x0003d91c       0x68
 .text.lv_draw_image_dsc_init
                0x0003d91c       0x68 C:/SysGCC/m68k-elf/m68k-elf/lib/m68000\liblvgl.a(lv_draw_image.o)
                0x0003d91c                lv_draw_image_dsc_init

.text.lv_draw_task_get_image_dsc
                0x0003d984       0x16
 .text.lv_draw_task_get_image_dsc
                0x0003d984       0x16 C:/SysGCC/m68k-elf/m68k-elf/lib/m68000\liblvgl.a(lv_draw_image.o)
                0x0003d984                lv_draw_task_get_image_dsc

.text.lv_image_src_get_type
                0x0003d99a       0x2c
 .text.lv_image_src_get_type
                0x0003d99a       0x2c C:/SysGCC/m68k-elf/m68k-elf/lib/m68000\liblvgl.a(lv_draw_image.o)
                0x0003d99a                lv_image_src_get_type

.text.lv_draw_image_tiled_helper
                0x0003d9c6      0x128
 .text.lv_draw_image_tiled_helper
                0x0003d9c6      0x128 C:/SysGCC/m68k-elf/m68k-elf/lib/m68000\liblvgl.a(lv_draw_image.o)
                0x0003d9c6                lv_draw_image_tiled_helper

.text.lv_image_buf_get_transformed_area
                0x0003daee      0x15c
 .text.lv_image_buf_get_transformed_area
                0x0003daee      0x15c C:/SysGCC/m68k-elf/m68k-elf/lib/m68000\liblvgl.a(lv_draw_image.o)
                0x0003daee                lv_image_buf_get_transformed_area

.text.lv_draw_layer
                0x0003dc4a       0xe2
 .text.lv_draw_layer
                0x0003dc4a       0xe2 C:/SysGCC/m68k-elf/m68k-elf/lib/m68000\liblvgl.a(lv_draw_image.o)
                0x0003dc4a                lv_draw_layer

.text.lv_draw_image
                0x0003dd2c      0x358
 .text.lv_draw_image
                0x0003dd2c      0x358 C:/SysGCC/m68k-elf/m68k-elf/lib/m68000\liblvgl.a(lv_draw_image.o)
                0x0003dd2c                lv_draw_image

.text.lv_draw_image_normal_helper
                0x0003e084      0x108
 .text.lv_draw_image_normal_helper
                0x0003e084      0x108 C:/SysGCC/m68k-elf/m68k-elf/lib/m68000\liblvgl.a(lv_draw_image.o)
                0x0003e084                lv_draw_image_normal_helper

.text.hex_char_to_num
                0x0003e18c       0x3a
 .text.hex_char_to_num
                0x0003e18c       0x3a C:/SysGCC/m68k-elf/m68k-elf/lib/m68000\liblvgl.a(lv_draw_label.o)

.text.lv_text_is_marker
                0x0003e1c6       0x78
 .text.lv_text_is_marker
                0x0003e1c6       0x78 C:/SysGCC/m68k-elf/m68k-elf/lib/m68000\liblvgl.a(lv_draw_label.o)

.text.lv_draw_letter_dsc_init
                0x0003e23e       0x66
 .text.lv_draw_letter_dsc_init
                0x0003e23e       0x66 C:/SysGCC/m68k-elf/m68k-elf/lib/m68000\liblvgl.a(lv_draw_label.o)
                0x0003e23e                lv_draw_letter_dsc_init

.text.lv_draw_label_dsc_init
                0x0003e2a4       0x9c
 .text.lv_draw_label_dsc_init
                0x0003e2a4       0x9c C:/SysGCC/m68k-elf/m68k-elf/lib/m68000\liblvgl.a(lv_draw_label.o)
                0x0003e2a4                lv_draw_label_dsc_init

.text.lv_draw_task_get_label_dsc
                0x0003e340       0x16
 .text.lv_draw_task_get_label_dsc
                0x0003e340       0x16 C:/SysGCC/m68k-elf/m68k-elf/lib/m68000\liblvgl.a(lv_draw_label.o)
                0x0003e340                lv_draw_task_get_label_dsc

.text.lv_draw_glyph_dsc_init
                0x0003e356       0x16
 .text.lv_draw_glyph_dsc_init
                0x0003e356       0x16 C:/SysGCC/m68k-elf/m68k-elf/lib/m68000\liblvgl.a(lv_draw_label.o)
                0x0003e356                lv_draw_glyph_dsc_init

.text.lv_draw_label
                0x0003e36c       0xde
 .text.lv_draw_label
                0x0003e36c       0xde C:/SysGCC/m68k-elf/m68k-elf/lib/m68000\liblvgl.a(lv_draw_label.o)
                0x0003e36c                lv_draw_label

.text.lv_draw_character
                0x0003e44a       0xb8
 .text.lv_draw_character
                0x0003e44a       0xb8 C:/SysGCC/m68k-elf/m68k-elf/lib/m68000\liblvgl.a(lv_draw_label.o)
                0x0003e44a                lv_draw_character

.text.lv_draw_letter
                0x0003e502       0xca
 .text.lv_draw_letter
                0x0003e502       0xca C:/SysGCC/m68k-elf/m68k-elf/lib/m68000\liblvgl.a(lv_draw_label.o)
                0x0003e502                lv_draw_letter

.text.lv_draw_unit_draw_letter
                0x0003e5cc      0x1f0
 .text.lv_draw_unit_draw_letter
                0x0003e5cc      0x1f0 C:/SysGCC/m68k-elf/m68k-elf/lib/m68000\liblvgl.a(lv_draw_label.o)
                0x0003e5cc                lv_draw_unit_draw_letter

.text.lv_draw_label_iterate_characters
                0x0003e7bc      0x874
 .text.lv_draw_label_iterate_characters
                0x0003e7bc      0x874 C:/SysGCC/m68k-elf/m68k-elf/lib/m68000\liblvgl.a(lv_draw_label.o)
                0x0003e7bc                lv_draw_label_iterate_characters

.text.lv_draw_line_dsc_init
                0x0003f030       0x50
 .text.lv_draw_line_dsc_init
                0x0003f030       0x50 C:/SysGCC/m68k-elf/m68k-elf/lib/m68000\liblvgl.a(lv_draw_line.o)
                0x0003f030                lv_draw_line_dsc_init

.text.lv_draw_task_get_line_dsc
                0x0003f080       0x16
 .text.lv_draw_task_get_line_dsc
                0x0003f080       0x16 C:/SysGCC/m68k-elf/m68k-elf/lib/m68000\liblvgl.a(lv_draw_line.o)
                0x0003f080                lv_draw_task_get_line_dsc

.text.lv_draw_line
                0x0003f096       0xe4
 .text.lv_draw_line
                0x0003f096       0xe4 C:/SysGCC/m68k-elf/m68k-elf/lib/m68000\liblvgl.a(lv_draw_line.o)
                0x0003f096                lv_draw_line

.text.lv_draw_mask_rect_dsc_init
                0x0003f17a       0x16
 .text.lv_draw_mask_rect_dsc_init
                0x0003f17a       0x16 C:/SysGCC/m68k-elf/m68k-elf/lib/m68000\liblvgl.a(lv_draw_mask.o)
                0x0003f17a                lv_draw_mask_rect_dsc_init

.text.lv_draw_task_get_mask_rect_dsc
                0x0003f190       0x16
 .text.lv_draw_task_get_mask_rect_dsc
                0x0003f190       0x16 C:/SysGCC/m68k-elf/m68k-elf/lib/m68000\liblvgl.a(lv_draw_mask.o)
                0x0003f190                lv_draw_task_get_mask_rect_dsc

.text.lv_draw_mask_rect
                0x0003f1a6       0xaa
 .text.lv_draw_mask_rect
                0x0003f1a6       0xaa C:/SysGCC/m68k-elf/m68k-elf/lib/m68000\liblvgl.a(lv_draw_mask.o)
                0x0003f1a6                lv_draw_mask_rect

.text.lv_draw_rect_dsc_init
                0x0003f250       0xc4
 .text.lv_draw_rect_dsc_init
                0x0003f250       0xc4 C:/SysGCC/m68k-elf/m68k-elf/lib/m68000\liblvgl.a(lv_draw_rect.o)
                0x0003f250                lv_draw_rect_dsc_init

.text.lv_draw_fill_dsc_init
                0x0003f314       0x26
 .text.lv_draw_fill_dsc_init
                0x0003f314       0x26 C:/SysGCC/m68k-elf/m68k-elf/lib/m68000\liblvgl.a(lv_draw_rect.o)
                0x0003f314                lv_draw_fill_dsc_init

.text.lv_draw_task_get_fill_dsc
                0x0003f33a       0x16
 .text.lv_draw_task_get_fill_dsc
                0x0003f33a       0x16 C:/SysGCC/m68k-elf/m68k-elf/lib/m68000\liblvgl.a(lv_draw_rect.o)
                0x0003f33a                lv_draw_task_get_fill_dsc

.text.lv_draw_fill
                0x0003f350       0x98
 .text.lv_draw_fill
                0x0003f350       0x98 C:/SysGCC/m68k-elf/m68k-elf/lib/m68000\liblvgl.a(lv_draw_rect.o)
                0x0003f350                lv_draw_fill

.text.lv_draw_border_dsc_init
                0x0003f3e8       0x36
 .text.lv_draw_border_dsc_init
                0x0003f3e8       0x36 C:/SysGCC/m68k-elf/m68k-elf/lib/m68000\liblvgl.a(lv_draw_rect.o)
                0x0003f3e8                lv_draw_border_dsc_init

.text.lv_draw_task_get_border_dsc
                0x0003f41e       0x16
 .text.lv_draw_task_get_border_dsc
                0x0003f41e       0x16 C:/SysGCC/m68k-elf/m68k-elf/lib/m68000\liblvgl.a(lv_draw_rect.o)
                0x0003f41e                lv_draw_task_get_border_dsc

.text.lv_draw_border
                0x0003f434       0x98
 .text.lv_draw_border
                0x0003f434       0x98 C:/SysGCC/m68k-elf/m68k-elf/lib/m68000\liblvgl.a(lv_draw_rect.o)
                0x0003f434                lv_draw_border

.text.lv_draw_box_shadow_dsc_init
                0x0003f4cc       0x26
 .text.lv_draw_box_shadow_dsc_init
                0x0003f4cc       0x26 C:/SysGCC/m68k-elf/m68k-elf/lib/m68000\liblvgl.a(lv_draw_rect.o)
                0x0003f4cc                lv_draw_box_shadow_dsc_init

.text.lv_draw_task_get_box_shadow_dsc
                0x0003f4f2       0x16
 .text.lv_draw_task_get_box_shadow_dsc
                0x0003f4f2       0x16 C:/SysGCC/m68k-elf/m68k-elf/lib/m68000\liblvgl.a(lv_draw_rect.o)
                0x0003f4f2                lv_draw_task_get_box_shadow_dsc

.text.lv_draw_box_shadow
                0x0003f508       0x54
 .text.lv_draw_box_shadow
                0x0003f508       0x54 C:/SysGCC/m68k-elf/m68k-elf/lib/m68000\liblvgl.a(lv_draw_rect.o)
                0x0003f508                lv_draw_box_shadow

.text.lv_draw_rect
                0x0003f55c      0x628
 .text.lv_draw_rect
                0x0003f55c      0x628 C:/SysGCC/m68k-elf/m68k-elf/lib/m68000\liblvgl.a(lv_draw_rect.o)
                0x0003f55c                lv_draw_rect

.text.image_decoder_get_info
                0x0003fb84      0x1f2
 .text.image_decoder_get_info
                0x0003fb84      0x1f2 C:/SysGCC/m68k-elf/m68k-elf/lib/m68000\liblvgl.a(lv_image_decoder.o)

.text.lv_image_decoder_init
                0x0003fd76       0x36
 .text.lv_image_decoder_init
                0x0003fd76       0x36 C:/SysGCC/m68k-elf/m68k-elf/lib/m68000\liblvgl.a(lv_image_decoder.o)
                0x0003fd76                lv_image_decoder_init

.text.lv_image_decoder_deinit
                0x0003fdac       0x30
 .text.lv_image_decoder_deinit
                0x0003fdac       0x30 C:/SysGCC/m68k-elf/m68k-elf/lib/m68000\liblvgl.a(lv_image_decoder.o)
                0x0003fdac                lv_image_decoder_deinit

.text.lv_image_decoder_get_info
                0x0003fddc       0x52
 .text.lv_image_decoder_get_info
                0x0003fddc       0x52 C:/SysGCC/m68k-elf/m68k-elf/lib/m68000\liblvgl.a(lv_image_decoder.o)
                0x0003fddc                lv_image_decoder_get_info

.text.lv_image_decoder_open
                0x0003fe2e      0x132
 .text.lv_image_decoder_open
                0x0003fe2e      0x132 C:/SysGCC/m68k-elf/m68k-elf/lib/m68000\liblvgl.a(lv_image_decoder.o)
                0x0003fe2e                lv_image_decoder_open

.text.lv_image_decoder_get_area
                0x0003ff60       0x2c
 .text.lv_image_decoder_get_area
                0x0003ff60       0x2c C:/SysGCC/m68k-elf/m68k-elf/lib/m68000\liblvgl.a(lv_image_decoder.o)
                0x0003ff60                lv_image_decoder_get_area

.text.lv_image_decoder_close
                0x0003ff8c       0x4a
 .text.lv_image_decoder_close
                0x0003ff8c       0x4a C:/SysGCC/m68k-elf/m68k-elf/lib/m68000\liblvgl.a(lv_image_decoder.o)
                0x0003ff8c                lv_image_decoder_close

.text.lv_image_decoder_create
                0x0003ffd6       0x30
 .text.lv_image_decoder_create
                0x0003ffd6       0x30 C:/SysGCC/m68k-elf/m68k-elf/lib/m68000\liblvgl.a(lv_image_decoder.o)
                0x0003ffd6                lv_image_decoder_create

.text.lv_image_decoder_delete
                0x00040006       0x22
 .text.lv_image_decoder_delete
                0x00040006       0x22 C:/SysGCC/m68k-elf/m68k-elf/lib/m68000\liblvgl.a(lv_image_decoder.o)
                0x00040006                lv_image_decoder_delete

.text.lv_image_decoder_get_next
                0x00040028       0x26
 .text.lv_image_decoder_get_next
                0x00040028       0x26 C:/SysGCC/m68k-elf/m68k-elf/lib/m68000\liblvgl.a(lv_image_decoder.o)
                0x00040028                lv_image_decoder_get_next

.text.lv_image_decoder_set_info_cb
                0x0004004e        0xa
 .text.lv_image_decoder_set_info_cb
                0x0004004e        0xa C:/SysGCC/m68k-elf/m68k-elf/lib/m68000\liblvgl.a(lv_image_decoder.o)
                0x0004004e                lv_image_decoder_set_info_cb

.text.lv_image_decoder_set_open_cb
                0x00040058        0xc
 .text.lv_image_decoder_set_open_cb
                0x00040058        0xc C:/SysGCC/m68k-elf/m68k-elf/lib/m68000\liblvgl.a(lv_image_decoder.o)
                0x00040058                lv_image_decoder_set_open_cb

.text.lv_image_decoder_set_get_area_cb
                0x00040064        0xc
 .text.lv_image_decoder_set_get_area_cb
                0x00040064        0xc C:/SysGCC/m68k-elf/m68k-elf/lib/m68000\liblvgl.a(lv_image_decoder.o)
                0x00040064                lv_image_decoder_set_get_area_cb

.text.lv_image_decoder_set_close_cb
                0x00040070        0xc
 .text.lv_image_decoder_set_close_cb
                0x00040070        0xc C:/SysGCC/m68k-elf/m68k-elf/lib/m68000\liblvgl.a(lv_image_decoder.o)
                0x00040070                lv_image_decoder_set_close_cb

.text.lv_image_decoder_add_to_cache
                0x0004007c       0x60
 .text.lv_image_decoder_add_to_cache
                0x0004007c       0x60 C:/SysGCC/m68k-elf/m68k-elf/lib/m68000\liblvgl.a(lv_image_decoder.o)
                0x0004007c                lv_image_decoder_add_to_cache

.text.lv_image_decoder_post_process
                0x000400dc      0x110
 .text.lv_image_decoder_post_process
                0x000400dc      0x110 C:/SysGCC/m68k-elf/m68k-elf/lib/m68000\liblvgl.a(lv_image_decoder.o)
                0x000400dc                lv_image_decoder_post_process

.text.evaluate  0x000401ec       0x5a
 .text.evaluate
                0x000401ec       0x5a C:/SysGCC/m68k-elf/m68k-elf/lib/m68000\liblvgl.a(lv_draw_sw.o)

.text.dispatch  0x00040246      0x170
 .text.dispatch
                0x00040246      0x170 C:/SysGCC/m68k-elf/m68k-elf/lib/m68000\liblvgl.a(lv_draw_sw.o)

.text.lv_draw_sw_init
                0x000403b6       0x44
 .text.lv_draw_sw_init
                0x000403b6       0x44 C:/SysGCC/m68k-elf/m68k-elf/lib/m68000\liblvgl.a(lv_draw_sw.o)
                0x000403b6                lv_draw_sw_init

.text.lv_draw_sw_deinit
                0x000403fa        0x6
 .text.lv_draw_sw_deinit
                0x000403fa        0x6 C:/SysGCC/m68k-elf/m68k-elf/lib/m68000\liblvgl.a(lv_draw_sw.o)
                0x000403fa                lv_draw_sw_deinit

.text.lv_draw_sw_register_blend_handler
                0x00040400       0x66
 .text.lv_draw_sw_register_blend_handler
                0x00040400       0x66 C:/SysGCC/m68k-elf/m68k-elf/lib/m68000\liblvgl.a(lv_draw_sw.o)
                0x00040400                lv_draw_sw_register_blend_handler

.text.lv_draw_sw_unregister_blend_handler
                0x00040466       0x5e
 .text.lv_draw_sw_unregister_blend_handler
                0x00040466       0x5e C:/SysGCC/m68k-elf/m68k-elf/lib/m68000\liblvgl.a(lv_draw_sw.o)
                0x00040466                lv_draw_sw_unregister_blend_handler

.text.lv_draw_sw_get_blend_handler
                0x000404c4       0x3c
 .text.lv_draw_sw_get_blend_handler
                0x000404c4       0x3c C:/SysGCC/m68k-elf/m68k-elf/lib/m68000\liblvgl.a(lv_draw_sw.o)
                0x000404c4                lv_draw_sw_get_blend_handler

.text.add_circle
                0x00040500       0x90
 .text.add_circle
                0x00040500       0x90 C:/SysGCC/m68k-elf/m68k-elf/lib/m68000\liblvgl.a(lv_draw_sw_arc.o)

.text.get_rounded_area
                0x00040590       0xc0
 .text.get_rounded_area
                0x00040590       0xc0 C:/SysGCC/m68k-elf/m68k-elf/lib/m68000\liblvgl.a(lv_draw_sw_arc.o)

.text.lv_draw_sw_arc
                0x00040650      0x5e6
 .text.lv_draw_sw_arc
                0x00040650      0x5e6 C:/SysGCC/m68k-elf/m68k-elf/lib/m68000\liblvgl.a(lv_draw_sw_arc.o)
                0x00040650                lv_draw_sw_arc

.text.blur_1_bytes_init
                0x00040c36       0x3e
 .text.blur_1_bytes_init
                0x00040c36       0x3e C:/SysGCC/m68k-elf/m68k-elf/lib/m68000\liblvgl.a(lv_draw_sw_blur.o)

.text.blur_3_bytes_init
                0x00040c74       0x90
 .text.blur_3_bytes_init
                0x00040c74       0x90 C:/SysGCC/m68k-elf/m68k-elf/lib/m68000\liblvgl.a(lv_draw_sw_blur.o)

.text.blur_2_bytes_init
                0x00040d04       0x98
 .text.blur_2_bytes_init
                0x00040d04       0x98 C:/SysGCC/m68k-elf/m68k-elf/lib/m68000\liblvgl.a(lv_draw_sw_blur.o)

.text.blur_2_bytes
                0x00040d9c       0xd6
 .text.blur_2_bytes
                0x00040d9c       0xd6 C:/SysGCC/m68k-elf/m68k-elf/lib/m68000\liblvgl.a(lv_draw_sw_blur.o)

.text.blur_3_bytes
                0x00040e72       0xa6
 .text.blur_3_bytes
                0x00040e72       0xa6 C:/SysGCC/m68k-elf/m68k-elf/lib/m68000\liblvgl.a(lv_draw_sw_blur.o)

.text.get_rounded_edge_point
                0x00040f18       0x62
 .text.get_rounded_edge_point
                0x00040f18       0x62 C:/SysGCC/m68k-elf/m68k-elf/lib/m68000\liblvgl.a(lv_draw_sw_blur.o)

.text.lv_draw_sw_blur
                0x00040f7a      0xb2c
 .text.lv_draw_sw_blur
                0x00040f7a      0xb2c C:/SysGCC/m68k-elf/m68k-elf/lib/m68000\liblvgl.a(lv_draw_sw_blur.o)
                0x00040f7a                lv_draw_sw_blur

.text.lv_draw_sw_border
                0x00041aa6      0x72a
 .text.lv_draw_sw_border
                0x00041aa6      0x72a C:/SysGCC/m68k-elf/m68k-elf/lib/m68000\liblvgl.a(lv_draw_sw_border.o)
                0x00041aa6                lv_draw_sw_border

.text.shadow_blur_corner
                0x000421d0      0x224
 .text.shadow_blur_corner
                0x000421d0      0x224 C:/SysGCC/m68k-elf/m68k-elf/lib/m68000\liblvgl.a(lv_draw_sw_box_shadow.o)

.text.lv_draw_sw_box_shadow
                0x000423f4     0x1072
 .text.lv_draw_sw_box_shadow
                0x000423f4     0x1072 C:/SysGCC/m68k-elf/m68k-elf/lib/m68000\liblvgl.a(lv_draw_sw_box_shadow.o)
                0x000423f4                lv_draw_sw_box_shadow

.text.lv_draw_sw_fill
                0x00043466      0x54e
 .text.lv_draw_sw_fill
                0x00043466      0x54e C:/SysGCC/m68k-elf/m68k-elf/lib/m68000\liblvgl.a(lv_draw_sw_fill.o)
                0x00043466                lv_draw_sw_fill

.text.lv_draw_sw_grad_color_calculate
                0x000439b4      0x1ca
 .text.lv_draw_sw_grad_color_calculate
                0x000439b4      0x1ca C:/SysGCC/m68k-elf/m68k-elf/lib/m68000\liblvgl.a(lv_draw_sw_grad.o)
                0x000439b4                lv_draw_sw_grad_color_calculate

.text.lv_draw_sw_grad_get
                0x00043b7e       0xb6
 .text.lv_draw_sw_grad_get
                0x00043b7e       0xb6 C:/SysGCC/m68k-elf/m68k-elf/lib/m68000\liblvgl.a(lv_draw_sw_grad.o)
                0x00043b7e                lv_draw_sw_grad_get

.text.lv_draw_sw_grad_cleanup
                0x00043c34        0x6
 .text.lv_draw_sw_grad_cleanup
                0x00043c34        0x6 C:/SysGCC/m68k-elf/m68k-elf/lib/m68000\liblvgl.a(lv_draw_sw_grad.o)
                0x00043c34                lv_draw_sw_grad_cleanup

.text.recolor   0x00043c3a      0x61c
 .text.recolor  0x00043c3a      0x61c C:/SysGCC/m68k-elf/m68k-elf/lib/m68000\liblvgl.a(lv_draw_sw_img.o)

.text.img_draw_core
                0x00044256     0x10c6
 .text.img_draw_core
                0x00044256     0x10c6 C:/SysGCC/m68k-elf/m68k-elf/lib/m68000\liblvgl.a(lv_draw_sw_img.o)

.text.lv_draw_sw_image
                0x0004531c       0x40
 .text.lv_draw_sw_image
                0x0004531c       0x40 C:/SysGCC/m68k-elf/m68k-elf/lib/m68000\liblvgl.a(lv_draw_sw_img.o)
                0x0004531c                lv_draw_sw_image

.text.lv_draw_sw_layer
                0x0004535c      0x246
 .text.lv_draw_sw_layer
                0x0004535c      0x246 C:/SysGCC/m68k-elf/m68k-elf/lib/m68000\liblvgl.a(lv_draw_sw_img.o)
                0x0004535c                lv_draw_sw_layer

.text.draw_letter_cb
                0x000455a2      0x274
 .text.draw_letter_cb
                0x000455a2      0x274 C:/SysGCC/m68k-elf/m68k-elf/lib/m68000\liblvgl.a(lv_draw_sw_letter.o)

.text.lv_draw_sw_letter
                0x00045816       0x9a
 .text.lv_draw_sw_letter
                0x00045816       0x9a C:/SysGCC/m68k-elf/m68k-elf/lib/m68000\liblvgl.a(lv_draw_sw_letter.o)
                0x00045816                lv_draw_sw_letter

.text.lv_draw_sw_label
                0x000458b0       0x28
 .text.lv_draw_sw_label
                0x000458b0       0x28 C:/SysGCC/m68k-elf/m68k-elf/lib/m68000\liblvgl.a(lv_draw_sw_letter.o)
                0x000458b0                lv_draw_sw_label

.text.lv_draw_sw_line
                0x000458d8      0x822
 .text.lv_draw_sw_line
                0x000458d8      0x822 C:/SysGCC/m68k-elf/m68k-elf/lib/m68000\liblvgl.a(lv_draw_sw_line.o)
                0x000458d8                lv_draw_sw_line

.text.lv_memzero
                0x000460fa       0x16
 .text.lv_memzero
                0x000460fa       0x16 C:/SysGCC/m68k-elf/m68k-elf/lib/m68000\liblvgl.a(lv_draw_sw_mask.o)

.text.mask_mix  0x00046110       0x3a
 .text.mask_mix
                0x00046110       0x3a C:/SysGCC/m68k-elf/m68k-elf/lib/m68000\liblvgl.a(lv_draw_sw_mask.o)

.text.lv_draw_mask_line
                0x0004614a      0x550
 .text.lv_draw_mask_line
                0x0004614a      0x550 C:/SysGCC/m68k-elf/m68k-elf/lib/m68000\liblvgl.a(lv_draw_sw_mask.o)

.text.lv_draw_mask_angle
                0x0004669a      0x334
 .text.lv_draw_mask_angle
                0x0004669a      0x334 C:/SysGCC/m68k-elf/m68k-elf/lib/m68000\liblvgl.a(lv_draw_sw_mask.o)

.text.lv_draw_mask_map
                0x000469ce       0xae
 .text.lv_draw_mask_map
                0x000469ce       0xae C:/SysGCC/m68k-elf/m68k-elf/lib/m68000\liblvgl.a(lv_draw_sw_mask.o)

.text.lv_draw_mask_radius
                0x00046a7c      0x2d4
 .text.lv_draw_mask_radius
                0x00046a7c      0x2d4 C:/SysGCC/m68k-elf/m68k-elf/lib/m68000\liblvgl.a(lv_draw_sw_mask.o)

.text.lv_draw_mask_fade
                0x00046d50      0x11c
 .text.lv_draw_mask_fade
                0x00046d50      0x11c C:/SysGCC/m68k-elf/m68k-elf/lib/m68000\liblvgl.a(lv_draw_sw_mask.o)

.text.lv_draw_sw_mask_init
                0x00046e6c        0x2
 .text.lv_draw_sw_mask_init
                0x00046e6c        0x2 C:/SysGCC/m68k-elf/m68k-elf/lib/m68000\liblvgl.a(lv_draw_sw_mask.o)
                0x00046e6c                lv_draw_sw_mask_init

.text.lv_draw_sw_mask_deinit
                0x00046e6e        0x2
 .text.lv_draw_sw_mask_deinit
                0x00046e6e        0x2 C:/SysGCC/m68k-elf/m68k-elf/lib/m68000\liblvgl.a(lv_draw_sw_mask.o)
                0x00046e6e                lv_draw_sw_mask_deinit

.text.lv_draw_sw_mask_apply
                0x00046e70       0x4e
 .text.lv_draw_sw_mask_apply
                0x00046e70       0x4e C:/SysGCC/m68k-elf/m68k-elf/lib/m68000\liblvgl.a(lv_draw_sw_mask.o)
                0x00046e70                lv_draw_sw_mask_apply

.text.lv_draw_sw_mask_free_param
                0x00046ebe       0x40
 .text.lv_draw_sw_mask_free_param
                0x00046ebe       0x40 C:/SysGCC/m68k-elf/m68k-elf/lib/m68000\liblvgl.a(lv_draw_sw_mask.o)
                0x00046ebe                lv_draw_sw_mask_free_param

.text.lv_draw_sw_mask_cleanup
                0x00046efe       0x3c
 .text.lv_draw_sw_mask_cleanup
                0x00046efe       0x3c C:/SysGCC/m68k-elf/m68k-elf/lib/m68000\liblvgl.a(lv_draw_sw_mask.o)
                0x00046efe                lv_draw_sw_mask_cleanup

.text.lv_draw_sw_mask_line_points_init
                0x00046f3a      0x1c2
 .text.lv_draw_sw_mask_line_points_init
                0x00046f3a      0x1c2 C:/SysGCC/m68k-elf/m68k-elf/lib/m68000\liblvgl.a(lv_draw_sw_mask.o)
                0x00046f3a                lv_draw_sw_mask_line_points_init

.text.lv_draw_sw_mask_line_angle_init
                0x000470fc       0x5e
 .text.lv_draw_sw_mask_line_angle_init
                0x000470fc       0x5e C:/SysGCC/m68k-elf/m68k-elf/lib/m68000\liblvgl.a(lv_draw_sw_mask.o)
                0x000470fc                lv_draw_sw_mask_line_angle_init

.text.lv_draw_sw_mask_angle_init
                0x0004715a       0xd6
 .text.lv_draw_sw_mask_angle_init
                0x0004715a       0xd6 C:/SysGCC/m68k-elf/m68k-elf/lib/m68000\liblvgl.a(lv_draw_sw_mask.o)
                0x0004715a                lv_draw_sw_mask_angle_init

.text.lv_draw_sw_mask_radius_init
                0x00047230      0x4ba
 .text.lv_draw_sw_mask_radius_init
                0x00047230      0x4ba C:/SysGCC/m68k-elf/m68k-elf/lib/m68000\liblvgl.a(lv_draw_sw_mask.o)
                0x00047230                lv_draw_sw_mask_radius_init

.text.lv_draw_sw_mask_fade_init
                0x000476ea       0x44
 .text.lv_draw_sw_mask_fade_init
                0x000476ea       0x44 C:/SysGCC/m68k-elf/m68k-elf/lib/m68000\liblvgl.a(lv_draw_sw_mask.o)
                0x000476ea                lv_draw_sw_mask_fade_init

.text.lv_draw_sw_mask_map_init
                0x0004772e       0x32
 .text.lv_draw_sw_mask_map_init
                0x0004772e       0x32 C:/SysGCC/m68k-elf/m68k-elf/lib/m68000\liblvgl.a(lv_draw_sw_mask.o)
                0x0004772e                lv_draw_sw_mask_map_init

.text.lv_draw_sw_mask_rect
                0x00047760      0x242
 .text.lv_draw_sw_mask_rect
                0x00047760      0x242 C:/SysGCC/m68k-elf/m68k-elf/lib/m68000\liblvgl.a(lv_draw_sw_mask_rect.o)
                0x00047760                lv_draw_sw_mask_rect

.text.unpremultiply
                0x000479a2       0x86
 .text.unpremultiply
                0x000479a2       0x86 C:/SysGCC/m68k-elf/m68k-elf/lib/m68000\liblvgl.a(lv_draw_sw_transform.o)

.text.transform_point_upscaled
                0x00047a28      0x132
 .text.transform_point_upscaled
                0x00047a28      0x132 C:/SysGCC/m68k-elf/m68k-elf/lib/m68000\liblvgl.a(lv_draw_sw_transform.o)

.text.transform_rgb888
                0x00047b5a      0x270
 .text.transform_rgb888
                0x00047b5a      0x270 C:/SysGCC/m68k-elf/m68k-elf/lib/m68000\liblvgl.a(lv_draw_sw_transform.o)

.text.transform_rgb565a8
                0x00047dca      0x2d2
 .text.transform_rgb565a8
                0x00047dca      0x2d2 C:/SysGCC/m68k-elf/m68k-elf/lib/m68000\liblvgl.a(lv_draw_sw_transform.o)

.text.lv_draw_sw_transform
                0x0004809c     0x124c
 .text.lv_draw_sw_transform
                0x0004809c     0x124c C:/SysGCC/m68k-elf/m68k-elf/lib/m68000\liblvgl.a(lv_draw_sw_transform.o)
                0x0004809c                lv_draw_sw_transform

.text.lv_draw_sw_triangle
                0x000492e8      0x4ee
 .text.lv_draw_sw_triangle
                0x000492e8      0x4ee C:/SysGCC/m68k-elf/m68k-elf/lib/m68000\liblvgl.a(lv_draw_sw_triangle.o)
                0x000492e8                lv_draw_sw_triangle

.text.lv_font_get_glyph_bitmap
                0x000497d6       0x42
 .text.lv_font_get_glyph_bitmap
                0x000497d6       0x42 C:/SysGCC/m68k-elf/m68k-elf/lib/m68000\liblvgl.a(lv_font.o)
                0x000497d6                lv_font_get_glyph_bitmap

.text.lv_font_get_glyph_static_bitmap
                0x00049818       0x4c
 .text.lv_font_get_glyph_static_bitmap
                0x00049818       0x4c C:/SysGCC/m68k-elf/m68k-elf/lib/m68000\liblvgl.a(lv_font.o)
                0x00049818                lv_font_get_glyph_static_bitmap

.text.lv_font_glyph_release_draw_data
                0x00049864       0x2a
 .text.lv_font_glyph_release_draw_data
                0x00049864       0x2a C:/SysGCC/m68k-elf/m68k-elf/lib/m68000\liblvgl.a(lv_font.o)
                0x00049864                lv_font_glyph_release_draw_data

.text.lv_font_get_glyph_dsc
                0x0004988e       0xd2
 .text.lv_font_get_glyph_dsc
                0x0004988e       0xd2 C:/SysGCC/m68k-elf/m68k-elf/lib/m68000\liblvgl.a(lv_font.o)
                0x0004988e                lv_font_get_glyph_dsc

.text.lv_font_get_glyph_width
                0x00049960       0x9a
 .text.lv_font_get_glyph_width
                0x00049960       0x9a C:/SysGCC/m68k-elf/m68k-elf/lib/m68000\liblvgl.a(lv_font.o)
                0x00049960                lv_font_get_glyph_width

.text.lv_font_set_kerning
                0x000499fa       0x1e
 .text.lv_font_set_kerning
                0x000499fa       0x1e C:/SysGCC/m68k-elf/m68k-elf/lib/m68000\liblvgl.a(lv_font.o)
                0x000499fa                lv_font_set_kerning

.text.lv_font_get_line_height
                0x00049a18        0xa
 .text.lv_font_get_line_height
                0x00049a18        0xa C:/SysGCC/m68k-elf/m68k-elf/lib/m68000\liblvgl.a(lv_font.o)
                0x00049a18                lv_font_get_line_height

.text.lv_font_get_default
                0x00049a22        0x8
 .text.lv_font_get_default
                0x00049a22        0x8 C:/SysGCC/m68k-elf/m68k-elf/lib/m68000\liblvgl.a(lv_font.o)
                0x00049a22                lv_font_get_default

.text.lv_font_info_is_equal
                0x00049a2a       0x50
 .text.lv_font_info_is_equal
                0x00049a2a       0x50 C:/SysGCC/m68k-elf/m68k-elf/lib/m68000\liblvgl.a(lv_font.o)
                0x00049a2a                lv_font_info_is_equal

.text.lv_font_has_static_bitmap
                0x00049a7a       0x10
 .text.lv_font_has_static_bitmap
                0x00049a7a       0x10 C:/SysGCC/m68k-elf/m68k-elf/lib/m68000\liblvgl.a(lv_font.o)
                0x00049a7a                lv_font_has_static_bitmap

.text.indev_reset_check
                0x00049a8a       0x1e
 .text.indev_reset_check
                0x00049a8a       0x1e C:/SysGCC/m68k-elf/m68k-elf/lib/m68000\liblvgl.a(lv_indev.o)

.text.indev_scroll_throw_anim_completed_cb
                0x00049aa8       0x20
 .text.indev_scroll_throw_anim_completed_cb
                0x00049aa8       0x20 C:/SysGCC/m68k-elf/m68k-elf/lib/m68000\liblvgl.a(lv_indev.o)

.text.indev_proc_reset_query_handler
                0x00049ac8       0x64
 .text.indev_proc_reset_query_handler
                0x00049ac8       0x64 C:/SysGCC/m68k-elf/m68k-elf/lib/m68000\liblvgl.a(lv_indev.o)

.text.indev_scroll_throw_anim_cb
                0x00049b2c       0x3e
 .text.indev_scroll_throw_anim_cb
                0x00049b2c       0x3e C:/SysGCC/m68k-elf/m68k-elf/lib/m68000\liblvgl.a(lv_indev.o)

.text.lv_indev_create
                0x00049b6a       0x94
 .text.lv_indev_create
                0x00049b6a       0x94 C:/SysGCC/m68k-elf/m68k-elf/lib/m68000\liblvgl.a(lv_indev.o)
                0x00049b6a                lv_indev_create

.text.lv_indev_get_next
                0x00049bfe       0x26
 .text.lv_indev_get_next
                0x00049bfe       0x26 C:/SysGCC/m68k-elf/m68k-elf/lib/m68000\liblvgl.a(lv_indev.o)
                0x00049bfe                lv_indev_get_next

.text.lv_indev_enable
                0x00049c24       0x66
 .text.lv_indev_enable
                0x00049c24       0x66 C:/SysGCC/m68k-elf/m68k-elf/lib/m68000\liblvgl.a(lv_indev.o)
                0x00049c24                lv_indev_enable

.text.lv_indev_active
                0x00049c8a        0x8
 .text.lv_indev_active
                0x00049c8a        0x8 C:/SysGCC/m68k-elf/m68k-elf/lib/m68000\liblvgl.a(lv_indev.o)
                0x00049c8a                lv_indev_active

.text.lv_indev_set_type
                0x00049c92       0x16
 .text.lv_indev_set_type
                0x00049c92       0x16 C:/SysGCC/m68k-elf/m68k-elf/lib/m68000\liblvgl.a(lv_indev.o)
                0x00049c92                lv_indev_set_type

.text.lv_indev_set_read_cb
                0x00049ca8       0x12
 .text.lv_indev_set_read_cb
                0x00049ca8       0x12 C:/SysGCC/m68k-elf/m68k-elf/lib/m68000\liblvgl.a(lv_indev.o)
                0x00049ca8                lv_indev_set_read_cb

.text.lv_indev_set_user_data
                0x00049cba       0x12
 .text.lv_indev_set_user_data
                0x00049cba       0x12 C:/SysGCC/m68k-elf/m68k-elf/lib/m68000\liblvgl.a(lv_indev.o)
                0x00049cba                lv_indev_set_user_data

.text.lv_indev_set_driver_data
                0x00049ccc       0x12
 .text.lv_indev_set_driver_data
                0x00049ccc       0x12 C:/SysGCC/m68k-elf/m68k-elf/lib/m68000\liblvgl.a(lv_indev.o)
                0x00049ccc                lv_indev_set_driver_data

.text.lv_indev_get_read_cb
                0x00049cde       0x14
 .text.lv_indev_get_read_cb
                0x00049cde       0x14 C:/SysGCC/m68k-elf/m68k-elf/lib/m68000\liblvgl.a(lv_indev.o)
                0x00049cde                lv_indev_get_read_cb

.text.lv_indev_get_type
                0x00049cf2       0x12
 .text.lv_indev_get_type
                0x00049cf2       0x12 C:/SysGCC/m68k-elf/m68k-elf/lib/m68000\liblvgl.a(lv_indev.o)
                0x00049cf2                lv_indev_get_type

.text.lv_indev_get_state
                0x00049d04       0x14
 .text.lv_indev_get_state
                0x00049d04       0x14 C:/SysGCC/m68k-elf/m68k-elf/lib/m68000\liblvgl.a(lv_indev.o)
                0x00049d04                lv_indev_get_state

.text.lv_indev_get_group
                0x00049d18       0x14
 .text.lv_indev_get_group
                0x00049d18       0x14 C:/SysGCC/m68k-elf/m68k-elf/lib/m68000\liblvgl.a(lv_indev.o)
                0x00049d18                lv_indev_get_group

.text.lv_indev_get_display
                0x00049d2c       0x14
 .text.lv_indev_get_display
                0x00049d2c       0x14 C:/SysGCC/m68k-elf/m68k-elf/lib/m68000\liblvgl.a(lv_indev.o)
                0x00049d2c                lv_indev_get_display

.text.lv_indev_set_display
                0x00049d40       0x12
 .text.lv_indev_set_display
                0x00049d40       0x12 C:/SysGCC/m68k-elf/m68k-elf/lib/m68000\liblvgl.a(lv_indev.o)
                0x00049d40                lv_indev_set_display

.text.lv_indev_set_long_press_time
                0x00049d52       0x14
 .text.lv_indev_set_long_press_time
                0x00049d52       0x14 C:/SysGCC/m68k-elf/m68k-elf/lib/m68000\liblvgl.a(lv_indev.o)
                0x00049d52                lv_indev_set_long_press_time

.text.lv_indev_set_long_press_repeat_time
                0x00049d66       0x14
 .text.lv_indev_set_long_press_repeat_time
                0x00049d66       0x14 C:/SysGCC/m68k-elf/m68k-elf/lib/m68000\liblvgl.a(lv_indev.o)
                0x00049d66                lv_indev_set_long_press_repeat_time

.text.lv_indev_set_scroll_limit
                0x00049d7a       0x14
 .text.lv_indev_set_scroll_limit
                0x00049d7a       0x14 C:/SysGCC/m68k-elf/m68k-elf/lib/m68000\liblvgl.a(lv_indev.o)
                0x00049d7a                lv_indev_set_scroll_limit

.text.lv_indev_set_scroll_throw
                0x00049d8e       0x14
 .text.lv_indev_set_scroll_throw
                0x00049d8e       0x14 C:/SysGCC/m68k-elf/m68k-elf/lib/m68000\liblvgl.a(lv_indev.o)
                0x00049d8e                lv_indev_set_scroll_throw

.text.lv_indev_get_user_data
                0x00049da2       0x14
 .text.lv_indev_get_user_data
                0x00049da2       0x14 C:/SysGCC/m68k-elf/m68k-elf/lib/m68000\liblvgl.a(lv_indev.o)
                0x00049da2                lv_indev_get_user_data

.text.lv_indev_get_driver_data
                0x00049db6       0x14
 .text.lv_indev_get_driver_data
                0x00049db6       0x14 C:/SysGCC/m68k-elf/m68k-elf/lib/m68000\liblvgl.a(lv_indev.o)
                0x00049db6                lv_indev_get_driver_data

.text.lv_indev_get_press_moved
                0x00049dca       0x1a
 .text.lv_indev_get_press_moved
                0x00049dca       0x1a C:/SysGCC/m68k-elf/m68k-elf/lib/m68000\liblvgl.a(lv_indev.o)
                0x00049dca                lv_indev_get_press_moved

.text.lv_indev_stop_processing
                0x00049de4       0x12
 .text.lv_indev_stop_processing
                0x00049de4       0x12 C:/SysGCC/m68k-elf/m68k-elf/lib/m68000\liblvgl.a(lv_indev.o)
                0x00049de4                lv_indev_stop_processing

.text.lv_indev_reset_long_press
                0x00049df6       0x1e
 .text.lv_indev_reset_long_press
                0x00049df6       0x1e C:/SysGCC/m68k-elf/m68k-elf/lib/m68000\liblvgl.a(lv_indev.o)
                0x00049df6                lv_indev_reset_long_press

.text.lv_indev_set_cursor
                0x00049e14       0x68
 .text.lv_indev_set_cursor
                0x00049e14       0x68 C:/SysGCC/m68k-elf/m68k-elf/lib/m68000\liblvgl.a(lv_indev.o)
                0x00049e14                lv_indev_set_cursor

.text.lv_indev_set_group
                0x00049e7c       0x22
 .text.lv_indev_set_group
                0x00049e7c       0x22 C:/SysGCC/m68k-elf/m68k-elf/lib/m68000\liblvgl.a(lv_indev.o)
                0x00049e7c                lv_indev_set_group

.text.lv_indev_set_button_points
                0x00049e9e       0x18
 .text.lv_indev_set_button_points
                0x00049e9e       0x18 C:/SysGCC/m68k-elf/m68k-elf/lib/m68000\liblvgl.a(lv_indev.o)
                0x00049e9e                lv_indev_set_button_points

.text.lv_indev_get_point
                0x00049eb6       0x36
 .text.lv_indev_get_point
                0x00049eb6       0x36 C:/SysGCC/m68k-elf/m68k-elf/lib/m68000\liblvgl.a(lv_indev.o)
                0x00049eb6                lv_indev_get_point

.text.lv_indev_get_gesture_dir
                0x00049eec       0x12
 .text.lv_indev_get_gesture_dir
                0x00049eec       0x12 C:/SysGCC/m68k-elf/m68k-elf/lib/m68000\liblvgl.a(lv_indev.o)
                0x00049eec                lv_indev_get_gesture_dir

.text.lv_indev_get_key
                0x00049efe       0x1a
 .text.lv_indev_get_key
                0x00049efe       0x1a C:/SysGCC/m68k-elf/m68k-elf/lib/m68000\liblvgl.a(lv_indev.o)
                0x00049efe                lv_indev_get_key

.text.lv_indev_get_short_click_streak
                0x00049f18        0xa
 .text.lv_indev_get_short_click_streak
                0x00049f18        0xa C:/SysGCC/m68k-elf/m68k-elf/lib/m68000\liblvgl.a(lv_indev.o)
                0x00049f18                lv_indev_get_short_click_streak

.text.lv_indev_get_scroll_dir
                0x00049f22       0x26
 .text.lv_indev_get_scroll_dir
                0x00049f22       0x26 C:/SysGCC/m68k-elf/m68k-elf/lib/m68000\liblvgl.a(lv_indev.o)
                0x00049f22                lv_indev_get_scroll_dir

.text.lv_indev_get_scroll_obj
                0x00049f48       0x1e
 .text.lv_indev_get_scroll_obj
                0x00049f48       0x1e C:/SysGCC/m68k-elf/m68k-elf/lib/m68000\liblvgl.a(lv_indev.o)
                0x00049f48                lv_indev_get_scroll_obj

.text.lv_indev_get_vect
                0x00049f66       0x2a
 .text.lv_indev_get_vect
                0x00049f66       0x2a C:/SysGCC/m68k-elf/m68k-elf/lib/m68000\liblvgl.a(lv_indev.o)
                0x00049f66                lv_indev_get_vect

.text.lv_indev_get_cursor
                0x00049f90       0x14
 .text.lv_indev_get_cursor
                0x00049f90       0x14 C:/SysGCC/m68k-elf/m68k-elf/lib/m68000\liblvgl.a(lv_indev.o)
                0x00049f90                lv_indev_get_cursor

.text.lv_indev_wait_release
                0x00049fa4       0x12
 .text.lv_indev_wait_release
                0x00049fa4       0x12 C:/SysGCC/m68k-elf/m68k-elf/lib/m68000\liblvgl.a(lv_indev.o)
                0x00049fa4                lv_indev_wait_release

.text.lv_indev_get_active_obj
                0x00049fb6        0x8
 .text.lv_indev_get_active_obj
                0x00049fb6        0x8 C:/SysGCC/m68k-elf/m68k-elf/lib/m68000\liblvgl.a(lv_indev.o)
                0x00049fb6                lv_indev_get_active_obj

.text.lv_indev_get_read_timer
                0x00049fbe       0x14
 .text.lv_indev_get_read_timer
                0x00049fbe       0x14 C:/SysGCC/m68k-elf/m68k-elf/lib/m68000\liblvgl.a(lv_indev.o)
                0x00049fbe                lv_indev_get_read_timer

.text.lv_indev_get_mode
                0x00049fd2       0x14
 .text.lv_indev_get_mode
                0x00049fd2       0x14 C:/SysGCC/m68k-elf/m68k-elf/lib/m68000\liblvgl.a(lv_indev.o)
                0x00049fd2                lv_indev_get_mode

.text.lv_indev_set_mode
                0x00049fe6       0x62
 .text.lv_indev_set_mode
                0x00049fe6       0x62 C:/SysGCC/m68k-elf/m68k-elf/lib/m68000\liblvgl.a(lv_indev.o)
                0x00049fe6                lv_indev_set_mode

.text.lv_indev_search_obj
                0x0004a048       0xf8
 .text.lv_indev_search_obj
                0x0004a048       0xf8 C:/SysGCC/m68k-elf/m68k-elf/lib/m68000\liblvgl.a(lv_indev.o)
                0x0004a048                lv_indev_search_obj

.text.pointer_search_obj
                0x0004a140       0x7e
 .text.pointer_search_obj
                0x0004a140       0x7e C:/SysGCC/m68k-elf/m68k-elf/lib/m68000\liblvgl.a(lv_indev.o)

.text.lv_indev_add_event_cb
                0x0004a1be        0xe
 .text.lv_indev_add_event_cb
                0x0004a1be        0xe C:/SysGCC/m68k-elf/m68k-elf/lib/m68000\liblvgl.a(lv_indev.o)
                0x0004a1be                lv_indev_add_event_cb

.text.lv_indev_get_event_count
                0x0004a1cc        0xe
 .text.lv_indev_get_event_count
                0x0004a1cc        0xe C:/SysGCC/m68k-elf/m68k-elf/lib/m68000\liblvgl.a(lv_indev.o)
                0x0004a1cc                lv_indev_get_event_count

.text.lv_indev_get_event_dsc
                0x0004a1da        0xe
 .text.lv_indev_get_event_dsc
                0x0004a1da        0xe C:/SysGCC/m68k-elf/m68k-elf/lib/m68000\liblvgl.a(lv_indev.o)
                0x0004a1da                lv_indev_get_event_dsc

.text.lv_indev_remove_event
                0x0004a1e8        0xe
 .text.lv_indev_remove_event
                0x0004a1e8        0xe C:/SysGCC/m68k-elf/m68k-elf/lib/m68000\liblvgl.a(lv_indev.o)
                0x0004a1e8                lv_indev_remove_event

.text.lv_indev_remove_event_cb_with_user_data
                0x0004a1f6       0x66
 .text.lv_indev_remove_event_cb_with_user_data
                0x0004a1f6       0x66 C:/SysGCC/m68k-elf/m68k-elf/lib/m68000\liblvgl.a(lv_indev.o)
                0x0004a1f6                lv_indev_remove_event_cb_with_user_data

.text.lv_indev_send_event
                0x0004a25c       0x1e
 .text.lv_indev_send_event
                0x0004a25c       0x1e C:/SysGCC/m68k-elf/m68k-elf/lib/m68000\liblvgl.a(lv_indev.o)
                0x0004a25c                lv_indev_send_event

.text.lv_indev_delete
                0x0004a27a       0x56
 .text.lv_indev_delete
                0x0004a27a       0x56 C:/SysGCC/m68k-elf/m68k-elf/lib/m68000\liblvgl.a(lv_indev.o)
                0x0004a27a                lv_indev_delete

.text.send_event
                0x0004a2d0       0x94
 .text.send_event
                0x0004a2d0       0x94 C:/SysGCC/m68k-elf/m68k-elf/lib/m68000\liblvgl.a(lv_indev.o)

.text.indev_proc_short_click
                0x0004a364       0xf8
 .text.indev_proc_short_click
                0x0004a364       0xf8 C:/SysGCC/m68k-elf/m68k-elf/lib/m68000\liblvgl.a(lv_indev.o)

.text.indev_proc_press
                0x0004a45c      0x708
 .text.indev_proc_press
                0x0004a45c      0x708 C:/SysGCC/m68k-elf/m68k-elf/lib/m68000\liblvgl.a(lv_indev.o)

.text.indev_proc_release
                0x0004ab64      0x39e
 .text.indev_proc_release
                0x0004ab64      0x39e C:/SysGCC/m68k-elf/m68k-elf/lib/m68000\liblvgl.a(lv_indev.o)

.text.lv_indev_read
                0x0004af02      0xbf6
 .text.lv_indev_read
                0x0004af02      0xbf6 C:/SysGCC/m68k-elf/m68k-elf/lib/m68000\liblvgl.a(lv_indev.o)
                0x0004af02                lv_indev_read

.text.lv_indev_read_timer_cb
                0x0004baf8       0x10
 .text.lv_indev_read_timer_cb
                0x0004baf8       0x10 C:/SysGCC/m68k-elf/m68k-elf/lib/m68000\liblvgl.a(lv_indev.o)
                0x0004baf8                lv_indev_read_timer_cb

.text.indev_reset_core
                0x0004bb08       0xa0
 .text.indev_reset_core
                0x0004bb08       0xa0 C:/SysGCC/m68k-elf/m68k-elf/lib/m68000\liblvgl.a(lv_indev.o)

.text.lv_indev_reset
                0x0004bba8       0x62
 .text.lv_indev_reset
                0x0004bba8       0x62 C:/SysGCC/m68k-elf/m68k-elf/lib/m68000\liblvgl.a(lv_indev.o)
                0x0004bba8                lv_indev_reset

.text.lv_indev_set_key_remap_cb
                0x0004bc0a       0x12
 .text.lv_indev_set_key_remap_cb
                0x0004bc0a       0x12 C:/SysGCC/m68k-elf/m68k-elf/lib/m68000\liblvgl.a(lv_indev.o)
                0x0004bc0a                lv_indev_set_key_remap_cb

.text.find_snap_point_x
                0x0004bc1c      0x15e
 .text.find_snap_point_x
                0x0004bc1c      0x15e C:/SysGCC/m68k-elf/m68k-elf/lib/m68000\liblvgl.a(lv_indev_scroll.o)

.text.find_snap_point_y
                0x0004bd7a      0x15e
 .text.find_snap_point_y
                0x0004bd7a      0x15e C:/SysGCC/m68k-elf/m68k-elf/lib/m68000\liblvgl.a(lv_indev_scroll.o)

.text.has_more_snap_points
                0x0004bed8      0x1ea
 .text.has_more_snap_points
                0x0004bed8      0x1ea C:/SysGCC/m68k-elf/m68k-elf/lib/m68000\liblvgl.a(lv_indev_scroll.o)

.text.elastic_diff
                0x0004c0c2       0xba
 .text.elastic_diff
                0x0004c0c2       0xba C:/SysGCC/m68k-elf/m68k-elf/lib/m68000\liblvgl.a(lv_indev_scroll.o)

.text.lv_indev_scroll_throw_predict
                0x0004c17c       0x6a
 .text.lv_indev_scroll_throw_predict
                0x0004c17c       0x6a C:/SysGCC/m68k-elf/m68k-elf/lib/m68000\liblvgl.a(lv_indev_scroll.o)
                0x0004c17c                lv_indev_scroll_throw_predict

.text.lv_indev_scroll_throw_handler
                0x0004c1e6      0x2e4
 .text.lv_indev_scroll_throw_handler
                0x0004c1e6      0x2e4 C:/SysGCC/m68k-elf/m68k-elf/lib/m68000\liblvgl.a(lv_indev_scroll.o)
                0x0004c1e6                lv_indev_scroll_throw_handler

.text.lv_indev_scroll_get_snap_dist
                0x0004c4ca       0x40
 .text.lv_indev_scroll_get_snap_dist
                0x0004c4ca       0x40 C:/SysGCC/m68k-elf/m68k-elf/lib/m68000\liblvgl.a(lv_indev_scroll.o)
                0x0004c4ca                lv_indev_scroll_get_snap_dist

.text.lv_indev_find_scroll_obj
                0x0004c50a      0x3ca
 .text.lv_indev_find_scroll_obj
                0x0004c50a      0x3ca C:/SysGCC/m68k-elf/m68k-elf/lib/m68000\liblvgl.a(lv_indev_scroll.o)
                0x0004c50a                lv_indev_find_scroll_obj

.text.lv_indev_scroll_handler
                0x0004c8d4      0x4c4
 .text.lv_indev_scroll_handler
                0x0004c8d4      0x4c4 C:/SysGCC/m68k-elf/m68k-elf/lib/m68000\liblvgl.a(lv_indev_scroll.o)
                0x0004c8d4                lv_indev_scroll_handler

.text.place_content
                0x0004cd98       0xb2
 .text.place_content
                0x0004cd98       0xb2 C:/SysGCC/m68k-elf/m68k-elf/lib/m68000\liblvgl.a(lv_flex.o)

.text.lv_obj_get_style_margin_top
                0x0004ce4a       0x22
 .text.lv_obj_get_style_margin_top
                0x0004ce4a       0x22 C:/SysGCC/m68k-elf/m68k-elf/lib/m68000\liblvgl.a(lv_flex.o)

.text.lv_obj_get_style_margin_bottom
                0x0004ce6c       0x22
 .text.lv_obj_get_style_margin_bottom
                0x0004ce6c       0x22 C:/SysGCC/m68k-elf/m68k-elf/lib/m68000\liblvgl.a(lv_flex.o)

.text.lv_obj_get_style_margin_left
                0x0004ce8e       0x22
 .text.lv_obj_get_style_margin_left
                0x0004ce8e       0x22 C:/SysGCC/m68k-elf/m68k-elf/lib/m68000\liblvgl.a(lv_flex.o)

.text.lv_obj_get_style_margin_right
                0x0004ceb0       0x22
 .text.lv_obj_get_style_margin_right
                0x0004ceb0       0x22 C:/SysGCC/m68k-elf/m68k-elf/lib/m68000\liblvgl.a(lv_flex.o)

.text.lv_obj_get_height_with_margin
                0x0004ced2       0x34
 .text.lv_obj_get_height_with_margin
                0x0004ced2       0x34 C:/SysGCC/m68k-elf/m68k-elf/lib/m68000\liblvgl.a(lv_flex.o)

.text.lv_obj_get_width_with_margin
                0x0004cf06       0x34
 .text.lv_obj_get_width_with_margin
                0x0004cf06       0x34 C:/SysGCC/m68k-elf/m68k-elf/lib/m68000\liblvgl.a(lv_flex.o)

.text.get_next_item.isra.0
                0x0004cf3a       0x3c
 .text.get_next_item.isra.0
                0x0004cf3a       0x3c C:/SysGCC/m68k-elf/m68k-elf/lib/m68000\liblvgl.a(lv_flex.o)

.text.find_track_end
                0x0004cf76      0x2f6
 .text.find_track_end
                0x0004cf76      0x2f6 C:/SysGCC/m68k-elf/m68k-elf/lib/m68000\liblvgl.a(lv_flex.o)

.text.flex_update
                0x0004d26c      0x97e
 .text.flex_update
                0x0004d26c      0x97e C:/SysGCC/m68k-elf/m68k-elf/lib/m68000\liblvgl.a(lv_flex.o)

.text.lv_flex_init
                0x0004dbea       0x14
 .text.lv_flex_init
                0x0004dbea       0x14 C:/SysGCC/m68k-elf/m68k-elf/lib/m68000\liblvgl.a(lv_flex.o)
                0x0004dbea                lv_flex_init

.text.lv_obj_set_flex_flow
                0x0004dbfe       0x2a
 .text.lv_obj_set_flex_flow
                0x0004dbfe       0x2a C:/SysGCC/m68k-elf/m68k-elf/lib/m68000\liblvgl.a(lv_flex.o)
                0x0004dbfe                lv_obj_set_flex_flow

.text.lv_obj_set_flex_align
                0x0004dc28       0x52
 .text.lv_obj_set_flex_align
                0x0004dc28       0x52 C:/SysGCC/m68k-elf/m68k-elf/lib/m68000\liblvgl.a(lv_flex.o)
                0x0004dc28                lv_obj_set_flex_align

.text.lv_obj_set_flex_grow
                0x0004dc7a       0x38
 .text.lv_obj_set_flex_grow
                0x0004dc7a       0x38 C:/SysGCC/m68k-elf/m68k-elf/lib/m68000\liblvgl.a(lv_flex.o)
                0x0004dc7a                lv_obj_set_flex_grow

.text.lv_layout_init
                0x0004dcb2       0x24
 .text.lv_layout_init
                0x0004dcb2       0x24 C:/SysGCC/m68k-elf/m68k-elf/lib/m68000\liblvgl.a(lv_layout.o)
                0x0004dcb2                lv_layout_init

.text.lv_layout_deinit
                0x0004dcd6       0x10
 .text.lv_layout_deinit
                0x0004dcd6       0x10 C:/SysGCC/m68k-elf/m68k-elf/lib/m68000\liblvgl.a(lv_layout.o)
                0x0004dcd6                lv_layout_deinit

.text.lv_layout_register
                0x0004dce6       0x46
 .text.lv_layout_register
                0x0004dce6       0x46 C:/SysGCC/m68k-elf/m68k-elf/lib/m68000\liblvgl.a(lv_layout.o)
                0x0004dce6                lv_layout_register

.text.lv_layout_apply
                0x0004dd2c       0x4c
 .text.lv_layout_apply
                0x0004dd2c       0x4c C:/SysGCC/m68k-elf/m68k-elf/lib/m68000\liblvgl.a(lv_layout.o)
                0x0004dd2c                lv_layout_apply

.text.lv_bin_decoder_info
                0x0004dd78       0xca
 .text.lv_bin_decoder_info
                0x0004dd78       0xca C:/SysGCC/m68k-elf/m68k-elf/lib/m68000\liblvgl.a(lv_bin_decoder.o)
                0x0004dd78                lv_bin_decoder_info

.text.fs_read_file_at
                0x0004de42       0x54
 .text.fs_read_file_at
                0x0004de42       0x54 C:/SysGCC/m68k-elf/m68k-elf/lib/m68000\liblvgl.a(lv_bin_decoder.o)

.text.lv_bin_decoder_get_area
                0x0004de96      0x3ca
 .text.lv_bin_decoder_get_area
                0x0004de96      0x3ca C:/SysGCC/m68k-elf/m68k-elf/lib/m68000\liblvgl.a(lv_bin_decoder.o)
                0x0004de96                lv_bin_decoder_get_area

.text.decode_indexed.isra.2
                0x0004e260       0xf2
 .text.decode_indexed.isra.2
                0x0004e260       0xf2 C:/SysGCC/m68k-elf/m68k-elf/lib/m68000\liblvgl.a(lv_bin_decoder.o)

.text.decode_alpha_only.isra.3
                0x0004e352      0x170
 .text.decode_alpha_only.isra.3
                0x0004e352      0x170 C:/SysGCC/m68k-elf/m68k-elf/lib/m68000\liblvgl.a(lv_bin_decoder.o)

.text.free_decoder_data.isra.4
                0x0004e4c2       0x5c
 .text.free_decoder_data.isra.4
                0x0004e4c2       0x5c C:/SysGCC/m68k-elf/m68k-elf/lib/m68000\liblvgl.a(lv_bin_decoder.o)

.text.lv_bin_decoder_close
                0x0004e51e       0x3a
 .text.lv_bin_decoder_close
                0x0004e51e       0x3a C:/SysGCC/m68k-elf/m68k-elf/lib/m68000\liblvgl.a(lv_bin_decoder.o)
                0x0004e51e                lv_bin_decoder_close

.text.get_decoder_data.isra.5
                0x0004e558       0x28
 .text.get_decoder_data.isra.5
                0x0004e558       0x28 C:/SysGCC/m68k-elf/m68k-elf/lib/m68000\liblvgl.a(lv_bin_decoder.o)

.text.lv_bin_decoder_open
                0x0004e580      0x2e2
 .text.lv_bin_decoder_open
                0x0004e580      0x2e2 C:/SysGCC/m68k-elf/m68k-elf/lib/m68000\liblvgl.a(lv_bin_decoder.o)
                0x0004e580                lv_bin_decoder_open

.text.lv_bin_decoder_init
                0x0004e862       0x56
 .text.lv_bin_decoder_init
                0x0004e862       0x56 C:/SysGCC/m68k-elf/m68k-elf/lib/m68000\liblvgl.a(lv_bin_decoder.o)
                0x0004e862                lv_bin_decoder_init

.text.image_cache_free_cb
                0x0004e8b8       0x36
 .text.image_cache_free_cb
                0x0004e8b8       0x36 C:/SysGCC/m68k-elf/m68k-elf/lib/m68000\liblvgl.a(lv_image_cache.o)

.text.image_cache_compare_cb
                0x0004e8ee       0x5c
 .text.image_cache_compare_cb
                0x0004e8ee       0x5c C:/SysGCC/m68k-elf/m68k-elf/lib/m68000\liblvgl.a(lv_image_cache.o)

.text.iter_inspect_cb
                0x0004e94a       0x30
 .text.iter_inspect_cb
                0x0004e94a       0x18 C:/SysGCC/m68k-elf/m68k-elf/lib/m68000\liblvgl.a(lv_image_cache.o)
 .text.iter_inspect_cb
                0x0004e962       0x18 C:/SysGCC/m68k-elf/m68k-elf/lib/m68000\liblvgl.a(lv_image_header_cache.o)

.text.lv_image_cache_init
                0x0004e97a       0x84
 .text.lv_image_cache_init
                0x0004e97a       0x84 C:/SysGCC/m68k-elf/m68k-elf/lib/m68000\liblvgl.a(lv_image_cache.o)
                0x0004e97a                lv_image_cache_init

.text.lv_image_cache_resize
                0x0004e9fe       0x3e
 .text.lv_image_cache_resize
                0x0004e9fe       0x3e C:/SysGCC/m68k-elf/m68k-elf/lib/m68000\liblvgl.a(lv_image_cache.o)
                0x0004e9fe                lv_image_cache_resize

.text.lv_image_cache_drop
                0x0004ea3c       0x7c
 .text.lv_image_cache_drop
                0x0004ea3c       0x7c C:/SysGCC/m68k-elf/m68k-elf/lib/m68000\liblvgl.a(lv_image_cache.o)
                0x0004ea3c                lv_image_cache_drop

.text.lv_image_cache_is_enabled
                0x0004eab8       0x10
 .text.lv_image_cache_is_enabled
                0x0004eab8       0x10 C:/SysGCC/m68k-elf/m68k-elf/lib/m68000\liblvgl.a(lv_image_cache.o)
                0x0004eab8                lv_image_cache_is_enabled

.text.lv_image_cache_iter_create
                0x0004eac8       0x10
 .text.lv_image_cache_iter_create
                0x0004eac8       0x10 C:/SysGCC/m68k-elf/m68k-elf/lib/m68000\liblvgl.a(lv_image_cache.o)
                0x0004eac8                lv_image_cache_iter_create

.text.lv_image_cache_dump
                0x0004ead8       0x2a
 .text.lv_image_cache_dump
                0x0004ead8       0x2a C:/SysGCC/m68k-elf/m68k-elf/lib/m68000\liblvgl.a(lv_image_cache.o)
                0x0004ead8                lv_image_cache_dump

.text.image_header_cache_free_cb
                0x0004eb02       0x18
 .text.image_header_cache_free_cb
                0x0004eb02       0x18 C:/SysGCC/m68k-elf/m68k-elf/lib/m68000\liblvgl.a(lv_image_header_cache.o)

.text.image_header_cache_compare_cb
                0x0004eb1a       0x58
 .text.image_header_cache_compare_cb
                0x0004eb1a       0x58 C:/SysGCC/m68k-elf/m68k-elf/lib/m68000\liblvgl.a(lv_image_header_cache.o)

.text.lv_image_header_cache_init
                0x0004eb72       0x84
 .text.lv_image_header_cache_init
                0x0004eb72       0x84 C:/SysGCC/m68k-elf/m68k-elf/lib/m68000\liblvgl.a(lv_image_header_cache.o)
                0x0004eb72                lv_image_header_cache_init

.text.lv_image_header_cache_resize
                0x0004ebf6       0x3e
 .text.lv_image_header_cache_resize
                0x0004ebf6       0x3e C:/SysGCC/m68k-elf/m68k-elf/lib/m68000\liblvgl.a(lv_image_header_cache.o)
                0x0004ebf6                lv_image_header_cache_resize

.text.lv_image_header_cache_drop
                0x0004ec34       0x60
 .text.lv_image_header_cache_drop
                0x0004ec34       0x60 C:/SysGCC/m68k-elf/m68k-elf/lib/m68000\liblvgl.a(lv_image_header_cache.o)
                0x0004ec34                lv_image_header_cache_drop

.text.lv_image_header_cache_is_enabled
                0x0004ec94       0x10
 .text.lv_image_header_cache_is_enabled
                0x0004ec94       0x10 C:/SysGCC/m68k-elf/m68k-elf/lib/m68000\liblvgl.a(lv_image_header_cache.o)
                0x0004ec94                lv_image_header_cache_is_enabled

.text.lv_image_header_cache_iter_create
                0x0004eca4       0x10
 .text.lv_image_header_cache_iter_create
                0x0004eca4       0x10 C:/SysGCC/m68k-elf/m68k-elf/lib/m68000\liblvgl.a(lv_image_header_cache.o)
                0x0004eca4                lv_image_header_cache_iter_create

.text.lv_image_header_cache_dump
                0x0004ecb4       0x2a
 .text.lv_image_header_cache_dump
                0x0004ecb4       0x2a C:/SysGCC/m68k-elf/m68k-elf/lib/m68000\liblvgl.a(lv_image_header_cache.o)
                0x0004ecb4                lv_image_header_cache_dump

.text.cache_evict_one_internal_no_lock
                0x0004ecde       0x56
 .text.cache_evict_one_internal_no_lock
                0x0004ecde       0x56 C:/SysGCC/m68k-elf/m68k-elf/lib/m68000\liblvgl.a(lv_cache.o)

.text.cache_add_internal_no_lock
                0x0004ed34       0x78
 .text.cache_add_internal_no_lock
                0x0004ed34       0x78 C:/SysGCC/m68k-elf/m68k-elf/lib/m68000\liblvgl.a(lv_cache.o)

.text.lv_cache_create
                0x0004edac       0x60
 .text.lv_cache_create
                0x0004edac       0x60 C:/SysGCC/m68k-elf/m68k-elf/lib/m68000\liblvgl.a(lv_cache.o)
                0x0004edac                lv_cache_create

.text.lv_cache_destroy
                0x0004ee0c       0x22
 .text.lv_cache_destroy
                0x0004ee0c       0x22 C:/SysGCC/m68k-elf/m68k-elf/lib/m68000\liblvgl.a(lv_cache.o)
                0x0004ee0c                lv_cache_destroy

.text.lv_cache_acquire
                0x0004ee2e       0x3a
 .text.lv_cache_acquire
                0x0004ee2e       0x3a C:/SysGCC/m68k-elf/m68k-elf/lib/m68000\liblvgl.a(lv_cache.o)
                0x0004ee2e                lv_cache_acquire

.text.lv_cache_release
                0x0004ee68       0x62
 .text.lv_cache_release
                0x0004ee68       0x62 C:/SysGCC/m68k-elf/m68k-elf/lib/m68000\liblvgl.a(lv_cache.o)
                0x0004ee68                lv_cache_release

.text.lv_cache_add
                0x0004eeca       0x38
 .text.lv_cache_add
                0x0004eeca       0x38 C:/SysGCC/m68k-elf/m68k-elf/lib/m68000\liblvgl.a(lv_cache.o)
                0x0004eeca                lv_cache_add

.text.lv_cache_acquire_or_create
                0x0004ef02       0xa0
 .text.lv_cache_acquire_or_create
                0x0004ef02       0xa0 C:/SysGCC/m68k-elf/m68k-elf/lib/m68000\liblvgl.a(lv_cache.o)
                0x0004ef02                lv_cache_acquire_or_create

.text.lv_cache_reserve
                0x0004efa2       0x52
 .text.lv_cache_reserve
                0x0004efa2       0x52 C:/SysGCC/m68k-elf/m68k-elf/lib/m68000\liblvgl.a(lv_cache.o)
                0x0004efa2                lv_cache_reserve

.text.lv_cache_drop
                0x0004eff4       0x90
 .text.lv_cache_drop
                0x0004eff4       0x90 C:/SysGCC/m68k-elf/m68k-elf/lib/m68000\liblvgl.a(lv_cache.o)
                0x0004eff4                lv_cache_drop

.text.lv_cache_evict_one
                0x0004f084        0x6
 .text.lv_cache_evict_one
                0x0004f084        0x6 C:/SysGCC/m68k-elf/m68k-elf/lib/m68000\liblvgl.a(lv_cache.o)
                0x0004f084                lv_cache_evict_one

.text.lv_cache_drop_all
                0x0004f08a        0xc
 .text.lv_cache_drop_all
                0x0004f08a        0xc C:/SysGCC/m68k-elf/m68k-elf/lib/m68000\liblvgl.a(lv_cache.o)
                0x0004f08a                lv_cache_drop_all

.text.lv_cache_set_max_size
                0x0004f096        0xc
 .text.lv_cache_set_max_size
                0x0004f096        0xc C:/SysGCC/m68k-elf/m68k-elf/lib/m68000\liblvgl.a(lv_cache.o)
                0x0004f096                lv_cache_set_max_size

.text.lv_cache_get_max_size
                0x0004f0a2        0xa
 .text.lv_cache_get_max_size
                0x0004f0a2        0xa C:/SysGCC/m68k-elf/m68k-elf/lib/m68000\liblvgl.a(lv_cache.o)
                0x0004f0a2                lv_cache_get_max_size

.text.lv_cache_get_size
                0x0004f0ac        0xa
 .text.lv_cache_get_size
                0x0004f0ac        0xa C:/SysGCC/m68k-elf/m68k-elf/lib/m68000\liblvgl.a(lv_cache.o)
                0x0004f0ac                lv_cache_get_size

.text.lv_cache_get_free_size
                0x0004f0b6        0xe
 .text.lv_cache_get_free_size
                0x0004f0b6        0xe C:/SysGCC/m68k-elf/m68k-elf/lib/m68000\liblvgl.a(lv_cache.o)
                0x0004f0b6                lv_cache_get_free_size

.text.lv_cache_is_enabled
                0x0004f0c4        0xe
 .text.lv_cache_is_enabled
                0x0004f0c4        0xe C:/SysGCC/m68k-elf/m68k-elf/lib/m68000\liblvgl.a(lv_cache.o)
                0x0004f0c4                lv_cache_is_enabled

.text.lv_cache_set_compare_cb
                0x0004f0d2        0xc
 .text.lv_cache_set_compare_cb
                0x0004f0d2        0xc C:/SysGCC/m68k-elf/m68k-elf/lib/m68000\liblvgl.a(lv_cache.o)
                0x0004f0d2                lv_cache_set_compare_cb

.text.lv_cache_set_create_cb
                0x0004f0de        0xc
 .text.lv_cache_set_create_cb
                0x0004f0de        0xc C:/SysGCC/m68k-elf/m68k-elf/lib/m68000\liblvgl.a(lv_cache.o)
                0x0004f0de                lv_cache_set_create_cb

.text.lv_cache_set_free_cb
                0x0004f0ea        0xc
 .text.lv_cache_set_free_cb
                0x0004f0ea        0xc C:/SysGCC/m68k-elf/m68k-elf/lib/m68000\liblvgl.a(lv_cache.o)
                0x0004f0ea                lv_cache_set_free_cb

.text.lv_cache_set_name
                0x0004f0f6       0x12
 .text.lv_cache_set_name
                0x0004f0f6       0x12 C:/SysGCC/m68k-elf/m68k-elf/lib/m68000\liblvgl.a(lv_cache.o)
                0x0004f0f6                lv_cache_set_name

.text.lv_cache_get_name
                0x0004f108        0xa
 .text.lv_cache_get_name
                0x0004f108        0xa C:/SysGCC/m68k-elf/m68k-elf/lib/m68000\liblvgl.a(lv_cache.o)
                0x0004f108                lv_cache_get_name

.text.lv_cache_iter_create
                0x0004f112       0x1c
 .text.lv_cache_iter_create
                0x0004f112       0x1c C:/SysGCC/m68k-elf/m68k-elf/lib/m68000\liblvgl.a(lv_cache.o)
                0x0004f112                lv_cache_iter_create

.text.lv_cache_entry_reset_ref
                0x0004f12e        0xa
 .text.lv_cache_entry_reset_ref
                0x0004f12e        0xa C:/SysGCC/m68k-elf/m68k-elf/lib/m68000\liblvgl.a(lv_cache_entry.o)
                0x0004f12e                lv_cache_entry_reset_ref

.text.lv_cache_entry_inc_ref
                0x0004f138        0xa
 .text.lv_cache_entry_inc_ref
                0x0004f138        0xa C:/SysGCC/m68k-elf/m68k-elf/lib/m68000\liblvgl.a(lv_cache_entry.o)
                0x0004f138                lv_cache_entry_inc_ref

.text.lv_cache_entry_dec_ref
                0x0004f142       0x18
 .text.lv_cache_entry_dec_ref
                0x0004f142       0x18 C:/SysGCC/m68k-elf/m68k-elf/lib/m68000\liblvgl.a(lv_cache_entry.o)
                0x0004f142                lv_cache_entry_dec_ref

.text.lv_cache_entry_get_ref
                0x0004f15a        0xa
 .text.lv_cache_entry_get_ref
                0x0004f15a        0xa C:/SysGCC/m68k-elf/m68k-elf/lib/m68000\liblvgl.a(lv_cache_entry.o)
                0x0004f15a                lv_cache_entry_get_ref

.text.lv_cache_entry_get_node_size
                0x0004f164        0xa
 .text.lv_cache_entry_get_node_size
                0x0004f164        0xa C:/SysGCC/m68k-elf/m68k-elf/lib/m68000\liblvgl.a(lv_cache_entry.o)
                0x0004f164                lv_cache_entry_get_node_size

.text.lv_cache_entry_set_node_size
                0x0004f16e        0xc
 .text.lv_cache_entry_set_node_size
                0x0004f16e        0xc C:/SysGCC/m68k-elf/m68k-elf/lib/m68000\liblvgl.a(lv_cache_entry.o)
                0x0004f16e                lv_cache_entry_set_node_size

.text.lv_cache_entry_is_invalid
                0x0004f17a        0xe
 .text.lv_cache_entry_is_invalid
                0x0004f17a        0xe C:/SysGCC/m68k-elf/m68k-elf/lib/m68000\liblvgl.a(lv_cache_entry.o)
                0x0004f17a                lv_cache_entry_is_invalid

.text.lv_cache_entry_get_data
                0x0004f188        0xc
 .text.lv_cache_entry_get_data
                0x0004f188        0xc C:/SysGCC/m68k-elf/m68k-elf/lib/m68000\liblvgl.a(lv_cache_entry.o)
                0x0004f188                lv_cache_entry_get_data

.text.lv_cache_entry_acquire_data
                0x0004f194       0x10
 .text.lv_cache_entry_acquire_data
                0x0004f194       0x10 C:/SysGCC/m68k-elf/m68k-elf/lib/m68000\liblvgl.a(lv_cache_entry.o)
                0x0004f194                lv_cache_entry_acquire_data

.text.lv_cache_entry_release_data
                0x0004f1a4       0x12
 .text.lv_cache_entry_release_data
                0x0004f1a4       0x12 C:/SysGCC/m68k-elf/m68k-elf/lib/m68000\liblvgl.a(lv_cache_entry.o)
                0x0004f1a4                lv_cache_entry_release_data

.text.lv_cache_entry_get_entry
                0x0004f1b6        0xa
 .text.lv_cache_entry_get_entry
                0x0004f1b6        0xa C:/SysGCC/m68k-elf/m68k-elf/lib/m68000\liblvgl.a(lv_cache_entry.o)
                0x0004f1b6                lv_cache_entry_get_entry

.text.lv_cache_entry_set_cache
                0x0004f1c0        0xa
 .text.lv_cache_entry_set_cache
                0x0004f1c0        0xa C:/SysGCC/m68k-elf/m68k-elf/lib/m68000\liblvgl.a(lv_cache_entry.o)
                0x0004f1c0                lv_cache_entry_set_cache

.text.lv_cache_entry_get_cache
                0x0004f1ca        0x8
 .text.lv_cache_entry_get_cache
                0x0004f1ca        0x8 C:/SysGCC/m68k-elf/m68k-elf/lib/m68000\liblvgl.a(lv_cache_entry.o)
                0x0004f1ca                lv_cache_entry_get_cache

.text.lv_cache_entry_get_size
                0x0004f1d2        0x8
 .text.lv_cache_entry_get_size
                0x0004f1d2        0x8 C:/SysGCC/m68k-elf/m68k-elf/lib/m68000\liblvgl.a(lv_cache_entry.o)
                0x0004f1d2                lv_cache_entry_get_size

.text.lv_cache_entry_alloc
                0x0004f1da       0x34
 .text.lv_cache_entry_alloc
                0x0004f1da       0x34 C:/SysGCC/m68k-elf/m68k-elf/lib/m68000\liblvgl.a(lv_cache_entry.o)
                0x0004f1da                lv_cache_entry_alloc

.text.lv_cache_entry_init
                0x0004f20e       0x18
 .text.lv_cache_entry_init
                0x0004f20e       0x18 C:/SysGCC/m68k-elf/m68k-elf/lib/m68000\liblvgl.a(lv_cache_entry.o)
                0x0004f20e                lv_cache_entry_init

.text.lv_cache_entry_delete
                0x0004f226       0x1c
 .text.lv_cache_entry_delete
                0x0004f226       0x1c C:/SysGCC/m68k-elf/m68k-elf/lib/m68000\liblvgl.a(lv_cache_entry.o)
                0x0004f226                lv_cache_entry_delete

.text.lv_cache_entry_set_flag
                0x0004f242        0xe
 .text.lv_cache_entry_set_flag
                0x0004f242        0xe C:/SysGCC/m68k-elf/m68k-elf/lib/m68000\liblvgl.a(lv_cache_entry.o)
                0x0004f242                lv_cache_entry_set_flag

.text.lv_cache_entry_remove_flag
                0x0004f250       0x10
 .text.lv_cache_entry_remove_flag
                0x0004f250       0x10 C:/SysGCC/m68k-elf/m68k-elf/lib/m68000\liblvgl.a(lv_cache_entry.o)
                0x0004f250                lv_cache_entry_remove_flag

.text.lv_cache_entry_has_flag
                0x0004f260       0x16
 .text.lv_cache_entry_has_flag
                0x0004f260       0x16 C:/SysGCC/m68k-elf/m68k-elf/lib/m68000\liblvgl.a(lv_cache_entry.o)
                0x0004f260                lv_cache_entry_has_flag

.text.exec_anim
                0x0004f276       0x3c
 .text.exec_anim
                0x0004f276       0x3c C:/SysGCC/m68k-elf/m68k-elf/lib/m68000\liblvgl.a(lv_anim_timeline.o)

.text.anim_timeline_path_cb
                0x0004f2b2       0x22
 .text.anim_timeline_path_cb
                0x0004f2b2       0x22 C:/SysGCC/m68k-elf/m68k-elf/lib/m68000\liblvgl.a(lv_anim_timeline.o)

.text.anim_timeline_set_act_time
                0x0004f2d4      0x172
 .text.anim_timeline_set_act_time
                0x0004f2d4      0x172 C:/SysGCC/m68k-elf/m68k-elf/lib/m68000\liblvgl.a(lv_anim_timeline.o)

.text.anim_timeline_exec_cb
                0x0004f446        0x6
 .text.anim_timeline_exec_cb
                0x0004f446        0x6 C:/SysGCC/m68k-elf/m68k-elf/lib/m68000\liblvgl.a(lv_anim_timeline.o)

.text.lv_anim_timeline_create
                0x0004f44c        0xe
 .text.lv_anim_timeline_create
                0x0004f44c        0xe C:/SysGCC/m68k-elf/m68k-elf/lib/m68000\liblvgl.a(lv_anim_timeline.o)
                0x0004f44c                lv_anim_timeline_create

.text.lv_anim_timeline_add
                0x0004f45a       0x66
 .text.lv_anim_timeline_add
                0x0004f45a       0x66 C:/SysGCC/m68k-elf/m68k-elf/lib/m68000\liblvgl.a(lv_anim_timeline.o)
                0x0004f45a                lv_anim_timeline_add

.text.lv_anim_timeline_pause
                0x0004f4c0       0x14
 .text.lv_anim_timeline_pause
                0x0004f4c0       0x14 C:/SysGCC/m68k-elf/m68k-elf/lib/m68000\liblvgl.a(lv_anim_timeline.o)
                0x0004f4c0                lv_anim_timeline_pause

.text.lv_anim_timeline_delete
                0x0004f4d4       0x24
 .text.lv_anim_timeline_delete
                0x0004f4d4       0x24 C:/SysGCC/m68k-elf/m68k-elf/lib/m68000\liblvgl.a(lv_anim_timeline.o)
                0x0004f4d4                lv_anim_timeline_delete

.text.lv_anim_timeline_set_reverse
                0x0004f4f8        0xc
 .text.lv_anim_timeline_set_reverse
                0x0004f4f8        0xc C:/SysGCC/m68k-elf/m68k-elf/lib/m68000\liblvgl.a(lv_anim_timeline.o)
                0x0004f4f8                lv_anim_timeline_set_reverse

.text.lv_anim_timeline_set_delay
                0x0004f504        0xc
 .text.lv_anim_timeline_set_delay
                0x0004f504        0xc C:/SysGCC/m68k-elf/m68k-elf/lib/m68000\liblvgl.a(lv_anim_timeline.o)
                0x0004f504                lv_anim_timeline_set_delay

.text.lv_anim_timeline_set_repeat_count
                0x0004f510        0xc
 .text.lv_anim_timeline_set_repeat_count
                0x0004f510        0xc C:/SysGCC/m68k-elf/m68k-elf/lib/m68000\liblvgl.a(lv_anim_timeline.o)
                0x0004f510                lv_anim_timeline_set_repeat_count

.text.lv_anim_timeline_set_repeat_delay
                0x0004f51c        0xc
 .text.lv_anim_timeline_set_repeat_delay
                0x0004f51c        0xc C:/SysGCC/m68k-elf/m68k-elf/lib/m68000\liblvgl.a(lv_anim_timeline.o)
                0x0004f51c                lv_anim_timeline_set_repeat_delay

.text.lv_anim_timeline_set_user_data
                0x0004f528        0xc
 .text.lv_anim_timeline_set_user_data
                0x0004f528        0xc C:/SysGCC/m68k-elf/m68k-elf/lib/m68000\liblvgl.a(lv_anim_timeline.o)
                0x0004f528                lv_anim_timeline_set_user_data

.text.lv_anim_timeline_get_playtime
                0x0004f534       0x4c
 .text.lv_anim_timeline_get_playtime
                0x0004f534       0x4c C:/SysGCC/m68k-elf/m68k-elf/lib/m68000\liblvgl.a(lv_anim_timeline.o)
                0x0004f534                lv_anim_timeline_get_playtime

.text.lv_anim_timeline_start
                0x0004f580      0x108
 .text.lv_anim_timeline_start
                0x0004f580      0x108 C:/SysGCC/m68k-elf/m68k-elf/lib/m68000\liblvgl.a(lv_anim_timeline.o)
                0x0004f580                lv_anim_timeline_start

.text.lv_anim_timeline_set_progress
                0x0004f688       0x40
 .text.lv_anim_timeline_set_progress
                0x0004f688       0x40 C:/SysGCC/m68k-elf/m68k-elf/lib/m68000\liblvgl.a(lv_anim_timeline.o)
                0x0004f688                lv_anim_timeline_set_progress

.text.lv_anim_timeline_get_reverse
                0x0004f6c8        0xa
 .text.lv_anim_timeline_get_reverse
                0x0004f6c8        0xa C:/SysGCC/m68k-elf/m68k-elf/lib/m68000\liblvgl.a(lv_anim_timeline.o)
                0x0004f6c8                lv_anim_timeline_get_reverse

.text.lv_anim_timeline_get_delay
                0x0004f6d2        0xa
 .text.lv_anim_timeline_get_delay
                0x0004f6d2        0xa C:/SysGCC/m68k-elf/m68k-elf/lib/m68000\liblvgl.a(lv_anim_timeline.o)
                0x0004f6d2                lv_anim_timeline_get_delay

.text.lv_anim_timeline_get_progress
                0x0004f6dc       0x2c
 .text.lv_anim_timeline_get_progress
                0x0004f6dc       0x2c C:/SysGCC/m68k-elf/m68k-elf/lib/m68000\liblvgl.a(lv_anim_timeline.o)
                0x0004f6dc                lv_anim_timeline_get_progress

.text.lv_anim_timeline_get_repeat_count
                0x0004f708        0xa
 .text.lv_anim_timeline_get_repeat_count
                0x0004f708        0xa C:/SysGCC/m68k-elf/m68k-elf/lib/m68000\liblvgl.a(lv_anim_timeline.o)
                0x0004f708                lv_anim_timeline_get_repeat_count

.text.lv_anim_timeline_get_repeat_delay
                0x0004f712        0xa
 .text.lv_anim_timeline_get_repeat_delay
                0x0004f712        0xa C:/SysGCC/m68k-elf/m68k-elf/lib/m68000\liblvgl.a(lv_anim_timeline.o)
                0x0004f712                lv_anim_timeline_get_repeat_delay

.text.lv_anim_timeline_get_user_data
                0x0004f71c        0xa
 .text.lv_anim_timeline_get_user_data
                0x0004f71c        0xa C:/SysGCC/m68k-elf/m68k-elf/lib/m68000\liblvgl.a(lv_anim_timeline.o)
                0x0004f71c                lv_anim_timeline_get_user_data

.text.lv_anim_timeline_merge
                0x0004f726       0x40
 .text.lv_anim_timeline_merge
                0x0004f726       0x40 C:/SysGCC/m68k-elf/m68k-elf/lib/m68000\liblvgl.a(lv_anim_timeline.o)
                0x0004f726                lv_anim_timeline_merge

.text.lv_point_within_circle
                0x0004f766       0x62
 .text.lv_point_within_circle
                0x0004f766       0x62 C:/SysGCC/m68k-elf/m68k-elf/lib/m68000\liblvgl.a(lv_area.o)

.text.lv_area_set
                0x0004f7c8       0x1c
 .text.lv_area_set
                0x0004f7c8       0x1c C:/SysGCC/m68k-elf/m68k-elf/lib/m68000\liblvgl.a(lv_area.o)
                0x0004f7c8                lv_area_set

.text.lv_area_set_width
                0x0004f7e4       0x12
 .text.lv_area_set_width
                0x0004f7e4       0x12 C:/SysGCC/m68k-elf/m68k-elf/lib/m68000\liblvgl.a(lv_area.o)
                0x0004f7e4                lv_area_set_width

.text.lv_area_set_height
                0x0004f7f6       0x14
 .text.lv_area_set_height
                0x0004f7f6       0x14 C:/SysGCC/m68k-elf/m68k-elf/lib/m68000\liblvgl.a(lv_area.o)
                0x0004f7f6                lv_area_set_height

.text.lv_area_set_pos
                0x0004f80a       0x32
 .text.lv_area_set_pos
                0x0004f80a       0x32 C:/SysGCC/m68k-elf/m68k-elf/lib/m68000\liblvgl.a(lv_area.o)
                0x0004f80a                lv_area_set_pos

.text.lv_area_get_size
                0x0004f83c       0x28
 .text.lv_area_get_size
                0x0004f83c       0x28 C:/SysGCC/m68k-elf/m68k-elf/lib/m68000\liblvgl.a(lv_area.o)
                0x0004f83c                lv_area_get_size

.text.lv_area_increase
                0x0004f864       0x1c
 .text.lv_area_increase
                0x0004f864       0x1c C:/SysGCC/m68k-elf/m68k-elf/lib/m68000\liblvgl.a(lv_area.o)
                0x0004f864                lv_area_increase

.text.lv_area_move
                0x0004f880       0x1c
 .text.lv_area_move
                0x0004f880       0x1c C:/SysGCC/m68k-elf/m68k-elf/lib/m68000\liblvgl.a(lv_area.o)
                0x0004f880                lv_area_move

.text.lv_area_intersect
                0x0004f89c       0x66
 .text.lv_area_intersect
                0x0004f89c       0x66 C:/SysGCC/m68k-elf/m68k-elf/lib/m68000\liblvgl.a(lv_area.o)
                0x0004f89c                lv_area_intersect

.text.lv_area_join
                0x0004f902       0x54
 .text.lv_area_join
                0x0004f902       0x54 C:/SysGCC/m68k-elf/m68k-elf/lib/m68000\liblvgl.a(lv_area.o)
                0x0004f902                lv_area_join

.text.lv_area_is_point_on
                0x0004f956      0x132
 .text.lv_area_is_point_on
                0x0004f956      0x132 C:/SysGCC/m68k-elf/m68k-elf/lib/m68000\liblvgl.a(lv_area.o)
                0x0004f956                lv_area_is_point_on

.text.lv_area_is_on
                0x0004fa88       0x34
 .text.lv_area_is_on
                0x0004fa88       0x34 C:/SysGCC/m68k-elf/m68k-elf/lib/m68000\liblvgl.a(lv_area.o)
                0x0004fa88                lv_area_is_on

.text.lv_area_is_in
                0x0004fabc       0xaa
 .text.lv_area_is_in
                0x0004fabc       0xaa C:/SysGCC/m68k-elf/m68k-elf/lib/m68000\liblvgl.a(lv_area.o)
                0x0004fabc                lv_area_is_in

.text.lv_area_diff
                0x0004fb66      0x13e
 .text.lv_area_diff
                0x0004fb66      0x13e C:/SysGCC/m68k-elf/m68k-elf/lib/m68000\liblvgl.a(lv_area.o)
                0x0004fb66                lv_area_diff

.text.lv_area_is_out
                0x0004fca4       0xae
 .text.lv_area_is_out
                0x0004fca4       0xae C:/SysGCC/m68k-elf/m68k-elf/lib/m68000\liblvgl.a(lv_area.o)
                0x0004fca4                lv_area_is_out

.text.lv_area_is_equal
                0x0004fd52       0x3c
 .text.lv_area_is_equal
                0x0004fd52       0x3c C:/SysGCC/m68k-elf/m68k-elf/lib/m68000\liblvgl.a(lv_area.o)
                0x0004fd52                lv_area_is_equal

.text.lv_area_align
                0x0004fd8e      0x218
 .text.lv_area_align
                0x0004fd8e      0x218 C:/SysGCC/m68k-elf/m68k-elf/lib/m68000\liblvgl.a(lv_area.o)
                0x0004fd8e                lv_area_align

.text.lv_point_array_transform
                0x0004ffa6      0x25a
 .text.lv_point_array_transform
                0x0004ffa6      0x25a C:/SysGCC/m68k-elf/m68k-elf/lib/m68000\liblvgl.a(lv_area.o)
                0x0004ffa6                lv_point_array_transform

.text.lv_point_transform
                0x00050200       0x2c
 .text.lv_point_transform
                0x00050200       0x2c C:/SysGCC/m68k-elf/m68k-elf/lib/m68000\liblvgl.a(lv_area.o)
                0x00050200                lv_point_transform

.text.lv_area_get_width
                0x0005022c        0xe
 .text.lv_area_get_width
                0x0005022c        0xe C:/SysGCC/m68k-elf/m68k-elf/lib/m68000\liblvgl.a(lv_area.o)
                0x0005022c                lv_area_get_width

.text.lv_area_get_height
                0x0005023a       0x10
 .text.lv_area_get_height
                0x0005023a       0x10 C:/SysGCC/m68k-elf/m68k-elf/lib/m68000\liblvgl.a(lv_area.o)
                0x0005023a                lv_area_get_height

.text.lv_point_from_precise
                0x0005024a        0xc
 .text.lv_point_from_precise
                0x0005024a        0xc C:/SysGCC/m68k-elf/m68k-elf/lib/m68000\liblvgl.a(lv_area.o)
                0x0005024a                lv_point_from_precise

.text.lv_point_to_precise
                0x00050256        0xc
 .text.lv_point_to_precise
                0x00050256        0xc C:/SysGCC/m68k-elf/m68k-elf/lib/m68000\liblvgl.a(lv_area.o)
                0x00050256                lv_point_to_precise

.text.lv_point_set
                0x00050262       0x10
 .text.lv_point_set
                0x00050262       0x10 C:/SysGCC/m68k-elf/m68k-elf/lib/m68000\liblvgl.a(lv_area.o)
                0x00050262                lv_point_set

.text.lv_point_precise_set
                0x00050272       0x10
 .text.lv_point_precise_set
                0x00050272       0x10 C:/SysGCC/m68k-elf/m68k-elf/lib/m68000\liblvgl.a(lv_area.o)
                0x00050272                lv_point_precise_set

.text.lv_point_swap
                0x00050282       0x2a
 .text.lv_point_swap
                0x00050282       0x2a C:/SysGCC/m68k-elf/m68k-elf/lib/m68000\liblvgl.a(lv_area.o)
                0x00050282                lv_point_swap

.text.lv_point_precise_swap
                0x000502ac       0x2a
 .text.lv_point_precise_swap
                0x000502ac       0x2a C:/SysGCC/m68k-elf/m68k-elf/lib/m68000\liblvgl.a(lv_area.o)
                0x000502ac                lv_point_precise_swap

.text.lv_pct    0x000502d6       0x34
 .text.lv_pct   0x000502d6       0x34 C:/SysGCC/m68k-elf/m68k-elf/lib/m68000\liblvgl.a(lv_area.o)
                0x000502d6                lv_pct

.text.lv_pct_to_px
                0x0005030a       0x54
 .text.lv_pct_to_px
                0x0005030a       0x54 C:/SysGCC/m68k-elf/m68k-elf/lib/m68000\liblvgl.a(lv_area.o)
                0x0005030a                lv_pct_to_px

.text.lv_async_timer_cb
                0x0005035e       0x30
 .text.lv_async_timer_cb
                0x0005035e       0x30 C:/SysGCC/m68k-elf/m68k-elf/lib/m68000\liblvgl.a(lv_async.o)

.text.lv_async_call
                0x0005038e       0x5a
 .text.lv_async_call
                0x0005038e       0x5a C:/SysGCC/m68k-elf/m68k-elf/lib/m68000\liblvgl.a(lv_async.o)
                0x0005038e                lv_async_call

.text.lv_async_call_cancel
                0x000503e8       0x68
 .text.lv_async_call_cancel
                0x000503e8       0x68 C:/SysGCC/m68k-elf/m68k-elf/lib/m68000\liblvgl.a(lv_async.o)
                0x000503e8                lv_async_call_cancel

.text.lv_color_format_get_bpp
                0x00050450       0x1c
 .text.lv_color_format_get_bpp
                0x00050450       0x1c C:/SysGCC/m68k-elf/m68k-elf/lib/m68000\liblvgl.a(lv_color.o)
                0x00050450                lv_color_format_get_bpp

.text.lv_color_format_has_alpha
                0x0005046c       0x36
 .text.lv_color_format_has_alpha
                0x0005046c       0x36 C:/SysGCC/m68k-elf/m68k-elf/lib/m68000\liblvgl.a(lv_color.o)
                0x0005046c                lv_color_format_has_alpha

.text.lv_color_to_32
                0x000504a2       0x1a
 .text.lv_color_to_32
                0x000504a2       0x1a C:/SysGCC/m68k-elf/m68k-elf/lib/m68000\liblvgl.a(lv_color.o)
                0x000504a2                lv_color_to_32

.text.lv_color_to_u16
                0x000504bc       0x28
 .text.lv_color_to_u16
                0x000504bc       0x28 C:/SysGCC/m68k-elf/m68k-elf/lib/m68000\liblvgl.a(lv_color.o)
                0x000504bc                lv_color_to_u16

.text.lv_color_to_u32
                0x000504e4       0x24
 .text.lv_color_to_u32
                0x000504e4       0x24 C:/SysGCC/m68k-elf/m68k-elf/lib/m68000\liblvgl.a(lv_color.o)
                0x000504e4                lv_color_to_u32

.text.lv_color_lighten
                0x00050508       0x66
 .text.lv_color_lighten
                0x00050508       0x66 C:/SysGCC/m68k-elf/m68k-elf/lib/m68000\liblvgl.a(lv_color.o)
                0x00050508                lv_color_lighten

.text.lv_color_darken
                0x0005056e       0x66
 .text.lv_color_darken
                0x0005056e       0x66 C:/SysGCC/m68k-elf/m68k-elf/lib/m68000\liblvgl.a(lv_color.o)
                0x0005056e                lv_color_darken

.text.lv_color_filter_shade_cb
                0x000505d4       0x98
 .text.lv_color_filter_shade_cb
                0x000505d4       0x98 C:/SysGCC/m68k-elf/m68k-elf/lib/m68000\liblvgl.a(lv_color.o)

.text.lv_color_hsv_to_rgb
                0x0005066c      0x168
 .text.lv_color_hsv_to_rgb
                0x0005066c      0x168 C:/SysGCC/m68k-elf/m68k-elf/lib/m68000\liblvgl.a(lv_color.o)
                0x0005066c                lv_color_hsv_to_rgb

.text.lv_color_rgb_to_hsv
                0x000507d4      0x172
 .text.lv_color_rgb_to_hsv
                0x000507d4      0x172 C:/SysGCC/m68k-elf/m68k-elf/lib/m68000\liblvgl.a(lv_color.o)
                0x000507d4                lv_color_rgb_to_hsv

.text.lv_color_to_hsv
                0x00050946       0x20
 .text.lv_color_to_hsv
                0x00050946       0x20 C:/SysGCC/m68k-elf/m68k-elf/lib/m68000\liblvgl.a(lv_color.o)
                0x00050946                lv_color_to_hsv

.text.lv_color_format_get_size
                0x00050966       0x18
 .text.lv_color_format_get_size
                0x00050966       0x18 C:/SysGCC/m68k-elf/m68k-elf/lib/m68000\liblvgl.a(lv_color.o)
                0x00050966                lv_color_format_get_size

.text.lv_color_to_int
                0x0005097e       0x1e
 .text.lv_color_to_int
                0x0005097e       0x1e C:/SysGCC/m68k-elf/m68k-elf/lib/m68000\liblvgl.a(lv_color.o)
                0x0005097e                lv_color_to_int

.text.lv_color_eq
                0x0005099c       0x56
 .text.lv_color_eq
                0x0005099c       0x56 C:/SysGCC/m68k-elf/m68k-elf/lib/m68000\liblvgl.a(lv_color.o)
                0x0005099c                lv_color_eq

.text.lv_color32_eq
                0x000509f2       0x58
 .text.lv_color32_eq
                0x000509f2       0x58 C:/SysGCC/m68k-elf/m68k-elf/lib/m68000\liblvgl.a(lv_color.o)
                0x000509f2                lv_color32_eq

.text.lv_color_hex
                0x00050a4a       0x1a
 .text.lv_color_hex
                0x00050a4a       0x1a C:/SysGCC/m68k-elf/m68k-elf/lib/m68000\liblvgl.a(lv_color.o)
                0x00050a4a                lv_color_hex

.text.lv_color_make
                0x00050a64       0x14
 .text.lv_color_make
                0x00050a64       0x14 C:/SysGCC/m68k-elf/m68k-elf/lib/m68000\liblvgl.a(lv_color.o)
                0x00050a64                lv_color_make

.text.lv_color32_make
                0x00050a78       0x1a
 .text.lv_color32_make
                0x00050a78       0x1a C:/SysGCC/m68k-elf/m68k-elf/lib/m68000\liblvgl.a(lv_color.o)
                0x00050a78                lv_color32_make

.text.lv_color_hex3
                0x00050a92       0x42
 .text.lv_color_hex3
                0x00050a92       0x42 C:/SysGCC/m68k-elf/m68k-elf/lib/m68000\liblvgl.a(lv_color.o)
                0x00050a92                lv_color_hex3

.text.lv_color_16_16_mix
                0x00050ad4       0x76
 .text.lv_color_16_16_mix
                0x00050ad4       0x76 C:/SysGCC/m68k-elf/m68k-elf/lib/m68000\liblvgl.a(lv_color.o)
                0x00050ad4                lv_color_16_16_mix

.text.lv_color_white
                0x00050b4a        0xe
 .text.lv_color_white
                0x00050b4a        0xe C:/SysGCC/m68k-elf/m68k-elf/lib/m68000\liblvgl.a(lv_color.o)
                0x00050b4a                lv_color_white

.text.lv_color_black
                0x00050b58        0xe
 .text.lv_color_black
                0x00050b58        0xe C:/SysGCC/m68k-elf/m68k-elf/lib/m68000\liblvgl.a(lv_color.o)
                0x00050b58                lv_color_black

.text.lv_color_premultiply
                0x00050b66       0x52
 .text.lv_color_premultiply
                0x00050b66       0x52 C:/SysGCC/m68k-elf/m68k-elf/lib/m68000\liblvgl.a(lv_color.o)
                0x00050b66                lv_color_premultiply

.text.lv_color16_premultiply
                0x00050bb8       0x7e
 .text.lv_color16_premultiply
                0x00050bb8       0x7e C:/SysGCC/m68k-elf/m68k-elf/lib/m68000\liblvgl.a(lv_color.o)
                0x00050bb8                lv_color16_premultiply

.text.lv_color_luminance
                0x00050c36       0x26
 .text.lv_color_luminance
                0x00050c36       0x26 C:/SysGCC/m68k-elf/m68k-elf/lib/m68000\liblvgl.a(lv_color.o)
                0x00050c36                lv_color_luminance

.text.lv_color16_luminance
                0x00050c5c       0x2e
 .text.lv_color16_luminance
                0x00050c5c       0x2e C:/SysGCC/m68k-elf/m68k-elf/lib/m68000\liblvgl.a(lv_color.o)
                0x00050c5c                lv_color16_luminance

.text.lv_color24_luminance
                0x00050c8a       0x28
 .text.lv_color24_luminance
                0x00050c8a       0x28 C:/SysGCC/m68k-elf/m68k-elf/lib/m68000\liblvgl.a(lv_color.o)
                0x00050c8a                lv_color24_luminance

.text.lv_color32_luminance
                0x00050cb2       0x26
 .text.lv_color32_luminance
                0x00050cb2       0x26 C:/SysGCC/m68k-elf/m68k-elf/lib/m68000\liblvgl.a(lv_color.o)
                0x00050cb2                lv_color32_luminance

.text.lv_color_mix
                0x00050cd8       0xb0
 .text.lv_color_mix
                0x00050cd8       0xb0 C:/SysGCC/m68k-elf/m68k-elf/lib/m68000\liblvgl.a(lv_color_op.o)
                0x00050cd8                lv_color_mix

.text.lv_color_mix32
                0x00050d88      0x10a
 .text.lv_color_mix32
                0x00050d88      0x10a C:/SysGCC/m68k-elf/m68k-elf/lib/m68000\liblvgl.a(lv_color_op.o)
                0x00050d88                lv_color_mix32

.text.lv_color_mix32_premultiplied
                0x00050e92       0xb6
 .text.lv_color_mix32_premultiplied
                0x00050e92       0xb6 C:/SysGCC/m68k-elf/m68k-elf/lib/m68000\liblvgl.a(lv_color_op.o)
                0x00050e92                lv_color_mix32_premultiplied

.text.lv_color_brightness
                0x00050f48       0x24
 .text.lv_color_brightness
                0x00050f48       0x24 C:/SysGCC/m68k-elf/m68k-elf/lib/m68000\liblvgl.a(lv_color_op.o)
                0x00050f48                lv_color_brightness

.text.lv_color_filter_dsc_init
                0x00050f6c        0xa
 .text.lv_color_filter_dsc_init
                0x00050f6c        0xa C:/SysGCC/m68k-elf/m68k-elf/lib/m68000\liblvgl.a(lv_color_op.o)
                0x00050f6c                lv_color_filter_dsc_init

.text.lv_color_over32
                0x00050f76       0xda
 .text.lv_color_over32
                0x00050f76       0xda C:/SysGCC/m68k-elf/m68k-elf/lib/m68000\liblvgl.a(lv_color_op.o)
                0x00050f76                lv_color_over32

.text.cleanup_event_list_core
                0x00051050       0x72
 .text.cleanup_event_list_core
                0x00051050       0x72 C:/SysGCC/m68k-elf/m68k-elf/lib/m68000\liblvgl.a(lv_event.o)

.text.cleanup_event_list
                0x000510c2       0x26
 .text.cleanup_event_list
                0x000510c2       0x26 C:/SysGCC/m68k-elf/m68k-elf/lib/m68000\liblvgl.a(lv_event.o)

.text.lv_event_push
                0x000510e8       0x12
 .text.lv_event_push
                0x000510e8       0x12 C:/SysGCC/m68k-elf/m68k-elf/lib/m68000\liblvgl.a(lv_event.o)
                0x000510e8                lv_event_push

.text.lv_event_pop
                0x000510fa        0xe
 .text.lv_event_pop
                0x000510fa        0xe C:/SysGCC/m68k-elf/m68k-elf/lib/m68000\liblvgl.a(lv_event.o)
                0x000510fa                lv_event_pop

.text.lv_event_send
                0x00051108       0xf6
 .text.lv_event_send
                0x00051108       0xf6 C:/SysGCC/m68k-elf/m68k-elf/lib/m68000\liblvgl.a(lv_event.o)
                0x00051108                lv_event_send

.text.lv_event_push_and_send
                0x000511fe       0x76
 .text.lv_event_push_and_send
                0x000511fe       0x76 C:/SysGCC/m68k-elf/m68k-elf/lib/m68000\liblvgl.a(lv_event.o)
                0x000511fe                lv_event_push_and_send

.text.lv_event_add
                0x00051274       0x60
 .text.lv_event_add
                0x00051274       0x60 C:/SysGCC/m68k-elf/m68k-elf/lib/m68000\liblvgl.a(lv_event.o)
                0x00051274                lv_event_add

.text.lv_event_remove_dsc
                0x000512d4       0x50
 .text.lv_event_remove_dsc
                0x000512d4       0x50 C:/SysGCC/m68k-elf/m68k-elf/lib/m68000\liblvgl.a(lv_event.o)
                0x000512d4                lv_event_remove_dsc

.text.lv_event_get_count
                0x00051324        0xa
 .text.lv_event_get_count
                0x00051324        0xa C:/SysGCC/m68k-elf/m68k-elf/lib/m68000\liblvgl.a(lv_event.o)
                0x00051324                lv_event_get_count

.text.lv_event_get_dsc
                0x0005132e       0x1e
 .text.lv_event_get_dsc
                0x0005132e       0x1e C:/SysGCC/m68k-elf/m68k-elf/lib/m68000\liblvgl.a(lv_event.o)
                0x0005132e                lv_event_get_dsc

.text.lv_event_dsc_get_cb
                0x0005134c        0x8
 .text.lv_event_dsc_get_cb
                0x0005134c        0x8 C:/SysGCC/m68k-elf/m68k-elf/lib/m68000\liblvgl.a(lv_event.o)
                0x0005134c                lv_event_dsc_get_cb

.text.lv_event_dsc_get_user_data
                0x00051354        0xa
 .text.lv_event_dsc_get_user_data
                0x00051354        0xa C:/SysGCC/m68k-elf/m68k-elf/lib/m68000\liblvgl.a(lv_event.o)
                0x00051354                lv_event_dsc_get_user_data

.text.lv_event_remove
                0x0005135e       0x3a
 .text.lv_event_remove
                0x0005135e       0x3a C:/SysGCC/m68k-elf/m68k-elf/lib/m68000\liblvgl.a(lv_event.o)
                0x0005135e                lv_event_remove

.text.lv_event_remove_all
                0x00051398       0x42
 .text.lv_event_remove_all
                0x00051398       0x42 C:/SysGCC/m68k-elf/m68k-elf/lib/m68000\liblvgl.a(lv_event.o)
                0x00051398                lv_event_remove_all

.text.lv_event_get_current_target
                0x000513da        0x8
 .text.lv_event_get_current_target
                0x000513da        0x8 C:/SysGCC/m68k-elf/m68k-elf/lib/m68000\liblvgl.a(lv_event.o)
                0x000513da                lv_event_get_current_target

.text.lv_event_get_target
                0x000513e2        0xa
 .text.lv_event_get_target
                0x000513e2        0xa C:/SysGCC/m68k-elf/m68k-elf/lib/m68000\liblvgl.a(lv_event.o)
                0x000513e2                lv_event_get_target

.text.lv_event_get_code
                0x000513ec        0xe
 .text.lv_event_get_code
                0x000513ec        0xe C:/SysGCC/m68k-elf/m68k-elf/lib/m68000\liblvgl.a(lv_event.o)
                0x000513ec                lv_event_get_code

.text.lv_event_get_param
                0x000513fa        0xa
 .text.lv_event_get_param
                0x000513fa        0xa C:/SysGCC/m68k-elf/m68k-elf/lib/m68000\liblvgl.a(lv_event.o)
                0x000513fa                lv_event_get_param

.text.lv_event_get_user_data
                0x00051404        0xa
 .text.lv_event_get_user_data
                0x00051404        0xa C:/SysGCC/m68k-elf/m68k-elf/lib/m68000\liblvgl.a(lv_event.o)
                0x00051404                lv_event_get_user_data

.text.lv_event_stop_bubbling
                0x0005140e        0xc
 .text.lv_event_stop_bubbling
                0x0005140e        0xc C:/SysGCC/m68k-elf/m68k-elf/lib/m68000\liblvgl.a(lv_event.o)
                0x0005140e                lv_event_stop_bubbling

.text.lv_event_stop_trickling
                0x0005141a        0xc
 .text.lv_event_stop_trickling
                0x0005141a        0xc C:/SysGCC/m68k-elf/m68k-elf/lib/m68000\liblvgl.a(lv_event.o)
                0x0005141a                lv_event_stop_trickling

.text.lv_event_stop_processing
                0x00051426        0xc
 .text.lv_event_stop_processing
                0x00051426        0xc C:/SysGCC/m68k-elf/m68k-elf/lib/m68000\liblvgl.a(lv_event.o)
                0x00051426                lv_event_stop_processing

.text.lv_event_free_user_data_cb
                0x00051432       0x10
 .text.lv_event_free_user_data_cb
                0x00051432       0x10 C:/SysGCC/m68k-elf/m68k-elf/lib/m68000\liblvgl.a(lv_event.o)
                0x00051432                lv_event_free_user_data_cb

.text.lv_event_register_id
                0x00051442        0xe
 .text.lv_event_register_id
                0x00051442        0xe C:/SysGCC/m68k-elf/m68k-elf/lib/m68000\liblvgl.a(lv_event.o)
                0x00051442                lv_event_register_id

.text.lv_event_mark_deleted
                0x00051450       0x28
 .text.lv_event_mark_deleted
                0x00051450       0x28 C:/SysGCC/m68k-elf/m68k-elf/lib/m68000\liblvgl.a(lv_event.o)
                0x00051450                lv_event_mark_deleted

.text.lv_event_code_get_name
                0x00051478       0x28
 .text.lv_event_code_get_name
                0x00051478       0x28 C:/SysGCC/m68k-elf/m68k-elf/lib/m68000\liblvgl.a(lv_event.o)
                0x00051478                lv_event_code_get_name

.text.peek_fill_cb
                0x000514a0       0x20
 .text.peek_fill_cb
                0x000514a0       0x20 C:/SysGCC/m68k-elf/m68k-elf/lib/m68000\liblvgl.a(lv_iter.o)

.text.lv_iter_create
                0x000514c0       0x4c
 .text.lv_iter_create
                0x000514c0       0x4c C:/SysGCC/m68k-elf/m68k-elf/lib/m68000\liblvgl.a(lv_iter.o)
                0x000514c0                lv_iter_create

.text.lv_iter_get_context
                0x0005150c       0x14
 .text.lv_iter_get_context
                0x0005150c       0x14 C:/SysGCC/m68k-elf/m68k-elf/lib/m68000\liblvgl.a(lv_iter.o)
                0x0005150c                lv_iter_get_context

.text.lv_iter_destroy
                0x00051520       0x46
 .text.lv_iter_destroy
                0x00051520       0x46 C:/SysGCC/m68k-elf/m68k-elf/lib/m68000\liblvgl.a(lv_iter.o)
                0x00051520                lv_iter_destroy

.text.lv_iter_make_peekable
                0x00051566       0x30
 .text.lv_iter_make_peekable
                0x00051566       0x30 C:/SysGCC/m68k-elf/m68k-elf/lib/m68000\liblvgl.a(lv_iter.o)
                0x00051566                lv_iter_make_peekable

.text.lv_iter_next
                0x00051596       0x72
 .text.lv_iter_next
                0x00051596       0x72 C:/SysGCC/m68k-elf/m68k-elf/lib/m68000\liblvgl.a(lv_iter.o)
                0x00051596                lv_iter_next

.text.lv_iter_peek
                0x00051608       0x68
 .text.lv_iter_peek
                0x00051608       0x68 C:/SysGCC/m68k-elf/m68k-elf/lib/m68000\liblvgl.a(lv_iter.o)
                0x00051608                lv_iter_peek

.text.lv_iter_peek_advance
                0x00051670       0x38
 .text.lv_iter_peek_advance
                0x00051670       0x38 C:/SysGCC/m68k-elf/m68k-elf/lib/m68000\liblvgl.a(lv_iter.o)
                0x00051670                lv_iter_peek_advance

.text.lv_iter_peek_reset
                0x000516a8       0x1c
 .text.lv_iter_peek_reset
                0x000516a8       0x1c C:/SysGCC/m68k-elf/m68k-elf/lib/m68000\liblvgl.a(lv_iter.o)
                0x000516a8                lv_iter_peek_reset

.text.lv_iter_inspect
                0x000516c4       0x52
 .text.lv_iter_inspect
                0x000516c4       0x52 C:/SysGCC/m68k-elf/m68k-elf/lib/m68000\liblvgl.a(lv_iter.o)
                0x000516c4                lv_iter_inspect

.text.lv_palette_main
                0x00051716       0x3a
 .text.lv_palette_main
                0x00051716       0x3a C:/SysGCC/m68k-elf/m68k-elf/lib/m68000\liblvgl.a(lv_palette.o)
                0x00051716                lv_palette_main

.text.lv_palette_lighten
                0x00051750       0x5a
 .text.lv_palette_lighten
                0x00051750       0x5a C:/SysGCC/m68k-elf/m68k-elf/lib/m68000\liblvgl.a(lv_palette.o)
                0x00051750                lv_palette_lighten

.text.lv_palette_darken
                0x000517aa       0x5e
 .text.lv_palette_darken
                0x000517aa       0x5e C:/SysGCC/m68k-elf/m68k-elf/lib/m68000\liblvgl.a(lv_palette.o)
                0x000517aa                lv_palette_darken

.text.lv_style_init
                0x00051808       0x16
 .text.lv_style_init
                0x00051808       0x16 C:/SysGCC/m68k-elf/m68k-elf/lib/m68000\liblvgl.a(lv_style.o)
                0x00051808                lv_style_init

.text.lv_style_reset
                0x0005181e       0x2e
 .text.lv_style_reset
                0x0005181e       0x2e C:/SysGCC/m68k-elf/m68k-elf/lib/m68000\liblvgl.a(lv_style.o)
                0x0005181e                lv_style_reset

.text.lv_style_register_prop
                0x0005184c       0x8c
 .text.lv_style_register_prop
                0x0005184c       0x8c C:/SysGCC/m68k-elf/m68k-elf/lib/m68000\liblvgl.a(lv_style.o)
                0x0005184c                lv_style_register_prop

.text.lv_style_get_num_custom_props
                0x000518d8        0xc
 .text.lv_style_get_num_custom_props
                0x000518d8        0xc C:/SysGCC/m68k-elf/m68k-elf/lib/m68000\liblvgl.a(lv_style.o)
                0x000518d8                lv_style_get_num_custom_props

.text.lv_style_remove_prop
                0x000518e4       0xbc
 .text.lv_style_remove_prop
                0x000518e4       0xbc C:/SysGCC/m68k-elf/m68k-elf/lib/m68000\liblvgl.a(lv_style.o)
                0x000518e4                lv_style_remove_prop

.text.lv_style_set_prop
                0x000519a0       0xec
 .text.lv_style_set_prop
                0x000519a0       0xec C:/SysGCC/m68k-elf/m68k-elf/lib/m68000\liblvgl.a(lv_style.o)
                0x000519a0                lv_style_set_prop

.text.lv_style_merge
                0x00051a8c       0x86
 .text.lv_style_merge
                0x00051a8c       0x86 C:/SysGCC/m68k-elf/m68k-elf/lib/m68000\liblvgl.a(lv_style.o)
                0x00051a8c                lv_style_merge

.text.lv_style_copy
                0x00051b12       0x36
 .text.lv_style_copy
                0x00051b12       0x36 C:/SysGCC/m68k-elf/m68k-elf/lib/m68000\liblvgl.a(lv_style.o)
                0x00051b12                lv_style_copy

.text.lv_style_get_prop
                0x00051b48       0x64
 .text.lv_style_get_prop
                0x00051b48       0x64 C:/SysGCC/m68k-elf/m68k-elf/lib/m68000\liblvgl.a(lv_style.o)
                0x00051b48                lv_style_get_prop

.text.lv_style_transition_dsc_init
                0x00051bac       0x42
 .text.lv_style_transition_dsc_init
                0x00051bac       0x42 C:/SysGCC/m68k-elf/m68k-elf/lib/m68000\liblvgl.a(lv_style.o)
                0x00051bac                lv_style_transition_dsc_init

.text.lv_style_prop_get_default
                0x00051bee      0x124
 .text.lv_style_prop_get_default
                0x00051bee      0x124 C:/SysGCC/m68k-elf/m68k-elf/lib/m68000\liblvgl.a(lv_style.o)
                0x00051bee                lv_style_prop_get_default

.text.lv_style_is_empty
                0x00051d12        0xe
 .text.lv_style_is_empty
                0x00051d12        0xe C:/SysGCC/m68k-elf/m68k-elf/lib/m68000\liblvgl.a(lv_style.o)
                0x00051d12                lv_style_is_empty

.text.lv_style_prop_lookup_flags
                0x00051d20       0x4e
 .text.lv_style_prop_lookup_flags
                0x00051d20       0x4e C:/SysGCC/m68k-elf/m68k-elf/lib/m68000\liblvgl.a(lv_style.o)
                0x00051d20                lv_style_prop_lookup_flags

.text.lv_style_set_width
                0x00051d6e       0x1a
 .text.lv_style_set_width
                0x00051d6e       0x1a C:/SysGCC/m68k-elf/m68k-elf/lib/m68000\liblvgl.a(lv_style_gen.o)
                0x00051d6e                lv_style_set_width

.text.lv_style_set_min_width
                0x00051d88       0x1a
 .text.lv_style_set_min_width
                0x00051d88       0x1a C:/SysGCC/m68k-elf/m68k-elf/lib/m68000\liblvgl.a(lv_style_gen.o)
                0x00051d88                lv_style_set_min_width

.text.lv_style_set_max_width
                0x00051da2       0x1a
 .text.lv_style_set_max_width
                0x00051da2       0x1a C:/SysGCC/m68k-elf/m68k-elf/lib/m68000\liblvgl.a(lv_style_gen.o)
                0x00051da2                lv_style_set_max_width

.text.lv_style_set_height
                0x00051dbc       0x1a
 .text.lv_style_set_height
                0x00051dbc       0x1a C:/SysGCC/m68k-elf/m68k-elf/lib/m68000\liblvgl.a(lv_style_gen.o)
                0x00051dbc                lv_style_set_height

.text.lv_style_set_min_height
                0x00051dd6       0x1a
 .text.lv_style_set_min_height
                0x00051dd6       0x1a C:/SysGCC/m68k-elf/m68k-elf/lib/m68000\liblvgl.a(lv_style_gen.o)
                0x00051dd6                lv_style_set_min_height

.text.lv_style_set_max_height
                0x00051df0       0x1a
 .text.lv_style_set_max_height
                0x00051df0       0x1a C:/SysGCC/m68k-elf/m68k-elf/lib/m68000\liblvgl.a(lv_style_gen.o)
                0x00051df0                lv_style_set_max_height

.text.lv_style_set_length
                0x00051e0a       0x1a
 .text.lv_style_set_length
                0x00051e0a       0x1a C:/SysGCC/m68k-elf/m68k-elf/lib/m68000\liblvgl.a(lv_style_gen.o)
                0x00051e0a                lv_style_set_length

.text.lv_style_set_x
                0x00051e24       0x1a
 .text.lv_style_set_x
                0x00051e24       0x1a C:/SysGCC/m68k-elf/m68k-elf/lib/m68000\liblvgl.a(lv_style_gen.o)
                0x00051e24                lv_style_set_x

.text.lv_style_set_y
                0x00051e3e       0x1a
 .text.lv_style_set_y
                0x00051e3e       0x1a C:/SysGCC/m68k-elf/m68k-elf/lib/m68000\liblvgl.a(lv_style_gen.o)
                0x00051e3e                lv_style_set_y

.text.lv_style_set_align
                0x00051e58       0x1a
 .text.lv_style_set_align
                0x00051e58       0x1a C:/SysGCC/m68k-elf/m68k-elf/lib/m68000\liblvgl.a(lv_style_gen.o)
                0x00051e58                lv_style_set_align

.text.lv_style_set_transform_width
                0x00051e72       0x1a
 .text.lv_style_set_transform_width
                0x00051e72       0x1a C:/SysGCC/m68k-elf/m68k-elf/lib/m68000\liblvgl.a(lv_style_gen.o)
                0x00051e72                lv_style_set_transform_width

.text.lv_style_set_transform_height
                0x00051e8c       0x1a
 .text.lv_style_set_transform_height
                0x00051e8c       0x1a C:/SysGCC/m68k-elf/m68k-elf/lib/m68000\liblvgl.a(lv_style_gen.o)
                0x00051e8c                lv_style_set_transform_height

.text.lv_style_set_translate_x
                0x00051ea6       0x1a
 .text.lv_style_set_translate_x
                0x00051ea6       0x1a C:/SysGCC/m68k-elf/m68k-elf/lib/m68000\liblvgl.a(lv_style_gen.o)
                0x00051ea6                lv_style_set_translate_x

.text.lv_style_set_translate_y
                0x00051ec0       0x1a
 .text.lv_style_set_translate_y
                0x00051ec0       0x1a C:/SysGCC/m68k-elf/m68k-elf/lib/m68000\liblvgl.a(lv_style_gen.o)
                0x00051ec0                lv_style_set_translate_y

.text.lv_style_set_translate_radial
                0x00051eda       0x1a
 .text.lv_style_set_translate_radial
                0x00051eda       0x1a C:/SysGCC/m68k-elf/m68k-elf/lib/m68000\liblvgl.a(lv_style_gen.o)
                0x00051eda                lv_style_set_translate_radial

.text.lv_style_set_transform_scale_x
                0x00051ef4       0x1a
 .text.lv_style_set_transform_scale_x
                0x00051ef4       0x1a C:/SysGCC/m68k-elf/m68k-elf/lib/m68000\liblvgl.a(lv_style_gen.o)
                0x00051ef4                lv_style_set_transform_scale_x

.text.lv_style_set_transform_scale_y
                0x00051f0e       0x1a
 .text.lv_style_set_transform_scale_y
                0x00051f0e       0x1a C:/SysGCC/m68k-elf/m68k-elf/lib/m68000\liblvgl.a(lv_style_gen.o)
                0x00051f0e                lv_style_set_transform_scale_y

.text.lv_style_set_transform_rotation
                0x00051f28       0x1a
 .text.lv_style_set_transform_rotation
                0x00051f28       0x1a C:/SysGCC/m68k-elf/m68k-elf/lib/m68000\liblvgl.a(lv_style_gen.o)
                0x00051f28                lv_style_set_transform_rotation

.text.lv_style_set_transform_pivot_x
                0x00051f42       0x1a
 .text.lv_style_set_transform_pivot_x
                0x00051f42       0x1a C:/SysGCC/m68k-elf/m68k-elf/lib/m68000\liblvgl.a(lv_style_gen.o)
                0x00051f42                lv_style_set_transform_pivot_x

.text.lv_style_set_transform_pivot_y
                0x00051f5c       0x1a
 .text.lv_style_set_transform_pivot_y
                0x00051f5c       0x1a C:/SysGCC/m68k-elf/m68k-elf/lib/m68000\liblvgl.a(lv_style_gen.o)
                0x00051f5c                lv_style_set_transform_pivot_y

.text.lv_style_set_transform_skew_x
                0x00051f76       0x1a
 .text.lv_style_set_transform_skew_x
                0x00051f76       0x1a C:/SysGCC/m68k-elf/m68k-elf/lib/m68000\liblvgl.a(lv_style_gen.o)
                0x00051f76                lv_style_set_transform_skew_x

.text.lv_style_set_transform_skew_y
                0x00051f90       0x1a
 .text.lv_style_set_transform_skew_y
                0x00051f90       0x1a C:/SysGCC/m68k-elf/m68k-elf/lib/m68000\liblvgl.a(lv_style_gen.o)
                0x00051f90                lv_style_set_transform_skew_y

.text.lv_style_set_pad_top
                0x00051faa       0x1a
 .text.lv_style_set_pad_top
                0x00051faa       0x1a C:/SysGCC/m68k-elf/m68k-elf/lib/m68000\liblvgl.a(lv_style_gen.o)
                0x00051faa                lv_style_set_pad_top

.text.lv_style_set_pad_bottom
                0x00051fc4       0x1a
 .text.lv_style_set_pad_bottom
                0x00051fc4       0x1a C:/SysGCC/m68k-elf/m68k-elf/lib/m68000\liblvgl.a(lv_style_gen.o)
                0x00051fc4                lv_style_set_pad_bottom

.text.lv_style_set_pad_left
                0x00051fde       0x1a
 .text.lv_style_set_pad_left
                0x00051fde       0x1a C:/SysGCC/m68k-elf/m68k-elf/lib/m68000\liblvgl.a(lv_style_gen.o)
                0x00051fde                lv_style_set_pad_left

.text.lv_style_set_pad_right
                0x00051ff8       0x1a
 .text.lv_style_set_pad_right
                0x00051ff8       0x1a C:/SysGCC/m68k-elf/m68k-elf/lib/m68000\liblvgl.a(lv_style_gen.o)
                0x00051ff8                lv_style_set_pad_right

.text.lv_style_set_pad_row
                0x00052012       0x1a
 .text.lv_style_set_pad_row
                0x00052012       0x1a C:/SysGCC/m68k-elf/m68k-elf/lib/m68000\liblvgl.a(lv_style_gen.o)
                0x00052012                lv_style_set_pad_row

.text.lv_style_set_pad_column
                0x0005202c       0x1a
 .text.lv_style_set_pad_column
                0x0005202c       0x1a C:/SysGCC/m68k-elf/m68k-elf/lib/m68000\liblvgl.a(lv_style_gen.o)
                0x0005202c                lv_style_set_pad_column

.text.lv_style_set_pad_radial
                0x00052046       0x1a
 .text.lv_style_set_pad_radial
                0x00052046       0x1a C:/SysGCC/m68k-elf/m68k-elf/lib/m68000\liblvgl.a(lv_style_gen.o)
                0x00052046                lv_style_set_pad_radial

.text.lv_style_set_margin_top
                0x00052060       0x1a
 .text.lv_style_set_margin_top
                0x00052060       0x1a C:/SysGCC/m68k-elf/m68k-elf/lib/m68000\liblvgl.a(lv_style_gen.o)
                0x00052060                lv_style_set_margin_top

.text.lv_style_set_margin_bottom
                0x0005207a       0x1a
 .text.lv_style_set_margin_bottom
                0x0005207a       0x1a C:/SysGCC/m68k-elf/m68k-elf/lib/m68000\liblvgl.a(lv_style_gen.o)
                0x0005207a                lv_style_set_margin_bottom

.text.lv_style_set_margin_left
                0x00052094       0x1a
 .text.lv_style_set_margin_left
                0x00052094       0x1a C:/SysGCC/m68k-elf/m68k-elf/lib/m68000\liblvgl.a(lv_style_gen.o)
                0x00052094                lv_style_set_margin_left

.text.lv_style_set_margin_right
                0x000520ae       0x1a
 .text.lv_style_set_margin_right
                0x000520ae       0x1a C:/SysGCC/m68k-elf/m68k-elf/lib/m68000\liblvgl.a(lv_style_gen.o)
                0x000520ae                lv_style_set_margin_right

.text.lv_style_set_bg_color
                0x000520c8       0x32
 .text.lv_style_set_bg_color
                0x000520c8       0x32 C:/SysGCC/m68k-elf/m68k-elf/lib/m68000\liblvgl.a(lv_style_gen.o)
                0x000520c8                lv_style_set_bg_color

.text.lv_style_set_bg_opa
                0x000520fa       0x1e
 .text.lv_style_set_bg_opa
                0x000520fa       0x1e C:/SysGCC/m68k-elf/m68k-elf/lib/m68000\liblvgl.a(lv_style_gen.o)
                0x000520fa                lv_style_set_bg_opa

.text.lv_style_set_bg_grad_color
                0x00052118       0x32
 .text.lv_style_set_bg_grad_color
                0x00052118       0x32 C:/SysGCC/m68k-elf/m68k-elf/lib/m68000\liblvgl.a(lv_style_gen.o)
                0x00052118                lv_style_set_bg_grad_color

.text.lv_style_set_bg_grad_dir
                0x0005214a       0x1a
 .text.lv_style_set_bg_grad_dir
                0x0005214a       0x1a C:/SysGCC/m68k-elf/m68k-elf/lib/m68000\liblvgl.a(lv_style_gen.o)
                0x0005214a                lv_style_set_bg_grad_dir

.text.lv_style_set_bg_main_stop
                0x00052164       0x1a
 .text.lv_style_set_bg_main_stop
                0x00052164       0x1a C:/SysGCC/m68k-elf/m68k-elf/lib/m68000\liblvgl.a(lv_style_gen.o)
                0x00052164                lv_style_set_bg_main_stop

.text.lv_style_set_bg_grad_stop
                0x0005217e       0x1a
 .text.lv_style_set_bg_grad_stop
                0x0005217e       0x1a C:/SysGCC/m68k-elf/m68k-elf/lib/m68000\liblvgl.a(lv_style_gen.o)
                0x0005217e                lv_style_set_bg_grad_stop

.text.lv_style_set_bg_main_opa
                0x00052198       0x1e
 .text.lv_style_set_bg_main_opa
                0x00052198       0x1e C:/SysGCC/m68k-elf/m68k-elf/lib/m68000\liblvgl.a(lv_style_gen.o)
                0x00052198                lv_style_set_bg_main_opa

.text.lv_style_set_bg_grad_opa
                0x000521b6       0x1e
 .text.lv_style_set_bg_grad_opa
                0x000521b6       0x1e C:/SysGCC/m68k-elf/m68k-elf/lib/m68000\liblvgl.a(lv_style_gen.o)
                0x000521b6                lv_style_set_bg_grad_opa

.text.lv_style_set_bg_grad
                0x000521d4       0x1a
 .text.lv_style_set_bg_grad
                0x000521d4       0x1a C:/SysGCC/m68k-elf/m68k-elf/lib/m68000\liblvgl.a(lv_style_gen.o)
                0x000521d4                lv_style_set_bg_grad

.text.lv_style_set_bg_image_src
                0x000521ee       0x1a
 .text.lv_style_set_bg_image_src
                0x000521ee       0x1a C:/SysGCC/m68k-elf/m68k-elf/lib/m68000\liblvgl.a(lv_style_gen.o)
                0x000521ee                lv_style_set_bg_image_src

.text.lv_style_set_bg_image_opa
                0x00052208       0x1e
 .text.lv_style_set_bg_image_opa
                0x00052208       0x1e C:/SysGCC/m68k-elf/m68k-elf/lib/m68000\liblvgl.a(lv_style_gen.o)
                0x00052208                lv_style_set_bg_image_opa

.text.lv_style_set_bg_image_recolor
                0x00052226       0x32
 .text.lv_style_set_bg_image_recolor
                0x00052226       0x32 C:/SysGCC/m68k-elf/m68k-elf/lib/m68000\liblvgl.a(lv_style_gen.o)
                0x00052226                lv_style_set_bg_image_recolor

.text.lv_style_set_bg_image_recolor_opa
                0x00052258       0x1e
 .text.lv_style_set_bg_image_recolor_opa
                0x00052258       0x1e C:/SysGCC/m68k-elf/m68k-elf/lib/m68000\liblvgl.a(lv_style_gen.o)
                0x00052258                lv_style_set_bg_image_recolor_opa

.text.lv_style_set_bg_image_tiled
                0x00052276       0x1e
 .text.lv_style_set_bg_image_tiled
                0x00052276       0x1e C:/SysGCC/m68k-elf/m68k-elf/lib/m68000\liblvgl.a(lv_style_gen.o)
                0x00052276                lv_style_set_bg_image_tiled

.text.lv_style_set_border_color
                0x00052294       0x32
 .text.lv_style_set_border_color
                0x00052294       0x32 C:/SysGCC/m68k-elf/m68k-elf/lib/m68000\liblvgl.a(lv_style_gen.o)
                0x00052294                lv_style_set_border_color

.text.lv_style_set_border_opa
                0x000522c6       0x1e
 .text.lv_style_set_border_opa
                0x000522c6       0x1e C:/SysGCC/m68k-elf/m68k-elf/lib/m68000\liblvgl.a(lv_style_gen.o)
                0x000522c6                lv_style_set_border_opa

.text.lv_style_set_border_width
                0x000522e4       0x1a
 .text.lv_style_set_border_width
                0x000522e4       0x1a C:/SysGCC/m68k-elf/m68k-elf/lib/m68000\liblvgl.a(lv_style_gen.o)
                0x000522e4                lv_style_set_border_width

.text.lv_style_set_border_side
                0x000522fe       0x1a
 .text.lv_style_set_border_side
                0x000522fe       0x1a C:/SysGCC/m68k-elf/m68k-elf/lib/m68000\liblvgl.a(lv_style_gen.o)
                0x000522fe                lv_style_set_border_side

.text.lv_style_set_border_post
                0x00052318       0x1e
 .text.lv_style_set_border_post
                0x00052318       0x1e C:/SysGCC/m68k-elf/m68k-elf/lib/m68000\liblvgl.a(lv_style_gen.o)
                0x00052318                lv_style_set_border_post

.text.lv_style_set_outline_width
                0x00052336       0x1a
 .text.lv_style_set_outline_width
                0x00052336       0x1a C:/SysGCC/m68k-elf/m68k-elf/lib/m68000\liblvgl.a(lv_style_gen.o)
                0x00052336                lv_style_set_outline_width

.text.lv_style_set_outline_color
                0x00052350       0x32
 .text.lv_style_set_outline_color
                0x00052350       0x32 C:/SysGCC/m68k-elf/m68k-elf/lib/m68000\liblvgl.a(lv_style_gen.o)
                0x00052350                lv_style_set_outline_color

.text.lv_style_set_outline_opa
                0x00052382       0x1e
 .text.lv_style_set_outline_opa
                0x00052382       0x1e C:/SysGCC/m68k-elf/m68k-elf/lib/m68000\liblvgl.a(lv_style_gen.o)
                0x00052382                lv_style_set_outline_opa

.text.lv_style_set_outline_pad
                0x000523a0       0x1a
 .text.lv_style_set_outline_pad
                0x000523a0       0x1a C:/SysGCC/m68k-elf/m68k-elf/lib/m68000\liblvgl.a(lv_style_gen.o)
                0x000523a0                lv_style_set_outline_pad

.text.lv_style_set_shadow_width
                0x000523ba       0x1a
 .text.lv_style_set_shadow_width
                0x000523ba       0x1a C:/SysGCC/m68k-elf/m68k-elf/lib/m68000\liblvgl.a(lv_style_gen.o)
                0x000523ba                lv_style_set_shadow_width

.text.lv_style_set_shadow_offset_x
                0x000523d4       0x1a
 .text.lv_style_set_shadow_offset_x
                0x000523d4       0x1a C:/SysGCC/m68k-elf/m68k-elf/lib/m68000\liblvgl.a(lv_style_gen.o)
                0x000523d4                lv_style_set_shadow_offset_x

.text.lv_style_set_shadow_offset_y
                0x000523ee       0x1a
 .text.lv_style_set_shadow_offset_y
                0x000523ee       0x1a C:/SysGCC/m68k-elf/m68k-elf/lib/m68000\liblvgl.a(lv_style_gen.o)
                0x000523ee                lv_style_set_shadow_offset_y

.text.lv_style_set_shadow_spread
                0x00052408       0x1a
 .text.lv_style_set_shadow_spread
                0x00052408       0x1a C:/SysGCC/m68k-elf/m68k-elf/lib/m68000\liblvgl.a(lv_style_gen.o)
                0x00052408                lv_style_set_shadow_spread

.text.lv_style_set_shadow_color
                0x00052422       0x32
 .text.lv_style_set_shadow_color
                0x00052422       0x32 C:/SysGCC/m68k-elf/m68k-elf/lib/m68000\liblvgl.a(lv_style_gen.o)
                0x00052422                lv_style_set_shadow_color

.text.lv_style_set_shadow_opa
                0x00052454       0x1e
 .text.lv_style_set_shadow_opa
                0x00052454       0x1e C:/SysGCC/m68k-elf/m68k-elf/lib/m68000\liblvgl.a(lv_style_gen.o)
                0x00052454                lv_style_set_shadow_opa

.text.lv_style_set_image_opa
                0x00052472       0x1e
 .text.lv_style_set_image_opa
                0x00052472       0x1e C:/SysGCC/m68k-elf/m68k-elf/lib/m68000\liblvgl.a(lv_style_gen.o)
                0x00052472                lv_style_set_image_opa

.text.lv_style_set_image_recolor
                0x00052490       0x32
 .text.lv_style_set_image_recolor
                0x00052490       0x32 C:/SysGCC/m68k-elf/m68k-elf/lib/m68000\liblvgl.a(lv_style_gen.o)
                0x00052490                lv_style_set_image_recolor

.text.lv_style_set_image_recolor_opa
                0x000524c2       0x1e
 .text.lv_style_set_image_recolor_opa
                0x000524c2       0x1e C:/SysGCC/m68k-elf/m68k-elf/lib/m68000\liblvgl.a(lv_style_gen.o)
                0x000524c2                lv_style_set_image_recolor_opa

.text.lv_style_set_image_colorkey
                0x000524e0       0x1a
 .text.lv_style_set_image_colorkey
                0x000524e0       0x1a C:/SysGCC/m68k-elf/m68k-elf/lib/m68000\liblvgl.a(lv_style_gen.o)
                0x000524e0                lv_style_set_image_colorkey

.text.lv_style_set_line_width
                0x000524fa       0x1a
 .text.lv_style_set_line_width
                0x000524fa       0x1a C:/SysGCC/m68k-elf/m68k-elf/lib/m68000\liblvgl.a(lv_style_gen.o)
                0x000524fa                lv_style_set_line_width

.text.lv_style_set_line_dash_width
                0x00052514       0x1a
 .text.lv_style_set_line_dash_width
                0x00052514       0x1a C:/SysGCC/m68k-elf/m68k-elf/lib/m68000\liblvgl.a(lv_style_gen.o)
                0x00052514                lv_style_set_line_dash_width

.text.lv_style_set_line_dash_gap
                0x0005252e       0x1a
 .text.lv_style_set_line_dash_gap
                0x0005252e       0x1a C:/SysGCC/m68k-elf/m68k-elf/lib/m68000\liblvgl.a(lv_style_gen.o)
                0x0005252e                lv_style_set_line_dash_gap

.text.lv_style_set_line_rounded
                0x00052548       0x1e
 .text.lv_style_set_line_rounded
                0x00052548       0x1e C:/SysGCC/m68k-elf/m68k-elf/lib/m68000\liblvgl.a(lv_style_gen.o)
                0x00052548                lv_style_set_line_rounded

.text.lv_style_set_line_color
                0x00052566       0x32
 .text.lv_style_set_line_color
                0x00052566       0x32 C:/SysGCC/m68k-elf/m68k-elf/lib/m68000\liblvgl.a(lv_style_gen.o)
                0x00052566                lv_style_set_line_color

.text.lv_style_set_line_opa
                0x00052598       0x1e
 .text.lv_style_set_line_opa
                0x00052598       0x1e C:/SysGCC/m68k-elf/m68k-elf/lib/m68000\liblvgl.a(lv_style_gen.o)
                0x00052598                lv_style_set_line_opa

.text.lv_style_set_arc_width
                0x000525b6       0x1a
 .text.lv_style_set_arc_width
                0x000525b6       0x1a C:/SysGCC/m68k-elf/m68k-elf/lib/m68000\liblvgl.a(lv_style_gen.o)
                0x000525b6                lv_style_set_arc_width

.text.lv_style_set_arc_rounded
                0x000525d0       0x1e
 .text.lv_style_set_arc_rounded
                0x000525d0       0x1e C:/SysGCC/m68k-elf/m68k-elf/lib/m68000\liblvgl.a(lv_style_gen.o)
                0x000525d0                lv_style_set_arc_rounded

.text.lv_style_set_arc_color
                0x000525ee       0x32
 .text.lv_style_set_arc_color
                0x000525ee       0x32 C:/SysGCC/m68k-elf/m68k-elf/lib/m68000\liblvgl.a(lv_style_gen.o)
                0x000525ee                lv_style_set_arc_color

.text.lv_style_set_arc_opa
                0x00052620       0x1e
 .text.lv_style_set_arc_opa
                0x00052620       0x1e C:/SysGCC/m68k-elf/m68k-elf/lib/m68000\liblvgl.a(lv_style_gen.o)
                0x00052620                lv_style_set_arc_opa

.text.lv_style_set_arc_image_src
                0x0005263e       0x1a
 .text.lv_style_set_arc_image_src
                0x0005263e       0x1a C:/SysGCC/m68k-elf/m68k-elf/lib/m68000\liblvgl.a(lv_style_gen.o)
                0x0005263e                lv_style_set_arc_image_src

.text.lv_style_set_text_color
                0x00052658       0x32
 .text.lv_style_set_text_color
                0x00052658       0x32 C:/SysGCC/m68k-elf/m68k-elf/lib/m68000\liblvgl.a(lv_style_gen.o)
                0x00052658                lv_style_set_text_color

.text.lv_style_set_text_opa
                0x0005268a       0x1e
 .text.lv_style_set_text_opa
                0x0005268a       0x1e C:/SysGCC/m68k-elf/m68k-elf/lib/m68000\liblvgl.a(lv_style_gen.o)
                0x0005268a                lv_style_set_text_opa

.text.lv_style_set_text_font
                0x000526a8       0x1a
 .text.lv_style_set_text_font
                0x000526a8       0x1a C:/SysGCC/m68k-elf/m68k-elf/lib/m68000\liblvgl.a(lv_style_gen.o)
                0x000526a8                lv_style_set_text_font

.text.lv_style_set_text_letter_space
                0x000526c2       0x1a
 .text.lv_style_set_text_letter_space
                0x000526c2       0x1a C:/SysGCC/m68k-elf/m68k-elf/lib/m68000\liblvgl.a(lv_style_gen.o)
                0x000526c2                lv_style_set_text_letter_space

.text.lv_style_set_text_line_space
                0x000526dc       0x1a
 .text.lv_style_set_text_line_space
                0x000526dc       0x1a C:/SysGCC/m68k-elf/m68k-elf/lib/m68000\liblvgl.a(lv_style_gen.o)
                0x000526dc                lv_style_set_text_line_space

.text.lv_style_set_text_decor
                0x000526f6       0x1a
 .text.lv_style_set_text_decor
                0x000526f6       0x1a C:/SysGCC/m68k-elf/m68k-elf/lib/m68000\liblvgl.a(lv_style_gen.o)
                0x000526f6                lv_style_set_text_decor

.text.lv_style_set_text_align
                0x00052710       0x1a
 .text.lv_style_set_text_align
                0x00052710       0x1a C:/SysGCC/m68k-elf/m68k-elf/lib/m68000\liblvgl.a(lv_style_gen.o)
                0x00052710                lv_style_set_text_align

.text.lv_style_set_text_outline_stroke_color
                0x0005272a       0x32
 .text.lv_style_set_text_outline_stroke_color
                0x0005272a       0x32 C:/SysGCC/m68k-elf/m68k-elf/lib/m68000\liblvgl.a(lv_style_gen.o)
                0x0005272a                lv_style_set_text_outline_stroke_color

.text.lv_style_set_text_outline_stroke_width
                0x0005275c       0x1a
 .text.lv_style_set_text_outline_stroke_width
                0x0005275c       0x1a C:/SysGCC/m68k-elf/m68k-elf/lib/m68000\liblvgl.a(lv_style_gen.o)
                0x0005275c                lv_style_set_text_outline_stroke_width

.text.lv_style_set_text_outline_stroke_opa
                0x00052776       0x1e
 .text.lv_style_set_text_outline_stroke_opa
                0x00052776       0x1e C:/SysGCC/m68k-elf/m68k-elf/lib/m68000\liblvgl.a(lv_style_gen.o)
                0x00052776                lv_style_set_text_outline_stroke_opa

.text.lv_style_set_blur_radius
                0x00052794       0x1a
 .text.lv_style_set_blur_radius
                0x00052794       0x1a C:/SysGCC/m68k-elf/m68k-elf/lib/m68000\liblvgl.a(lv_style_gen.o)
                0x00052794                lv_style_set_blur_radius

.text.lv_style_set_blur_backdrop
                0x000527ae       0x1e
 .text.lv_style_set_blur_backdrop
                0x000527ae       0x1e C:/SysGCC/m68k-elf/m68k-elf/lib/m68000\liblvgl.a(lv_style_gen.o)
                0x000527ae                lv_style_set_blur_backdrop

.text.lv_style_set_blur_quality
                0x000527cc       0x1a
 .text.lv_style_set_blur_quality
                0x000527cc       0x1a C:/SysGCC/m68k-elf/m68k-elf/lib/m68000\liblvgl.a(lv_style_gen.o)
                0x000527cc                lv_style_set_blur_quality

.text.lv_style_set_drop_shadow_radius
                0x000527e6       0x1a
 .text.lv_style_set_drop_shadow_radius
                0x000527e6       0x1a C:/SysGCC/m68k-elf/m68k-elf/lib/m68000\liblvgl.a(lv_style_gen.o)
                0x000527e6                lv_style_set_drop_shadow_radius

.text.lv_style_set_drop_shadow_offset_x
                0x00052800       0x1a
 .text.lv_style_set_drop_shadow_offset_x
                0x00052800       0x1a C:/SysGCC/m68k-elf/m68k-elf/lib/m68000\liblvgl.a(lv_style_gen.o)
                0x00052800                lv_style_set_drop_shadow_offset_x

.text.lv_style_set_drop_shadow_offset_y
                0x0005281a       0x1a
 .text.lv_style_set_drop_shadow_offset_y
                0x0005281a       0x1a C:/SysGCC/m68k-elf/m68k-elf/lib/m68000\liblvgl.a(lv_style_gen.o)
                0x0005281a                lv_style_set_drop_shadow_offset_y

.text.lv_style_set_drop_shadow_color
                0x00052834       0x32
 .text.lv_style_set_drop_shadow_color
                0x00052834       0x32 C:/SysGCC/m68k-elf/m68k-elf/lib/m68000\liblvgl.a(lv_style_gen.o)
                0x00052834                lv_style_set_drop_shadow_color

.text.lv_style_set_drop_shadow_opa
                0x00052866       0x1e
 .text.lv_style_set_drop_shadow_opa
                0x00052866       0x1e C:/SysGCC/m68k-elf/m68k-elf/lib/m68000\liblvgl.a(lv_style_gen.o)
                0x00052866                lv_style_set_drop_shadow_opa

.text.lv_style_set_drop_shadow_quality
                0x00052884       0x1a
 .text.lv_style_set_drop_shadow_quality
                0x00052884       0x1a C:/SysGCC/m68k-elf/m68k-elf/lib/m68000\liblvgl.a(lv_style_gen.o)
                0x00052884                lv_style_set_drop_shadow_quality

.text.lv_style_set_radius
                0x0005289e       0x1a
 .text.lv_style_set_radius
                0x0005289e       0x1a C:/SysGCC/m68k-elf/m68k-elf/lib/m68000\liblvgl.a(lv_style_gen.o)
                0x0005289e                lv_style_set_radius

.text.lv_style_set_radial_offset
                0x000528b8       0x1a
 .text.lv_style_set_radial_offset
                0x000528b8       0x1a C:/SysGCC/m68k-elf/m68k-elf/lib/m68000\liblvgl.a(lv_style_gen.o)
                0x000528b8                lv_style_set_radial_offset

.text.lv_style_set_clip_corner
                0x000528d2       0x1e
 .text.lv_style_set_clip_corner
                0x000528d2       0x1e C:/SysGCC/m68k-elf/m68k-elf/lib/m68000\liblvgl.a(lv_style_gen.o)
                0x000528d2                lv_style_set_clip_corner

.text.lv_style_set_opa
                0x000528f0       0x1e
 .text.lv_style_set_opa
                0x000528f0       0x1e C:/SysGCC/m68k-elf/m68k-elf/lib/m68000\liblvgl.a(lv_style_gen.o)
                0x000528f0                lv_style_set_opa

.text.lv_style_set_opa_layered
                0x0005290e       0x1e
 .text.lv_style_set_opa_layered
                0x0005290e       0x1e C:/SysGCC/m68k-elf/m68k-elf/lib/m68000\liblvgl.a(lv_style_gen.o)
                0x0005290e                lv_style_set_opa_layered

.text.lv_style_set_color_filter_dsc
                0x0005292c       0x1a
 .text.lv_style_set_color_filter_dsc
                0x0005292c       0x1a C:/SysGCC/m68k-elf/m68k-elf/lib/m68000\liblvgl.a(lv_style_gen.o)
                0x0005292c                lv_style_set_color_filter_dsc

.text.lv_style_set_color_filter_opa
                0x00052946       0x1e
 .text.lv_style_set_color_filter_opa
                0x00052946       0x1e C:/SysGCC/m68k-elf/m68k-elf/lib/m68000\liblvgl.a(lv_style_gen.o)
                0x00052946                lv_style_set_color_filter_opa

.text.lv_style_set_recolor
                0x00052964       0x32
 .text.lv_style_set_recolor
                0x00052964       0x32 C:/SysGCC/m68k-elf/m68k-elf/lib/m68000\liblvgl.a(lv_style_gen.o)
                0x00052964                lv_style_set_recolor

.text.lv_style_set_recolor_opa
                0x00052996       0x1e
 .text.lv_style_set_recolor_opa
                0x00052996       0x1e C:/SysGCC/m68k-elf/m68k-elf/lib/m68000\liblvgl.a(lv_style_gen.o)
                0x00052996                lv_style_set_recolor_opa

.text.lv_style_set_anim
                0x000529b4       0x1a
 .text.lv_style_set_anim
                0x000529b4       0x1a C:/SysGCC/m68k-elf/m68k-elf/lib/m68000\liblvgl.a(lv_style_gen.o)
                0x000529b4                lv_style_set_anim

.text.lv_style_set_anim_duration
                0x000529ce       0x1a
 .text.lv_style_set_anim_duration
                0x000529ce       0x1a C:/SysGCC/m68k-elf/m68k-elf/lib/m68000\liblvgl.a(lv_style_gen.o)
                0x000529ce                lv_style_set_anim_duration

.text.lv_style_set_transition
                0x000529e8       0x1a
 .text.lv_style_set_transition
                0x000529e8       0x1a C:/SysGCC/m68k-elf/m68k-elf/lib/m68000\liblvgl.a(lv_style_gen.o)
                0x000529e8                lv_style_set_transition

.text.lv_style_set_blend_mode
                0x00052a02       0x1a
 .text.lv_style_set_blend_mode
                0x00052a02       0x1a C:/SysGCC/m68k-elf/m68k-elf/lib/m68000\liblvgl.a(lv_style_gen.o)
                0x00052a02                lv_style_set_blend_mode

.text.lv_style_set_layout
                0x00052a1c       0x1e
 .text.lv_style_set_layout
                0x00052a1c       0x1e C:/SysGCC/m68k-elf/m68k-elf/lib/m68000\liblvgl.a(lv_style_gen.o)
                0x00052a1c                lv_style_set_layout

.text.lv_style_set_base_dir
                0x00052a3a       0x1a
 .text.lv_style_set_base_dir
                0x00052a3a       0x1a C:/SysGCC/m68k-elf/m68k-elf/lib/m68000\liblvgl.a(lv_style_gen.o)
                0x00052a3a                lv_style_set_base_dir

.text.lv_style_set_bitmap_mask_src
                0x00052a54       0x1a
 .text.lv_style_set_bitmap_mask_src
                0x00052a54       0x1a C:/SysGCC/m68k-elf/m68k-elf/lib/m68000\liblvgl.a(lv_style_gen.o)
                0x00052a54                lv_style_set_bitmap_mask_src

.text.lv_style_set_rotary_sensitivity
                0x00052a6e       0x1a
 .text.lv_style_set_rotary_sensitivity
                0x00052a6e       0x1a C:/SysGCC/m68k-elf/m68k-elf/lib/m68000\liblvgl.a(lv_style_gen.o)
                0x00052a6e                lv_style_set_rotary_sensitivity

.text.lv_style_set_flex_flow
                0x00052a88       0x1a
 .text.lv_style_set_flex_flow
                0x00052a88       0x1a C:/SysGCC/m68k-elf/m68k-elf/lib/m68000\liblvgl.a(lv_style_gen.o)
                0x00052a88                lv_style_set_flex_flow

.text.lv_style_set_flex_main_place
                0x00052aa2       0x1a
 .text.lv_style_set_flex_main_place
                0x00052aa2       0x1a C:/SysGCC/m68k-elf/m68k-elf/lib/m68000\liblvgl.a(lv_style_gen.o)
                0x00052aa2                lv_style_set_flex_main_place

.text.lv_style_set_flex_cross_place
                0x00052abc       0x1a
 .text.lv_style_set_flex_cross_place
                0x00052abc       0x1a C:/SysGCC/m68k-elf/m68k-elf/lib/m68000\liblvgl.a(lv_style_gen.o)
                0x00052abc                lv_style_set_flex_cross_place

.text.lv_style_set_flex_track_place
                0x00052ad6       0x1a
 .text.lv_style_set_flex_track_place
                0x00052ad6       0x1a C:/SysGCC/m68k-elf/m68k-elf/lib/m68000\liblvgl.a(lv_style_gen.o)
                0x00052ad6                lv_style_set_flex_track_place

.text.lv_style_set_flex_grow
                0x00052af0       0x1e
 .text.lv_style_set_flex_grow
                0x00052af0       0x1e C:/SysGCC/m68k-elf/m68k-elf/lib/m68000\liblvgl.a(lv_style_gen.o)
                0x00052af0                lv_style_set_flex_grow

.text.lv_style_set_grid_column_dsc_array
                0x00052b0e       0x1a
 .text.lv_style_set_grid_column_dsc_array
                0x00052b0e       0x1a C:/SysGCC/m68k-elf/m68k-elf/lib/m68000\liblvgl.a(lv_style_gen.o)
                0x00052b0e                lv_style_set_grid_column_dsc_array

.text.lv_style_set_grid_column_align
                0x00052b28       0x1a
 .text.lv_style_set_grid_column_align
                0x00052b28       0x1a C:/SysGCC/m68k-elf/m68k-elf/lib/m68000\liblvgl.a(lv_style_gen.o)
                0x00052b28                lv_style_set_grid_column_align

.text.lv_style_set_grid_row_dsc_array
                0x00052b42       0x1a
 .text.lv_style_set_grid_row_dsc_array
                0x00052b42       0x1a C:/SysGCC/m68k-elf/m68k-elf/lib/m68000\liblvgl.a(lv_style_gen.o)
                0x00052b42                lv_style_set_grid_row_dsc_array

.text.lv_style_set_grid_row_align
                0x00052b5c       0x1a
 .text.lv_style_set_grid_row_align
                0x00052b5c       0x1a C:/SysGCC/m68k-elf/m68k-elf/lib/m68000\liblvgl.a(lv_style_gen.o)
                0x00052b5c                lv_style_set_grid_row_align

.text.lv_style_set_grid_cell_column_pos
                0x00052b76       0x1a
 .text.lv_style_set_grid_cell_column_pos
                0x00052b76       0x1a C:/SysGCC/m68k-elf/m68k-elf/lib/m68000\liblvgl.a(lv_style_gen.o)
                0x00052b76                lv_style_set_grid_cell_column_pos

.text.lv_style_set_grid_cell_x_align
                0x00052b90       0x1a
 .text.lv_style_set_grid_cell_x_align
                0x00052b90       0x1a C:/SysGCC/m68k-elf/m68k-elf/lib/m68000\liblvgl.a(lv_style_gen.o)
                0x00052b90                lv_style_set_grid_cell_x_align

.text.lv_style_set_grid_cell_column_span
                0x00052baa       0x1a
 .text.lv_style_set_grid_cell_column_span
                0x00052baa       0x1a C:/SysGCC/m68k-elf/m68k-elf/lib/m68000\liblvgl.a(lv_style_gen.o)
                0x00052baa                lv_style_set_grid_cell_column_span

.text.lv_style_set_grid_cell_row_pos
                0x00052bc4       0x1a
 .text.lv_style_set_grid_cell_row_pos
                0x00052bc4       0x1a C:/SysGCC/m68k-elf/m68k-elf/lib/m68000\liblvgl.a(lv_style_gen.o)
                0x00052bc4                lv_style_set_grid_cell_row_pos

.text.lv_style_set_grid_cell_y_align
                0x00052bde       0x1a
 .text.lv_style_set_grid_cell_y_align
                0x00052bde       0x1a C:/SysGCC/m68k-elf/m68k-elf/lib/m68000\liblvgl.a(lv_style_gen.o)
                0x00052bde                lv_style_set_grid_cell_y_align

.text.lv_style_set_grid_cell_row_span
                0x00052bf8       0x1a
 .text.lv_style_set_grid_cell_row_span
                0x00052bf8       0x1a C:/SysGCC/m68k-elf/m68k-elf/lib/m68000\liblvgl.a(lv_style_gen.o)
                0x00052bf8                lv_style_set_grid_cell_row_span

.text.lv_text_iso8859_1_size
                0x00052c12        0x4
 .text.lv_text_iso8859_1_size
                0x00052c12        0x4 C:/SysGCC/m68k-elf/m68k-elf/lib/m68000\liblvgl.a(lv_text.o)

.text.lv_text_unicode_to_iso8859_1
                0x00052c16       0x10
 .text.lv_text_unicode_to_iso8859_1
                0x00052c16       0x10 C:/SysGCC/m68k-elf/m68k-elf/lib/m68000\liblvgl.a(lv_text.o)

.text.lv_text_iso8859_1_conv_wc
                0x00052c26        0x6
 .text.lv_text_iso8859_1_conv_wc
                0x00052c26        0x6 C:/SysGCC/m68k-elf/m68k-elf/lib/m68000\liblvgl.a(lv_text.o)

.text.lv_text_iso8859_1_next
                0x00052c2c       0x24
 .text.lv_text_iso8859_1_next
                0x00052c2c       0x24 C:/SysGCC/m68k-elf/m68k-elf/lib/m68000\liblvgl.a(lv_text.o)

.text.lv_text_iso8859_1_prev
                0x00052c50       0x2a
 .text.lv_text_iso8859_1_prev
                0x00052c50       0x2a C:/SysGCC/m68k-elf/m68k-elf/lib/m68000\liblvgl.a(lv_text.o)

.text.lv_text_iso8859_1_get_byte_id
                0x00052c7a        0x6
 .text.lv_text_iso8859_1_get_byte_id
                0x00052c7a        0x6 C:/SysGCC/m68k-elf/m68k-elf/lib/m68000\liblvgl.a(lv_text.o)

.text.lv_text_iso8859_1_get_char_id
                0x00052c80        0x6
 .text.lv_text_iso8859_1_get_char_id
                0x00052c80        0x6 C:/SysGCC/m68k-elf/m68k-elf/lib/m68000\liblvgl.a(lv_text.o)

.text.lv_text_iso8859_1_get_length
                0x00052c86        0x6
 .text.lv_text_iso8859_1_get_length
                0x00052c86        0x6 C:/SysGCC/m68k-elf/m68k-elf/lib/m68000\liblvgl.a(lv_text.o)

.text.lv_text_attributes_init
                0x00052c8c       0x16
 .text.lv_text_attributes_init
                0x00052c8c       0x16 C:/SysGCC/m68k-elf/m68k-elf/lib/m68000\liblvgl.a(lv_text.o)
                0x00052c8c                lv_text_attributes_init

.text.lv_text_is_cmd
                0x00052ca2       0x40
 .text.lv_text_is_cmd
                0x00052ca2       0x40 C:/SysGCC/m68k-elf/m68k-elf/lib/m68000\liblvgl.a(lv_text.o)
                0x00052ca2                lv_text_is_cmd

.text.lv_text_get_next_line
                0x00052ce2      0x2e2
 .text.lv_text_get_next_line
                0x00052ce2      0x2e2 C:/SysGCC/m68k-elf/m68k-elf/lib/m68000\liblvgl.a(lv_text.o)
                0x00052ce2                lv_text_get_next_line

.text.lv_text_ins
                0x00052fc4       0x66
 .text.lv_text_ins
                0x00052fc4       0x66 C:/SysGCC/m68k-elf/m68k-elf/lib/m68000\liblvgl.a(lv_text.o)
                0x00052fc4                lv_text_ins

.text.lv_text_cut
                0x0005302a       0x34
 .text.lv_text_cut
                0x0005302a       0x34 C:/SysGCC/m68k-elf/m68k-elf/lib/m68000\liblvgl.a(lv_text.o)
                0x0005302a                lv_text_cut

.text.lv_text_set_text_vfmt
                0x0005305e       0x46
 .text.lv_text_set_text_vfmt
                0x0005305e       0x46 C:/SysGCC/m68k-elf/m68k-elf/lib/m68000\liblvgl.a(lv_text.o)
                0x0005305e                lv_text_set_text_vfmt

.text.lv_text_encoded_letter_next_2
                0x000530a4       0x3a
 .text.lv_text_encoded_letter_next_2
                0x000530a4       0x3a C:/SysGCC/m68k-elf/m68k-elf/lib/m68000\liblvgl.a(lv_text.o)
                0x000530a4                lv_text_encoded_letter_next_2

.text.lv_text_get_width
                0x000530de       0xba
 .text.lv_text_get_width
                0x000530de       0xba C:/SysGCC/m68k-elf/m68k-elf/lib/m68000\liblvgl.a(lv_text.o)
                0x000530de                lv_text_get_width

.text.lv_text_get_size_attributes
                0x00053198       0xe4
 .text.lv_text_get_size_attributes
                0x00053198       0xe4 C:/SysGCC/m68k-elf/m68k-elf/lib/m68000\liblvgl.a(lv_text.o)
                0x00053198                lv_text_get_size_attributes

.text.lv_text_get_size
                0x0005327c       0x4a
 .text.lv_text_get_size
                0x0005327c       0x4a C:/SysGCC/m68k-elf/m68k-elf/lib/m68000\liblvgl.a(lv_text.o)
                0x0005327c                lv_text_get_size

.text.apply_theme
                0x000532c6       0x38
 .text.apply_theme
                0x000532c6       0x38 C:/SysGCC/m68k-elf/m68k-elf/lib/m68000\liblvgl.a(lv_theme.o)

.text.apply_theme_recursion
                0x000532fe       0x3a
 .text.apply_theme_recursion
                0x000532fe       0x3a C:/SysGCC/m68k-elf/m68k-elf/lib/m68000\liblvgl.a(lv_theme.o)

.text.lv_theme_get_from_obj
                0x00053338       0x22
 .text.lv_theme_get_from_obj
                0x00053338       0x22 C:/SysGCC/m68k-elf/m68k-elf/lib/m68000\liblvgl.a(lv_theme.o)
                0x00053338                lv_theme_get_from_obj

.text.lv_theme_create
                0x0005335a        0xe
 .text.lv_theme_create
                0x0005335a        0xe C:/SysGCC/m68k-elf/m68k-elf/lib/m68000\liblvgl.a(lv_theme.o)
                0x0005335a                lv_theme_create

.text.lv_theme_delete
                0x00053368        0x6
 .text.lv_theme_delete
                0x00053368        0x6 C:/SysGCC/m68k-elf/m68k-elf/lib/m68000\liblvgl.a(lv_theme.o)
                0x00053368                lv_theme_delete

.text.lv_theme_copy
                0x0005336e       0x24
 .text.lv_theme_copy
                0x0005336e       0x24 C:/SysGCC/m68k-elf/m68k-elf/lib/m68000\liblvgl.a(lv_theme.o)
                0x0005336e                lv_theme_copy

.text.lv_theme_apply
                0x00053392       0x32
 .text.lv_theme_apply
                0x00053392       0x32 C:/SysGCC/m68k-elf/m68k-elf/lib/m68000\liblvgl.a(lv_theme.o)
                0x00053392                lv_theme_apply

.text.lv_theme_set_parent
                0x000533c4        0xc
 .text.lv_theme_set_parent
                0x000533c4        0xc C:/SysGCC/m68k-elf/m68k-elf/lib/m68000\liblvgl.a(lv_theme.o)
                0x000533c4                lv_theme_set_parent

.text.lv_theme_set_apply_cb
                0x000533d0        0xa
 .text.lv_theme_set_apply_cb
                0x000533d0        0xa C:/SysGCC/m68k-elf/m68k-elf/lib/m68000\liblvgl.a(lv_theme.o)
                0x000533d0                lv_theme_set_apply_cb

.text.lv_theme_get_font_small
                0x000533da       0x20
 .text.lv_theme_get_font_small
                0x000533da       0x20 C:/SysGCC/m68k-elf/m68k-elf/lib/m68000\liblvgl.a(lv_theme.o)
                0x000533da                lv_theme_get_font_small

.text.lv_theme_get_font_normal
                0x000533fa       0x20
 .text.lv_theme_get_font_normal
                0x000533fa       0x20 C:/SysGCC/m68k-elf/m68k-elf/lib/m68000\liblvgl.a(lv_theme.o)
                0x000533fa                lv_theme_get_font_normal

.text.lv_theme_get_font_large
                0x0005341a       0x20
 .text.lv_theme_get_font_large
                0x0005341a       0x20 C:/SysGCC/m68k-elf/m68k-elf/lib/m68000\liblvgl.a(lv_theme.o)
                0x0005341a                lv_theme_get_font_large

.text.lv_theme_get_color_primary
                0x0005343a       0x40
 .text.lv_theme_get_color_primary
                0x0005343a       0x40 C:/SysGCC/m68k-elf/m68k-elf/lib/m68000\liblvgl.a(lv_theme.o)
                0x0005343a                lv_theme_get_color_primary

.text.lv_theme_get_color_secondary
                0x0005347a       0x40
 .text.lv_theme_get_color_secondary
                0x0005347a       0x40 C:/SysGCC/m68k-elf/m68k-elf/lib/m68000\liblvgl.a(lv_theme.o)
                0x0005347a                lv_theme_get_color_secondary

.text.lv_image_constructor
                0x000534ba       0xa8
 .text.lv_image_constructor
                0x000534ba       0xa8 C:/SysGCC/m68k-elf/m68k-elf/lib/m68000\liblvgl.a(lv_image.o)

.text.reset_image_attributes
                0x00053562       0x4e
 .text.reset_image_attributes
                0x00053562       0x4e C:/SysGCC/m68k-elf/m68k-elf/lib/m68000\liblvgl.a(lv_image.o)

.text.lv_image_destructor
                0x000535b0       0x34
 .text.lv_image_destructor
                0x000535b0       0x34 C:/SysGCC/m68k-elf/m68k-elf/lib/m68000\liblvgl.a(lv_image.o)

.text.lv_image_create
                0x000535e4       0x28
 .text.lv_image_create
                0x000535e4       0x28 C:/SysGCC/m68k-elf/m68k-elf/lib/m68000\liblvgl.a(lv_image.o)
                0x000535e4                lv_image_create

.text.lv_image_set_offset_x
                0x0005360c       0x10
 .text.lv_image_set_offset_x
                0x0005360c       0x10 C:/SysGCC/m68k-elf/m68k-elf/lib/m68000\liblvgl.a(lv_image.o)
                0x0005360c                lv_image_set_offset_x

.text.lv_image_set_offset_y
                0x0005361c       0x10
 .text.lv_image_set_offset_y
                0x0005361c       0x10 C:/SysGCC/m68k-elf/m68k-elf/lib/m68000\liblvgl.a(lv_image.o)
                0x0005361c                lv_image_set_offset_y

.text.lv_image_set_blend_mode
                0x0005362c       0x38
 .text.lv_image_set_blend_mode
                0x0005362c       0x38 C:/SysGCC/m68k-elf/m68k-elf/lib/m68000\liblvgl.a(lv_image.o)
                0x0005362c                lv_image_set_blend_mode

.text.lv_image_set_antialias
                0x00053664       0x2e
 .text.lv_image_set_antialias
                0x00053664       0x2e C:/SysGCC/m68k-elf/m68k-elf/lib/m68000\liblvgl.a(lv_image.o)
                0x00053664                lv_image_set_antialias

.text.lv_image_set_bitmap_map_src
                0x00053692       0x10
 .text.lv_image_set_bitmap_map_src
                0x00053692       0x10 C:/SysGCC/m68k-elf/m68k-elf/lib/m68000\liblvgl.a(lv_image.o)
                0x00053692                lv_image_set_bitmap_map_src

.text.lv_image_get_src
                0x000536a2        0xa
 .text.lv_image_get_src
                0x000536a2        0xa C:/SysGCC/m68k-elf/m68k-elf/lib/m68000\liblvgl.a(lv_image.o)
                0x000536a2                lv_image_get_src

.text.lv_image_get_offset_x
                0x000536ac        0xa
 .text.lv_image_get_offset_x
                0x000536ac        0xa C:/SysGCC/m68k-elf/m68k-elf/lib/m68000\liblvgl.a(lv_image.o)
                0x000536ac                lv_image_get_offset_x

.text.lv_image_get_offset_y
                0x000536b6        0xa
 .text.lv_image_get_offset_y
                0x000536b6        0xa C:/SysGCC/m68k-elf/m68k-elf/lib/m68000\liblvgl.a(lv_image.o)
                0x000536b6                lv_image_get_offset_y

.text.lv_image_get_rotation
                0x000536c0        0xa
 .text.lv_image_get_rotation
                0x000536c0        0xa C:/SysGCC/m68k-elf/m68k-elf/lib/m68000\liblvgl.a(lv_image.o)
                0x000536c0                lv_image_get_rotation

.text.lv_image_get_pivot
                0x000536ca       0x36
 .text.lv_image_get_pivot
                0x000536ca       0x36 C:/SysGCC/m68k-elf/m68k-elf/lib/m68000\liblvgl.a(lv_image.o)
                0x000536ca                lv_image_get_pivot

.text.scale_update
                0x00053700      0x132
 .text.scale_update
                0x00053700      0x132 C:/SysGCC/m68k-elf/m68k-elf/lib/m68000\liblvgl.a(lv_image.o)

.text.lv_image_set_scale
                0x00053832       0x44
 .text.lv_image_set_scale
                0x00053832       0x44 C:/SysGCC/m68k-elf/m68k-elf/lib/m68000\liblvgl.a(lv_image.o)
                0x00053832                lv_image_set_scale

.text.lv_image_set_scale_x
                0x00053876       0x40
 .text.lv_image_set_scale_x
                0x00053876       0x40 C:/SysGCC/m68k-elf/m68k-elf/lib/m68000\liblvgl.a(lv_image.o)
                0x00053876                lv_image_set_scale_x

.text.lv_image_set_scale_y
                0x000538b6       0x40
 .text.lv_image_set_scale_y
                0x000538b6       0x40 C:/SysGCC/m68k-elf/m68k-elf/lib/m68000\liblvgl.a(lv_image.o)
                0x000538b6                lv_image_set_scale_y

.text.lv_image_set_rotation
                0x000538f6      0x14e
 .text.lv_image_set_rotation
                0x000538f6      0x14e C:/SysGCC/m68k-elf/m68k-elf/lib/m68000\liblvgl.a(lv_image.o)
                0x000538f6                lv_image_set_rotation

.text.lv_image_set_pivot
                0x00053a44      0x156
 .text.lv_image_set_pivot
                0x00053a44      0x156 C:/SysGCC/m68k-elf/m68k-elf/lib/m68000\liblvgl.a(lv_image.o)
                0x00053a44                lv_image_set_pivot

.text.update_align
                0x00053b9a      0x1b4
 .text.update_align
                0x00053b9a      0x1b4 C:/SysGCC/m68k-elf/m68k-elf/lib/m68000\liblvgl.a(lv_image.o)

.text.lv_image_set_src
                0x00053d4e      0x1e6
 .text.lv_image_set_src
                0x00053d4e      0x1e6 C:/SysGCC/m68k-elf/m68k-elf/lib/m68000\liblvgl.a(lv_image.o)
                0x00053d4e                lv_image_set_src

.text.image_src_observer_cb
                0x00053f34       0x2a
 .text.image_src_observer_cb
                0x00053f34       0x2a C:/SysGCC/m68k-elf/m68k-elf/lib/m68000\liblvgl.a(lv_image.o)

.text.lv_image_set_inner_align
                0x00053f5e       0x72
 .text.lv_image_set_inner_align
                0x00053f5e       0x72 C:/SysGCC/m68k-elf/m68k-elf/lib/m68000\liblvgl.a(lv_image.o)
                0x00053f5e                lv_image_set_inner_align

.text.lv_image_set_pivot_x
                0x00053fd0       0x1a
 .text.lv_image_set_pivot_x
                0x00053fd0       0x1a C:/SysGCC/m68k-elf/m68k-elf/lib/m68000\liblvgl.a(lv_image.o)
                0x00053fd0                lv_image_set_pivot_x

.text.lv_image_set_pivot_y
                0x00053fea       0x1a
 .text.lv_image_set_pivot_y
                0x00053fea       0x1a C:/SysGCC/m68k-elf/m68k-elf/lib/m68000\liblvgl.a(lv_image.o)
                0x00053fea                lv_image_set_pivot_y

.text.lv_image_event
                0x00054004      0x802
 .text.lv_image_event
                0x00054004      0x802 C:/SysGCC/m68k-elf/m68k-elf/lib/m68000\liblvgl.a(lv_image.o)

.text.lv_image_get_scale
                0x00054806        0xa
 .text.lv_image_get_scale
                0x00054806        0xa C:/SysGCC/m68k-elf/m68k-elf/lib/m68000\liblvgl.a(lv_image.o)
                0x00054806                lv_image_get_scale

.text.lv_image_get_scale_x
                0x00054810        0xa
 .text.lv_image_get_scale_x
                0x00054810        0xa C:/SysGCC/m68k-elf/m68k-elf/lib/m68000\liblvgl.a(lv_image.o)
                0x00054810                lv_image_get_scale_x

.text.lv_image_get_scale_y
                0x0005481a        0xa
 .text.lv_image_get_scale_y
                0x0005481a        0xa C:/SysGCC/m68k-elf/m68k-elf/lib/m68000\liblvgl.a(lv_image.o)
                0x0005481a                lv_image_get_scale_y

.text.lv_image_get_src_width
                0x00054824       0x18
 .text.lv_image_get_src_width
                0x00054824       0x18 C:/SysGCC/m68k-elf/m68k-elf/lib/m68000\liblvgl.a(lv_image.o)
                0x00054824                lv_image_get_src_width

.text.lv_image_get_src_height
                0x0005483c       0x18
 .text.lv_image_get_src_height
                0x0005483c       0x18 C:/SysGCC/m68k-elf/m68k-elf/lib/m68000\liblvgl.a(lv_image.o)
                0x0005483c                lv_image_get_src_height

.text.lv_image_get_transformed_width
                0x00054854       0x6c
 .text.lv_image_get_transformed_width
                0x00054854       0x6c C:/SysGCC/m68k-elf/m68k-elf/lib/m68000\liblvgl.a(lv_image.o)
                0x00054854                lv_image_get_transformed_width

.text.lv_image_get_transformed_height
                0x000548c0       0x6c
 .text.lv_image_get_transformed_height
                0x000548c0       0x6c C:/SysGCC/m68k-elf/m68k-elf/lib/m68000\liblvgl.a(lv_image.o)
                0x000548c0                lv_image_get_transformed_height

.text.lv_image_get_blend_mode
                0x0005492c       0x12
 .text.lv_image_get_blend_mode
                0x0005492c       0x12 C:/SysGCC/m68k-elf/m68k-elf/lib/m68000\liblvgl.a(lv_image.o)
                0x0005492c                lv_image_get_blend_mode

.text.lv_image_get_antialias
                0x0005493e        0xe
 .text.lv_image_get_antialias
                0x0005493e        0xe C:/SysGCC/m68k-elf/m68k-elf/lib/m68000\liblvgl.a(lv_image.o)
                0x0005493e                lv_image_get_antialias

.text.lv_image_get_inner_align
                0x0005494c       0x10
 .text.lv_image_get_inner_align
                0x0005494c       0x10 C:/SysGCC/m68k-elf/m68k-elf/lib/m68000\liblvgl.a(lv_image.o)
                0x0005494c                lv_image_get_inner_align

.text.lv_image_get_bitmap_map_src
                0x0005495c        0xa
 .text.lv_image_get_bitmap_map_src
                0x0005495c        0xa C:/SysGCC/m68k-elf/m68k-elf/lib/m68000\liblvgl.a(lv_image.o)
                0x0005495c                lv_image_get_bitmap_map_src

.text.lv_image_bind_src
                0x00054966       0x30
 .text.lv_image_bind_src
                0x00054966       0x30 C:/SysGCC/m68k-elf/m68k-elf/lib/m68000\liblvgl.a(lv_image.o)
                0x00054966                lv_image_bind_src

.text.lv_draw_buf_convert_premultiply
                0x00054996      0x150
 .text.lv_draw_buf_convert_premultiply
                0x00054996      0x150 C:/SysGCC/m68k-elf/m68k-elf/lib/m68000\liblvgl.a(lv_draw_buf_convert.o)
                0x00054996                lv_draw_buf_convert_premultiply

.text.lv_draw_sw_blend
                0x00054ae6      0x492
 .text.lv_draw_sw_blend
                0x00054ae6      0x492 C:/SysGCC/m68k-elf/m68k-elf/lib/m68000\liblvgl.a(lv_draw_sw_blend.o)
                0x00054ae6                lv_draw_sw_blend

.text.get_bit   0x00054f78      0x1d0
 .text.get_bit  0x00054f78       0x3a C:/SysGCC/m68k-elf/m68k-elf/lib/m68000\liblvgl.a(lv_draw_sw_blend_to_a8.o)
 .text.get_bit  0x00054fb2       0x3a C:/SysGCC/m68k-elf/m68k-elf/lib/m68000\liblvgl.a(lv_draw_sw_blend_to_al88.o)
 .text.get_bit  0x00054fec       0x3a C:/SysGCC/m68k-elf/m68k-elf/lib/m68000\liblvgl.a(lv_draw_sw_blend_to_argb8888.o)
 .text.get_bit  0x00055026       0x3a C:/SysGCC/m68k-elf/m68k-elf/lib/m68000\liblvgl.a(lv_draw_sw_blend_to_i1.o)
 .text.get_bit  0x00055060       0x3a C:/SysGCC/m68k-elf/m68k-elf/lib/m68000\liblvgl.a(lv_draw_sw_blend_to_l8.o)
 .text.get_bit  0x0005509a       0x3a C:/SysGCC/m68k-elf/m68k-elf/lib/m68000\liblvgl.a(lv_draw_sw_blend_to_rgb565.o)
 .text.get_bit  0x000550d4       0x3a C:/SysGCC/m68k-elf/m68k-elf/lib/m68000\liblvgl.a(lv_draw_sw_blend_to_rgb565_swapped.o)
 .text.get_bit  0x0005510e       0x3a C:/SysGCC/m68k-elf/m68k-elf/lib/m68000\liblvgl.a(lv_draw_sw_blend_to_rgb888.o)

.text.mask_only_image_blend
                0x00055148       0xce
 .text.mask_only_image_blend
                0x00055148       0xce C:/SysGCC/m68k-elf/m68k-elf/lib/m68000\liblvgl.a(lv_draw_sw_blend_to_a8.o)

.text.lv_draw_sw_blend_color_to_a8
                0x00055216       0xd4
 .text.lv_draw_sw_blend_color_to_a8
                0x00055216       0xd4 C:/SysGCC/m68k-elf/m68k-elf/lib/m68000\liblvgl.a(lv_draw_sw_blend_to_a8.o)
                0x00055216                lv_draw_sw_blend_color_to_a8

.text.lv_draw_sw_blend_image_to_a8
                0x000552ea      0x4dc
 .text.lv_draw_sw_blend_image_to_a8
                0x000552ea      0x4dc C:/SysGCC/m68k-elf/m68k-elf/lib/m68000\liblvgl.a(lv_draw_sw_blend_to_a8.o)
                0x000552ea                lv_draw_sw_blend_image_to_a8

.text.lv_color_16a_16a_mix
                0x000557c6      0x150
 .text.lv_color_16a_16a_mix
                0x000557c6      0x150 C:/SysGCC/m68k-elf/m68k-elf/lib/m68000\liblvgl.a(lv_draw_sw_blend_to_al88.o)

.text.blend_non_normal_pixel
                0x00055916      0x566
 .text.blend_non_normal_pixel
                0x00055916       0xae C:/SysGCC/m68k-elf/m68k-elf/lib/m68000\liblvgl.a(lv_draw_sw_blend_to_al88.o)
 .text.blend_non_normal_pixel
                0x000559c4      0x1ac C:/SysGCC/m68k-elf/m68k-elf/lib/m68000\liblvgl.a(lv_draw_sw_blend_to_argb8888.o)
 .text.blend_non_normal_pixel
                0x00055b70       0xe4 C:/SysGCC/m68k-elf/m68k-elf/lib/m68000\liblvgl.a(lv_draw_sw_blend_to_i1.o)
 .text.blend_non_normal_pixel
                0x00055c54       0xa0 C:/SysGCC/m68k-elf/m68k-elf/lib/m68000\liblvgl.a(lv_draw_sw_blend_to_l8.o)
 .text.blend_non_normal_pixel
                0x00055cf4      0x188 C:/SysGCC/m68k-elf/m68k-elf/lib/m68000\liblvgl.a(lv_draw_sw_blend_to_rgb888.o)

.text.lv_color_mix_with_alpha_cache_init
                0x00055e7c       0xc6
 .text.lv_color_mix_with_alpha_cache_init
                0x00055e7c       0x42 C:/SysGCC/m68k-elf/m68k-elf/lib/m68000\liblvgl.a(lv_draw_sw_blend_to_al88.o)
 .text.lv_color_mix_with_alpha_cache_init
                0x00055ebe       0x42 C:/SysGCC/m68k-elf/m68k-elf/lib/m68000\liblvgl.a(lv_draw_sw_blend_to_argb8888.o)
 .text.lv_color_mix_with_alpha_cache_init
                0x00055f00       0x42 C:/SysGCC/m68k-elf/m68k-elf/lib/m68000\liblvgl.a(lv_draw_sw_blend_to_argb8888_premultiplied.o)

.text.rgb888_image_blend
                0x00055f42     0x1872
 .text.rgb888_image_blend
                0x00055f42      0x24e C:/SysGCC/m68k-elf/m68k-elf/lib/m68000\liblvgl.a(lv_draw_sw_blend_to_al88.o)
 .text.rgb888_image_blend
                0x00056190      0x314 C:/SysGCC/m68k-elf/m68k-elf/lib/m68000\liblvgl.a(lv_draw_sw_blend_to_argb8888.o)
 .text.rgb888_image_blend
                0x000564a4      0x39c C:/SysGCC/m68k-elf/m68k-elf/lib/m68000\liblvgl.a(lv_draw_sw_blend_to_argb8888_premultiplied.o)
 .text.rgb888_image_blend
                0x00056840      0x2b4 C:/SysGCC/m68k-elf/m68k-elf/lib/m68000\liblvgl.a(lv_draw_sw_blend_to_i1.o)
 .text.rgb888_image_blend
                0x00056af4      0x238 C:/SysGCC/m68k-elf/m68k-elf/lib/m68000\liblvgl.a(lv_draw_sw_blend_to_l8.o)
 .text.rgb888_image_blend
                0x00056d2c      0x414 C:/SysGCC/m68k-elf/m68k-elf/lib/m68000\liblvgl.a(lv_draw_sw_blend_to_rgb565.o)
 .text.rgb888_image_blend
                0x00057140      0x43c C:/SysGCC/m68k-elf/m68k-elf/lib/m68000\liblvgl.a(lv_draw_sw_blend_to_rgb565_swapped.o)
 .text.rgb888_image_blend
                0x0005757c      0x238 C:/SysGCC/m68k-elf/m68k-elf/lib/m68000\liblvgl.a(lv_draw_sw_blend_to_rgb888.o)

.text.lv_draw_sw_blend_color_to_al88
                0x000577b4      0x25a
 .text.lv_draw_sw_blend_color_to_al88
                0x000577b4      0x25a C:/SysGCC/m68k-elf/m68k-elf/lib/m68000\liblvgl.a(lv_draw_sw_blend_to_al88.o)
                0x000577b4                lv_draw_sw_blend_color_to_al88

.text.lv_draw_sw_blend_image_to_al88
                0x00057a0e      0xac4
 .text.lv_draw_sw_blend_image_to_al88
                0x00057a0e      0xac4 C:/SysGCC/m68k-elf/m68k-elf/lib/m68000\liblvgl.a(lv_draw_sw_blend_to_al88.o)
                0x00057a0e                lv_draw_sw_blend_image_to_al88

.text.lv_color_32_32_mix
                0x000584d2      0x16c
 .text.lv_color_32_32_mix
                0x000584d2      0x16c C:/SysGCC/m68k-elf/m68k-elf/lib/m68000\liblvgl.a(lv_draw_sw_blend_to_argb8888.o)

.text.lv_color_8_32_mix
                0x0005863e       0x6c
 .text.lv_color_8_32_mix
                0x0005863e       0x6c C:/SysGCC/m68k-elf/m68k-elf/lib/m68000\liblvgl.a(lv_draw_sw_blend_to_argb8888.o)

.text.lv_draw_sw_blend_color_to_argb8888
                0x000586aa      0x286
 .text.lv_draw_sw_blend_color_to_argb8888
                0x000586aa      0x286 C:/SysGCC/m68k-elf/m68k-elf/lib/m68000\liblvgl.a(lv_draw_sw_blend_to_argb8888.o)
                0x000586aa                lv_draw_sw_blend_color_to_argb8888

.text.lv_draw_sw_blend_image_to_argb8888
                0x00058930     0x168e
 .text.lv_draw_sw_blend_image_to_argb8888
                0x00058930     0x168e C:/SysGCC/m68k-elf/m68k-elf/lib/m68000\liblvgl.a(lv_draw_sw_blend_to_argb8888.o)
                0x00058930                lv_draw_sw_blend_image_to_argb8888

.text.lv_color_32_32_mix_premul
                0x00059fbe      0x1a2
 .text.lv_color_32_32_mix_premul
                0x00059fbe      0x1a2 C:/SysGCC/m68k-elf/m68k-elf/lib/m68000\liblvgl.a(lv_draw_sw_blend_to_argb8888_premultiplied.o)

.text.blend_non_normal_pixel_premultiplied
                0x0005a160      0x1e6
 .text.blend_non_normal_pixel_premultiplied
                0x0005a160      0x1e6 C:/SysGCC/m68k-elf/m68k-elf/lib/m68000\liblvgl.a(lv_draw_sw_blend_to_argb8888_premultiplied.o)

.text.lv_draw_sw_blend_color_to_argb8888_premultiplied
                0x0005a346      0x31e
 .text.lv_draw_sw_blend_color_to_argb8888_premultiplied
                0x0005a346      0x31e C:/SysGCC/m68k-elf/m68k-elf/lib/m68000\liblvgl.a(lv_draw_sw_blend_to_argb8888_premultiplied.o)
                0x0005a346                lv_draw_sw_blend_color_to_argb8888_premultiplied

.text.lv_draw_sw_blend_image_to_argb8888_premultiplied
                0x0005a664      0xbe4
 .text.lv_draw_sw_blend_image_to_argb8888_premultiplied
                0x0005a664      0xbe4 C:/SysGCC/m68k-elf/m68k-elf/lib/m68000\liblvgl.a(lv_draw_sw_blend_to_argb8888_premultiplied.o)
                0x0005a664                lv_draw_sw_blend_image_to_argb8888_premultiplied

.text.set_bit   0x0005b248       0x2a
 .text.set_bit  0x0005b248       0x2a C:/SysGCC/m68k-elf/m68k-elf/lib/m68000\liblvgl.a(lv_draw_sw_blend_to_i1.o)

.text.clear_bit
                0x0005b272       0x2a
 .text.clear_bit
                0x0005b272       0x2a C:/SysGCC/m68k-elf/m68k-elf/lib/m68000\liblvgl.a(lv_draw_sw_blend_to_i1.o)

.text.lv_color16_from_u16
                0x0005b29c       0x40
 .text.lv_color16_from_u16
                0x0005b29c       0x20 C:/SysGCC/m68k-elf/m68k-elf/lib/m68000\liblvgl.a(lv_draw_sw_blend_to_i1.o)
 .text.lv_color16_from_u16
                0x0005b2bc       0x20 C:/SysGCC/m68k-elf/m68k-elf/lib/m68000\liblvgl.a(lv_draw_sw_blend_to_l8.o)

.text.lv_color_8_8_mix
                0x0005b2dc       0x88
 .text.lv_color_8_8_mix
                0x0005b2dc       0x44 C:/SysGCC/m68k-elf/m68k-elf/lib/m68000\liblvgl.a(lv_draw_sw_blend_to_i1.o)
 .text.lv_color_8_8_mix
                0x0005b320       0x44 C:/SysGCC/m68k-elf/m68k-elf/lib/m68000\liblvgl.a(lv_draw_sw_blend_to_l8.o)

.text.lv_draw_sw_blend_color_to_i1
                0x0005b364      0x314
 .text.lv_draw_sw_blend_color_to_i1
                0x0005b364      0x314 C:/SysGCC/m68k-elf/m68k-elf/lib/m68000\liblvgl.a(lv_draw_sw_blend_to_i1.o)
                0x0005b364                lv_draw_sw_blend_color_to_i1

.text.lv_draw_sw_blend_image_to_i1
                0x0005b678     0x1362
 .text.lv_draw_sw_blend_image_to_i1
                0x0005b678     0x1362 C:/SysGCC/m68k-elf/m68k-elf/lib/m68000\liblvgl.a(lv_draw_sw_blend_to_i1.o)
                0x0005b678                lv_draw_sw_blend_image_to_i1

.text.lv_draw_sw_blend_color_to_l8
                0x0005c9da      0x1d2
 .text.lv_draw_sw_blend_color_to_l8
                0x0005c9da      0x1d2 C:/SysGCC/m68k-elf/m68k-elf/lib/m68000\liblvgl.a(lv_draw_sw_blend_to_l8.o)
                0x0005c9da                lv_draw_sw_blend_color_to_l8

.text.lv_draw_sw_blend_image_to_l8
                0x0005cbac      0xdb8
 .text.lv_draw_sw_blend_image_to_l8
                0x0005cbac      0xdb8 C:/SysGCC/m68k-elf/m68k-elf/lib/m68000\liblvgl.a(lv_draw_sw_blend_to_l8.o)
                0x0005cbac                lv_draw_sw_blend_image_to_l8

.text.l8_to_rgb565
                0x0005d964       0x48
 .text.l8_to_rgb565
                0x0005d964       0x24 C:/SysGCC/m68k-elf/m68k-elf/lib/m68000\liblvgl.a(lv_draw_sw_blend_to_rgb565.o)
 .text.l8_to_rgb565
                0x0005d988       0x24 C:/SysGCC/m68k-elf/m68k-elf/lib/m68000\liblvgl.a(lv_draw_sw_blend_to_rgb565_swapped.o)

.text.lv_color_8_16_mix
                0x0005d9ac      0x118
 .text.lv_color_8_16_mix
                0x0005d9ac       0x8c C:/SysGCC/m68k-elf/m68k-elf/lib/m68000\liblvgl.a(lv_draw_sw_blend_to_rgb565.o)
 .text.lv_color_8_16_mix
                0x0005da38       0x8c C:/SysGCC/m68k-elf/m68k-elf/lib/m68000\liblvgl.a(lv_draw_sw_blend_to_rgb565_swapped.o)

.text.lv_color_24_16_mix
                0x0005dac4      0x160
 .text.lv_color_24_16_mix
                0x0005dac4       0xb0 C:/SysGCC/m68k-elf/m68k-elf/lib/m68000\liblvgl.a(lv_draw_sw_blend_to_rgb565.o)
 .text.lv_color_24_16_mix
                0x0005db74       0xb0 C:/SysGCC/m68k-elf/m68k-elf/lib/m68000\liblvgl.a(lv_draw_sw_blend_to_rgb565_swapped.o)

.text.lv_draw_sw_blend_color_to_rgb565
                0x0005dc24      0x2ee
 .text.lv_draw_sw_blend_color_to_rgb565
                0x0005dc24      0x2ee C:/SysGCC/m68k-elf/m68k-elf/lib/m68000\liblvgl.a(lv_draw_sw_blend_to_rgb565.o)
                0x0005dc24                lv_draw_sw_blend_color_to_rgb565

.text.lv_draw_sw_blend_image_to_rgb565
                0x0005df12     0x1cae
 .text.lv_draw_sw_blend_image_to_rgb565
                0x0005df12     0x1cae C:/SysGCC/m68k-elf/m68k-elf/lib/m68000\liblvgl.a(lv_draw_sw_blend_to_rgb565.o)
                0x0005df12                lv_draw_sw_blend_image_to_rgb565

.text.lv_draw_sw_blend_color_to_rgb565_swapped
                0x0005fbc0      0x28a
 .text.lv_draw_sw_blend_color_to_rgb565_swapped
                0x0005fbc0      0x28a C:/SysGCC/m68k-elf/m68k-elf/lib/m68000\liblvgl.a(lv_draw_sw_blend_to_rgb565_swapped.o)
                0x0005fbc0                lv_draw_sw_blend_color_to_rgb565_swapped

.text.lv_draw_sw_blend_image_to_rgb565_swapped
                0x0005fe4a     0x1eca
 .text.lv_draw_sw_blend_image_to_rgb565_swapped
                0x0005fe4a     0x1eca C:/SysGCC/m68k-elf/m68k-elf/lib/m68000\liblvgl.a(lv_draw_sw_blend_to_rgb565_swapped.o)
                0x0005fe4a                lv_draw_sw_blend_image_to_rgb565_swapped

.text.lv_color_8_24_mix
                0x00061d14       0x66
 .text.lv_color_8_24_mix
                0x00061d14       0x66 C:/SysGCC/m68k-elf/m68k-elf/lib/m68000\liblvgl.a(lv_draw_sw_blend_to_rgb888.o)

.text.lv_color_24_24_mix
                0x00061d7a       0x84
 .text.lv_color_24_24_mix
                0x00061d7a       0x84 C:/SysGCC/m68k-elf/m68k-elf/lib/m68000\liblvgl.a(lv_draw_sw_blend_to_rgb888.o)

.text.lv_draw_sw_blend_color_to_rgb888
                0x00061dfe      0x286
 .text.lv_draw_sw_blend_color_to_rgb888
                0x00061dfe      0x286 C:/SysGCC/m68k-elf/m68k-elf/lib/m68000\liblvgl.a(lv_draw_sw_blend_to_rgb888.o)
                0x00061dfe                lv_draw_sw_blend_color_to_rgb888

.text.lv_draw_sw_blend_image_to_rgb888
                0x00062084     0x1170
 .text.lv_draw_sw_blend_image_to_rgb888
                0x00062084     0x1170 C:/SysGCC/m68k-elf/m68k-elf/lib/m68000\liblvgl.a(lv_draw_sw_blend_to_rgb888.o)
                0x00062084                lv_draw_sw_blend_image_to_rgb888

.text.lv_draw_sw_i1_to_argb8888
                0x000631f4       0x64
 .text.lv_draw_sw_i1_to_argb8888
                0x000631f4       0x64 C:/SysGCC/m68k-elf/m68k-elf/lib/m68000\liblvgl.a(lv_draw_sw_utils.o)
                0x000631f4                lv_draw_sw_i1_to_argb8888

.text.lv_draw_sw_rgb565_swap
                0x00063258      0x162
 .text.lv_draw_sw_rgb565_swap
                0x00063258      0x162 C:/SysGCC/m68k-elf/m68k-elf/lib/m68000\liblvgl.a(lv_draw_sw_utils.o)
                0x00063258                lv_draw_sw_rgb565_swap

.text.lv_draw_sw_i1_invert
                0x000633ba       0x56
 .text.lv_draw_sw_i1_invert
                0x000633ba       0x56 C:/SysGCC/m68k-elf/m68k-elf/lib/m68000\liblvgl.a(lv_draw_sw_utils.o)
                0x000633ba                lv_draw_sw_i1_invert

.text.lv_draw_sw_i1_convert_to_vtiled
                0x00063410       0xc8
 .text.lv_draw_sw_i1_convert_to_vtiled
                0x00063410       0xc8 C:/SysGCC/m68k-elf/m68k-elf/lib/m68000\liblvgl.a(lv_draw_sw_utils.o)
                0x00063410                lv_draw_sw_i1_convert_to_vtiled

.text.lv_draw_sw_rotate
                0x000634d8      0x44c
 .text.lv_draw_sw_rotate
                0x000634d8      0x44c C:/SysGCC/m68k-elf/m68k-elf/lib/m68000\liblvgl.a(lv_draw_sw_utils.o)
                0x000634d8                lv_draw_sw_rotate

.text.kern_pair_8_compare
                0x00063924       0x26
 .text.kern_pair_8_compare
                0x00063924       0x26 C:/SysGCC/m68k-elf/m68k-elf/lib/m68000\liblvgl.a(lv_font_fmt_txt.o)

.text.kern_pair_16_compare
                0x0006394a       0x26
 .text.kern_pair_16_compare
                0x0006394a       0x26 C:/SysGCC/m68k-elf/m68k-elf/lib/m68000\liblvgl.a(lv_font_fmt_txt.o)

.text.unicode_list_compare
                0x00063970       0x14
 .text.unicode_list_compare
                0x00063970       0x14 C:/SysGCC/m68k-elf/m68k-elf/lib/m68000\liblvgl.a(lv_font_fmt_txt.o)

.text.builtin_font_create_cb
                0x00063984       0x1c
 .text.builtin_font_create_cb
                0x00063984       0x1c C:/SysGCC/m68k-elf/m68k-elf/lib/m68000\liblvgl.a(lv_font_fmt_txt.o)

.text.builtin_font_delete_cb
                0x000639a0        0x2
 .text.builtin_font_delete_cb
                0x000639a0        0x2 C:/SysGCC/m68k-elf/m68k-elf/lib/m68000\liblvgl.a(lv_font_fmt_txt.o)

.text.builtin_font_free_src_cb
                0x000639a2        0x6
 .text.builtin_font_free_src_cb
                0x000639a2        0x6 C:/SysGCC/m68k-elf/m68k-elf/lib/m68000\liblvgl.a(lv_font_fmt_txt.o)

.text.builtin_font_dup_src_cb
                0x000639a8       0x48
 .text.builtin_font_dup_src_cb
                0x000639a8       0x48 C:/SysGCC/m68k-elf/m68k-elf/lib/m68000\liblvgl.a(lv_font_fmt_txt.o)

.text.get_glyph_dsc_id.isra.0.part.1
                0x000639f0      0x124
 .text.get_glyph_dsc_id.isra.0.part.1
                0x000639f0      0x124 C:/SysGCC/m68k-elf/m68k-elf/lib/m68000\liblvgl.a(lv_font_fmt_txt.o)

.text.lv_font_get_bitmap_fmt_txt
                0x00063b14      0x2b8
 .text.lv_font_get_bitmap_fmt_txt
                0x00063b14      0x2b8 C:/SysGCC/m68k-elf/m68k-elf/lib/m68000\liblvgl.a(lv_font_fmt_txt.o)
                0x00063b14                lv_font_get_bitmap_fmt_txt

.text.lv_font_get_glyph_dsc_fmt_txt
                0x00063dcc      0x218
 .text.lv_font_get_glyph_dsc_fmt_txt
                0x00063dcc      0x218 C:/SysGCC/m68k-elf/m68k-elf/lib/m68000\liblvgl.a(lv_font_fmt_txt.o)
                0x00063dcc                lv_font_get_glyph_dsc_fmt_txt

.text.grid_align
                0x00063fe4      0x11a
 .text.grid_align
                0x00063fe4      0x11a C:/SysGCC/m68k-elf/m68k-elf/lib/m68000\liblvgl.a(lv_grid.o)

.text.grid_update
                0x000640fe      0xd08
 .text.grid_update
                0x000640fe      0xd08 C:/SysGCC/m68k-elf/m68k-elf/lib/m68000\liblvgl.a(lv_grid.o)

.text.lv_grid_init
                0x00064e06       0x14
 .text.lv_grid_init
                0x00064e06       0x14 C:/SysGCC/m68k-elf/m68k-elf/lib/m68000\liblvgl.a(lv_grid.o)
                0x00064e06                lv_grid_init

.text.lv_obj_set_grid_dsc_array
                0x00064e1a       0x42
 .text.lv_obj_set_grid_dsc_array
                0x00064e1a       0x42 C:/SysGCC/m68k-elf/m68k-elf/lib/m68000\liblvgl.a(lv_grid.o)
                0x00064e1a                lv_obj_set_grid_dsc_array

.text.lv_obj_set_grid_align
                0x00064e5c       0x34
 .text.lv_obj_set_grid_align
                0x00064e5c       0x34 C:/SysGCC/m68k-elf/m68k-elf/lib/m68000\liblvgl.a(lv_grid.o)
                0x00064e5c                lv_obj_set_grid_align

.text.lv_obj_set_grid_cell
                0x00064e90       0x86
 .text.lv_obj_set_grid_cell
                0x00064e90       0x86 C:/SysGCC/m68k-elf/m68k-elf/lib/m68000\liblvgl.a(lv_grid.o)
                0x00064e90                lv_obj_set_grid_cell

.text.lv_grid_fr
                0x00064f16        0xe
 .text.lv_grid_fr
                0x00064f16        0xe C:/SysGCC/m68k-elf/m68k-elf/lib/m68000\liblvgl.a(lv_grid.o)
                0x00064f16                lv_grid_fr

.text.destroy_cb
                0x00064f24       0x14
 .text.destroy_cb
                0x00064f24       0x14 C:/SysGCC/m68k-elf/m68k-elf/lib/m68000\liblvgl.a(lv_cache_lru_rb.o)

.text.reserve_cond_cb
                0x00064f38       0x4a
 .text.reserve_cond_cb
                0x00064f38       0x4a C:/SysGCC/m68k-elf/m68k-elf/lib/m68000\liblvgl.a(lv_cache_lru_rb.o)

.text.cnt_get_data_size_cb
                0x00064f82        0x4
 .text.cnt_get_data_size_cb
                0x00064f82        0x4 C:/SysGCC/m68k-elf/m68k-elf/lib/m68000\liblvgl.a(lv_cache_lru_rb.o)

.text.size_get_data_size_cb
                0x00064f86        0x8
 .text.size_get_data_size_cb
                0x00064f86        0x8 C:/SysGCC/m68k-elf/m68k-elf/lib/m68000\liblvgl.a(lv_cache_lru_rb.o)

.text.cache_iter_create_cb
                0x00064f8e       0x2c
 .text.cache_iter_create_cb
                0x00064f8e       0x2c C:/SysGCC/m68k-elf/m68k-elf/lib/m68000\liblvgl.a(lv_cache_lru_rb.o)

.text.cache_iter_next_cb
                0x00064fba       0x66
 .text.cache_iter_next_cb
                0x00064fba       0x66 C:/SysGCC/m68k-elf/m68k-elf/lib/m68000\liblvgl.a(lv_cache_lru_rb.o)

.text.get_victim_cb
                0x00065020       0x64
 .text.get_victim_cb
                0x00065020       0x64 C:/SysGCC/m68k-elf/m68k-elf/lib/m68000\liblvgl.a(lv_cache_lru_rb.o)

.text.drop_all_cb
                0x00065084       0x8a
 .text.drop_all_cb
                0x00065084       0x8a C:/SysGCC/m68k-elf/m68k-elf/lib/m68000\liblvgl.a(lv_cache_lru_rb.o)

.text.drop_cb   0x0006510e       0xa6
 .text.drop_cb  0x0006510e       0xa6 C:/SysGCC/m68k-elf/m68k-elf/lib/m68000\liblvgl.a(lv_cache_lru_rb.o)

.text.remove_cb
                0x000651b4       0x7e
 .text.remove_cb
                0x000651b4       0x7e C:/SysGCC/m68k-elf/m68k-elf/lib/m68000\liblvgl.a(lv_cache_lru_rb.o)

.text.get_cb    0x00065232       0xac
 .text.get_cb   0x00065232       0xac C:/SysGCC/m68k-elf/m68k-elf/lib/m68000\liblvgl.a(lv_cache_lru_rb.o)

.text.add_cb    0x000652de       0xfa
 .text.add_cb   0x000652de       0xfa C:/SysGCC/m68k-elf/m68k-elf/lib/m68000\liblvgl.a(lv_cache_lru_rb.o)

.text.init_cnt_cb
                0x000653d8       0x68
 .text.init_cnt_cb
                0x000653d8       0x68 C:/SysGCC/m68k-elf/m68k-elf/lib/m68000\liblvgl.a(lv_cache_lru_rb.o)

.text.init_size_cb
                0x00065440       0x68
 .text.init_size_cb
                0x00065440       0x68 C:/SysGCC/m68k-elf/m68k-elf/lib/m68000\liblvgl.a(lv_cache_lru_rb.o)

.text.alloc_cb  0x000654a8       0x2e
 .text.alloc_cb
                0x000654a8       0x2e C:/SysGCC/m68k-elf/m68k-elf/lib/m68000\liblvgl.a(lv_cache_lru_rb.o)

.text.lv_array_init
                0x000654d6       0x3c
 .text.lv_array_init
                0x000654d6       0x3c C:/SysGCC/m68k-elf/m68k-elf/lib/m68000\liblvgl.a(lv_array.o)
                0x000654d6                lv_array_init

.text.lv_array_init_from_buf
                0x00065512       0x1e
 .text.lv_array_init_from_buf
                0x00065512       0x1e C:/SysGCC/m68k-elf/m68k-elf/lib/m68000\liblvgl.a(lv_array.o)
                0x00065512                lv_array_init_from_buf

.text.lv_array_deinit
                0x00065530       0x28
 .text.lv_array_deinit
                0x00065530       0x28 C:/SysGCC/m68k-elf/m68k-elf/lib/m68000\liblvgl.a(lv_array.o)
                0x00065530                lv_array_deinit

.text.lv_array_copy
                0x00065558       0x56
 .text.lv_array_copy
                0x00065558       0x56 C:/SysGCC/m68k-elf/m68k-elf/lib/m68000\liblvgl.a(lv_array.o)
                0x00065558                lv_array_copy

.text.lv_array_resize
                0x000655ae       0x4c
 .text.lv_array_resize
                0x000655ae       0x4c C:/SysGCC/m68k-elf/m68k-elf/lib/m68000\liblvgl.a(lv_array.o)
                0x000655ae                lv_array_resize

.text.lv_array_shrink
                0x000655fa       0x20
 .text.lv_array_shrink
                0x000655fa       0x20 C:/SysGCC/m68k-elf/m68k-elf/lib/m68000\liblvgl.a(lv_array.o)
                0x000655fa                lv_array_shrink

.text.lv_array_concat
                0x0006561a       0x6a
 .text.lv_array_concat
                0x0006561a       0x6a C:/SysGCC/m68k-elf/m68k-elf/lib/m68000\liblvgl.a(lv_array.o)
                0x0006561a                lv_array_concat

.text.lv_array_push_back
                0x00065684       0x6e
 .text.lv_array_push_back
                0x00065684       0x6e C:/SysGCC/m68k-elf/m68k-elf/lib/m68000\liblvgl.a(lv_array.o)
                0x00065684                lv_array_push_back

.text.lv_array_at
                0x000656f2       0x28
 .text.lv_array_at
                0x000656f2       0x28 C:/SysGCC/m68k-elf/m68k-elf/lib/m68000\liblvgl.a(lv_array.o)
                0x000656f2                lv_array_at

.text.lv_array_remove
                0x0006571a       0x78
 .text.lv_array_remove
                0x0006571a       0x78 C:/SysGCC/m68k-elf/m68k-elf/lib/m68000\liblvgl.a(lv_array.o)
                0x0006571a                lv_array_remove

.text.lv_array_remove_unordered
                0x00065792       0x70
 .text.lv_array_remove_unordered
                0x00065792       0x70 C:/SysGCC/m68k-elf/m68k-elf/lib/m68000\liblvgl.a(lv_array.o)
                0x00065792                lv_array_remove_unordered

.text.lv_array_erase
                0x00065802       0x8e
 .text.lv_array_erase
                0x00065802       0x8e C:/SysGCC/m68k-elf/m68k-elf/lib/m68000\liblvgl.a(lv_array.o)
                0x00065802                lv_array_erase

.text.lv_array_assign
                0x00065890       0x36
 .text.lv_array_assign
                0x00065890       0x36 C:/SysGCC/m68k-elf/m68k-elf/lib/m68000\liblvgl.a(lv_array.o)
                0x00065890                lv_array_assign

.text.circle_buf_prepare_empty
                0x000658c6       0x2e
 .text.circle_buf_prepare_empty
                0x000658c6       0x2e C:/SysGCC/m68k-elf/m68k-elf/lib/m68000\liblvgl.a(lv_circle_buf.o)

.text.lv_circle_buf_create
                0x000658f4       0x44
 .text.lv_circle_buf_create
                0x000658f4       0x44 C:/SysGCC/m68k-elf/m68k-elf/lib/m68000\liblvgl.a(lv_circle_buf.o)
                0x000658f4                lv_circle_buf_create

.text.lv_circle_buf_create_from_buf
                0x00065938       0x46
 .text.lv_circle_buf_create_from_buf
                0x00065938       0x46 C:/SysGCC/m68k-elf/m68k-elf/lib/m68000\liblvgl.a(lv_circle_buf.o)
                0x00065938                lv_circle_buf_create_from_buf

.text.lv_circle_buf_create_from_array
                0x0006597e       0x4e
 .text.lv_circle_buf_create_from_array
                0x0006597e       0x4e C:/SysGCC/m68k-elf/m68k-elf/lib/m68000\liblvgl.a(lv_circle_buf.o)
                0x0006597e                lv_circle_buf_create_from_array

.text.lv_circle_buf_resize
                0x000659cc       0x34
 .text.lv_circle_buf_resize
                0x000659cc       0x34 C:/SysGCC/m68k-elf/m68k-elf/lib/m68000\liblvgl.a(lv_circle_buf.o)
                0x000659cc                lv_circle_buf_resize

.text.lv_circle_buf_destroy
                0x00065a00       0x1c
 .text.lv_circle_buf_destroy
                0x00065a00       0x1c C:/SysGCC/m68k-elf/m68k-elf/lib/m68000\liblvgl.a(lv_circle_buf.o)
                0x00065a00                lv_circle_buf_destroy

.text.lv_circle_buf_size
                0x00065a1c        0xe
 .text.lv_circle_buf_size
                0x00065a1c        0xe C:/SysGCC/m68k-elf/m68k-elf/lib/m68000\liblvgl.a(lv_circle_buf.o)
                0x00065a1c                lv_circle_buf_size

.text.lv_circle_buf_capacity
                0x00065a2a        0xa
 .text.lv_circle_buf_capacity
                0x00065a2a        0xa C:/SysGCC/m68k-elf/m68k-elf/lib/m68000\liblvgl.a(lv_circle_buf.o)
                0x00065a2a                lv_circle_buf_capacity

.text.lv_circle_buf_remain
                0x00065a34       0x16
 .text.lv_circle_buf_remain
                0x00065a34       0x16 C:/SysGCC/m68k-elf/m68k-elf/lib/m68000\liblvgl.a(lv_circle_buf.o)
                0x00065a34                lv_circle_buf_remain

.text.lv_circle_buf_is_empty
                0x00065a4a       0x12
 .text.lv_circle_buf_is_empty
                0x00065a4a       0x12 C:/SysGCC/m68k-elf/m68k-elf/lib/m68000\liblvgl.a(lv_circle_buf.o)
                0x00065a4a                lv_circle_buf_is_empty

.text.lv_circle_buf_is_full
                0x00065a5c       0x14
 .text.lv_circle_buf_is_full
                0x00065a5c       0x14 C:/SysGCC/m68k-elf/m68k-elf/lib/m68000\liblvgl.a(lv_circle_buf.o)
                0x00065a5c                lv_circle_buf_is_full

.text.lv_circle_buf_reset
                0x00065a70        0xe
 .text.lv_circle_buf_reset
                0x00065a70        0xe C:/SysGCC/m68k-elf/m68k-elf/lib/m68000\liblvgl.a(lv_circle_buf.o)
                0x00065a70                lv_circle_buf_reset

.text.lv_circle_buf_head
                0x00065a7e       0x26
 .text.lv_circle_buf_head
                0x00065a7e       0x26 C:/SysGCC/m68k-elf/m68k-elf/lib/m68000\liblvgl.a(lv_circle_buf.o)
                0x00065a7e                lv_circle_buf_head

.text.lv_circle_buf_tail
                0x00065aa4       0x26
 .text.lv_circle_buf_tail
                0x00065aa4       0x26 C:/SysGCC/m68k-elf/m68k-elf/lib/m68000\liblvgl.a(lv_circle_buf.o)
                0x00065aa4                lv_circle_buf_tail

.text.lv_circle_buf_write
                0x00065aca       0x44
 .text.lv_circle_buf_write
                0x00065aca       0x44 C:/SysGCC/m68k-elf/m68k-elf/lib/m68000\liblvgl.a(lv_circle_buf.o)
                0x00065aca                lv_circle_buf_write

.text.lv_circle_buf_fill
                0x00065b0e       0x54
 .text.lv_circle_buf_fill
                0x00065b0e       0x54 C:/SysGCC/m68k-elf/m68k-elf/lib/m68000\liblvgl.a(lv_circle_buf.o)
                0x00065b0e                lv_circle_buf_fill

.text.lv_circle_buf_skip
                0x00065b62       0x24
 .text.lv_circle_buf_skip
                0x00065b62       0x24 C:/SysGCC/m68k-elf/m68k-elf/lib/m68000\liblvgl.a(lv_circle_buf.o)
                0x00065b62                lv_circle_buf_skip

.text.lv_circle_buf_peek_at
                0x00065b86       0x56
 .text.lv_circle_buf_peek_at
                0x00065b86       0x56 C:/SysGCC/m68k-elf/m68k-elf/lib/m68000\liblvgl.a(lv_circle_buf.o)
                0x00065b86                lv_circle_buf_peek_at

.text.lv_circle_buf_read
                0x00065bdc       0x38
 .text.lv_circle_buf_read
                0x00065bdc       0x38 C:/SysGCC/m68k-elf/m68k-elf/lib/m68000\liblvgl.a(lv_circle_buf.o)
                0x00065bdc                lv_circle_buf_read

.text.lv_circle_buf_peek
                0x00065c14       0x16
 .text.lv_circle_buf_peek
                0x00065c14       0x16 C:/SysGCC/m68k-elf/m68k-elf/lib/m68000\liblvgl.a(lv_circle_buf.o)
                0x00065c14                lv_circle_buf_peek

.text.rb_right_rotate.isra.1
                0x00065c2a       0x42
 .text.rb_right_rotate.isra.1
                0x00065c2a       0x42 C:/SysGCC/m68k-elf/m68k-elf/lib/m68000\liblvgl.a(lv_rb.o)

.text.rb_left_rotate.isra.2
                0x00065c6c       0x42
 .text.rb_left_rotate.isra.2
                0x00065c6c       0x42 C:/SysGCC/m68k-elf/m68k-elf/lib/m68000\liblvgl.a(lv_rb.o)

.text.rb_delete_color
                0x00065cae      0x18a
 .text.rb_delete_color
                0x00065cae      0x18a C:/SysGCC/m68k-elf/m68k-elf/lib/m68000\liblvgl.a(lv_rb.o)

.text.lv_rb_init
                0x00065e38       0x46
 .text.lv_rb_init
                0x00065e38       0x46 C:/SysGCC/m68k-elf/m68k-elf/lib/m68000\liblvgl.a(lv_rb.o)
                0x00065e38                lv_rb_init

.text.lv_rb_find
                0x00065e7e       0x44
 .text.lv_rb_find
                0x00065e7e       0x44 C:/SysGCC/m68k-elf/m68k-elf/lib/m68000\liblvgl.a(lv_rb.o)
                0x00065e7e                lv_rb_find

.text.lv_rb_insert
                0x00065ec2      0x18e
 .text.lv_rb_insert
                0x00065ec2      0x18e C:/SysGCC/m68k-elf/m68k-elf/lib/m68000\liblvgl.a(lv_rb.o)
                0x00065ec2                lv_rb_insert

.text.lv_rb_remove_node
                0x00066050       0xe2
 .text.lv_rb_remove_node
                0x00066050       0xe2 C:/SysGCC/m68k-elf/m68k-elf/lib/m68000\liblvgl.a(lv_rb.o)
                0x00066050                lv_rb_remove_node

.text.lv_rb_remove
                0x00066132       0x34
 .text.lv_rb_remove
                0x00066132       0x34 C:/SysGCC/m68k-elf/m68k-elf/lib/m68000\liblvgl.a(lv_rb.o)
                0x00066132                lv_rb_remove

.text.lv_rb_drop_node
                0x00066166       0x2a
 .text.lv_rb_drop_node
                0x00066166       0x2a C:/SysGCC/m68k-elf/m68k-elf/lib/m68000\liblvgl.a(lv_rb.o)
                0x00066166                lv_rb_drop_node

.text.lv_rb_drop
                0x00066190       0x2a
 .text.lv_rb_drop
                0x00066190       0x2a C:/SysGCC/m68k-elf/m68k-elf/lib/m68000\liblvgl.a(lv_rb.o)
                0x00066190                lv_rb_drop

.text.lv_rb_destroy
                0x000661ba       0x60
 .text.lv_rb_destroy
                0x000661ba       0x60 C:/SysGCC/m68k-elf/m68k-elf/lib/m68000\liblvgl.a(lv_rb.o)
                0x000661ba                lv_rb_destroy

.text.lv_rb_minimum
                0x0006621a       0x1e
 .text.lv_rb_minimum
                0x0006621a       0x1e C:/SysGCC/m68k-elf/m68k-elf/lib/m68000\liblvgl.a(lv_rb.o)
                0x0006621a                lv_rb_minimum

.text.lv_rb_maximum
                0x00066238       0x1e
 .text.lv_rb_maximum
                0x00066238       0x1e C:/SysGCC/m68k-elf/m68k-elf/lib/m68000\liblvgl.a(lv_rb.o)
                0x00066238                lv_rb_maximum

.text.lv_rb_minimum_from
                0x00066256       0x12
 .text.lv_rb_minimum_from
                0x00066256       0x12 C:/SysGCC/m68k-elf/m68k-elf/lib/m68000\liblvgl.a(lv_rb.o)
                0x00066256                lv_rb_minimum_from

.text.lv_rb_maximum_from
                0x00066268       0x12
 .text.lv_rb_maximum_from
                0x00066268       0x12 C:/SysGCC/m68k-elf/m68k-elf/lib/m68000\liblvgl.a(lv_rb.o)
                0x00066268                lv_rb_maximum_from

.text.lv_utils_bsearch
                0x0006627a       0x60
 .text.lv_utils_bsearch
                0x0006627a       0x60 C:/SysGCC/m68k-elf/m68k-elf/lib/m68000\liblvgl.a(lv_utils.o)
                0x0006627a                lv_utils_bsearch

.text.lv_draw_buf_save_to_file
                0x000662da       0x9c
 .text.lv_draw_buf_save_to_file
                0x000662da       0x9c C:/SysGCC/m68k-elf/m68k-elf/lib/m68000\liblvgl.a(lv_utils.o)
                0x000662da                lv_draw_buf_save_to_file

.data           0x00066378      0x9c8
                0x00066378                copy_start = .
                0x00066378                PROVIDE (copy_start, .)
 *(.got.plt)
 *(.got)
 *(.shdata)
 *(.data .data.*)
 .data          0x00066378        0x0 obj/crt0.o
 .data          0x00066378        0x0 ./obj/lvgl_nkc.o
 .data          0x00066378        0x0 C:/SysGCC/m68k-elf/m68k-elf/lib/m68000\liblvgl.a(lv_tick.o)
 .data          0x00066378        0x0 C:/SysGCC/m68k-elf/m68k-elf/lib/m68000\liblvgl.a(lv_init.o)
 .data          0x00066378        0x0 C:/SysGCC/m68k-elf/m68k-elf/lib/m68000\liblvgl.a(lv_anim.o)
 .data          0x00066378        0x0 C:/SysGCC/m68k-elf/m68k-elf/lib/m68000\liblvgl.a(lv_fs.o)
 .data          0x00066378        0x0 C:/SysGCC/m68k-elf/m68k-elf/lib/m68000\liblvgl.a(lv_ll.o)
 .data          0x00066378        0x0 C:/SysGCC/m68k-elf/m68k-elf/lib/m68000\liblvgl.a(lv_math.o)
 .data          0x00066378        0x0 C:/SysGCC/m68k-elf/m68k-elf/lib/m68000\liblvgl.a(lv_timer.o)
 .data          0x00066378        0x0 C:/SysGCC/m68k-elf/m68k-elf/lib/m68000\liblvgl.a(lv_os.o)
 .data          0x00066378        0x0 C:/SysGCC/m68k-elf/m68k-elf/lib/m68000\liblvgl.a(lv_mem_core_builtin.o)
 .data          0x00066378        0x0 C:/SysGCC/m68k-elf/m68k-elf/lib/m68000\liblvgl.a(lv_sprintf_builtin.o)
 .data          0x00066378        0x0 C:/SysGCC/m68k-elf/m68k-elf/lib/m68000\liblvgl.a(lv_string_builtin.o)
 .data          0x00066378        0x0 C:/SysGCC/m68k-elf/m68k-elf/lib/m68000\liblvgl.a(lv_tlsf.o)
 .data          0x00066378        0x0 C:/SysGCC/m68k-elf/m68k-elf/lib/m68000\liblvgl.a(lv_mem.o)
 .data          0x00066378        0x0 C:/SysGCC/m68k-elf/m68k-elf/lib/m68000\liblvgl.a(lv_theme_mono.o)
 .data          0x00066378        0x0 C:/SysGCC/m68k-elf/m68k-elf/lib/m68000\liblvgl.a(lv_theme_simple.o)
 .data          0x00066378        0x0 C:/SysGCC/m68k-elf/m68k-elf/lib/m68000\liblvgl.a(lv_arc.o)
 .data          0x00066378        0x0 C:/SysGCC/m68k-elf/m68k-elf/lib/m68000\liblvgl.a(lv_bar.o)
 .data          0x00066378        0x0 C:/SysGCC/m68k-elf/m68k-elf/lib/m68000\liblvgl.a(lv_button.o)
 .data          0x00066378        0x0 C:/SysGCC/m68k-elf/m68k-elf/lib/m68000\liblvgl.a(lv_buttonmatrix.o)
 .data          0x00066378        0x0 C:/SysGCC/m68k-elf/m68k-elf/lib/m68000\liblvgl.a(lv_calendar.o)
 .data          0x00066378        0x0 C:/SysGCC/m68k-elf/m68k-elf/lib/m68000\liblvgl.a(lv_chart.o)
 .data          0x00066378        0x0 C:/SysGCC/m68k-elf/m68k-elf/lib/m68000\liblvgl.a(lv_checkbox.o)
 .data          0x00066378        0x0 C:/SysGCC/m68k-elf/m68k-elf/lib/m68000\liblvgl.a(lv_dropdown.o)
 .data          0x00066378        0x0 C:/SysGCC/m68k-elf/m68k-elf/lib/m68000\liblvgl.a(lv_keyboard.o)
 .data.kb_ctrl  0x00066378       0x28 C:/SysGCC/m68k-elf/m68k-elf/lib/m68000\liblvgl.a(lv_keyboard.o)
 .data.kb_map   0x000663a0       0x28 C:/SysGCC/m68k-elf/m68k-elf/lib/m68000\liblvgl.a(lv_keyboard.o)
 .data          0x000663c8        0x0 C:/SysGCC/m68k-elf/m68k-elf/lib/m68000\liblvgl.a(lv_label.o)
 .data          0x000663c8        0x0 C:/SysGCC/m68k-elf/m68k-elf/lib/m68000\liblvgl.a(lv_led.o)
 .data          0x000663c8        0x0 C:/SysGCC/m68k-elf/m68k-elf/lib/m68000\liblvgl.a(lv_list.o)
 .data          0x000663c8        0x0 C:/SysGCC/m68k-elf/m68k-elf/lib/m68000\liblvgl.a(lv_msgbox.o)
 .data          0x000663c8        0x0 C:/SysGCC/m68k-elf/m68k-elf/lib/m68000\liblvgl.a(lv_roller.o)
 .data          0x000663c8        0x0 C:/SysGCC/m68k-elf/m68k-elf/lib/m68000\liblvgl.a(lv_slider.o)
 .data          0x000663c8        0x0 C:/SysGCC/m68k-elf/m68k-elf/lib/m68000\liblvgl.a(lv_span.o)
 .data          0x000663c8        0x0 C:/SysGCC/m68k-elf/m68k-elf/lib/m68000\liblvgl.a(lv_spinbox.o)
 .data          0x000663c8        0x0 C:/SysGCC/m68k-elf/m68k-elf/lib/m68000\liblvgl.a(lv_spinner.o)
 .data          0x000663c8        0x0 C:/SysGCC/m68k-elf/m68k-elf/lib/m68000\liblvgl.a(lv_switch.o)
 .data          0x000663c8        0x0 C:/SysGCC/m68k-elf/m68k-elf/lib/m68000\liblvgl.a(lv_table.o)
 .data          0x000663c8        0x0 C:/SysGCC/m68k-elf/m68k-elf/lib/m68000\liblvgl.a(lv_tabview.o)
 .data          0x000663c8        0x0 C:/SysGCC/m68k-elf/m68k-elf/lib/m68000\liblvgl.a(lv_textarea.o)
 .data          0x000663c8        0x0 C:/SysGCC/m68k-elf/m68k-elf/lib/m68000\liblvgl.a(lv_tileview.o)
 .data          0x000663c8        0x0 C:/SysGCC/m68k-elf/m68k-elf/lib/m68000\liblvgl.a(lv_win.o)
 .data          0x000663c8        0x0 C:/SysGCC/m68k-elf/m68k-elf/lib/m68000\liblvgl.a(lv_group.o)
 .data          0x000663c8        0x0 C:/SysGCC/m68k-elf/m68k-elf/lib/m68000\liblvgl.a(lv_obj.o)
 .data          0x000663c8        0x0 C:/SysGCC/m68k-elf/m68k-elf/lib/m68000\liblvgl.a(lv_obj_class.o)
 .data          0x000663c8        0x0 C:/SysGCC/m68k-elf/m68k-elf/lib/m68000\liblvgl.a(lv_obj_draw.o)
 .data          0x000663c8        0x0 C:/SysGCC/m68k-elf/m68k-elf/lib/m68000\liblvgl.a(lv_obj_event.o)
 .data          0x000663c8        0x0 C:/SysGCC/m68k-elf/m68k-elf/lib/m68000\liblvgl.a(lv_obj_pos.o)
 .data          0x000663c8        0x0 C:/SysGCC/m68k-elf/m68k-elf/lib/m68000\liblvgl.a(lv_obj_scroll.o)
 .data          0x000663c8        0x0 C:/SysGCC/m68k-elf/m68k-elf/lib/m68000\liblvgl.a(lv_obj_style.o)
 .data          0x000663c8        0x0 C:/SysGCC/m68k-elf/m68k-elf/lib/m68000\liblvgl.a(lv_obj_style_gen.o)
 .data          0x000663c8        0x0 C:/SysGCC/m68k-elf/m68k-elf/lib/m68000\liblvgl.a(lv_obj_tree.o)
 .data          0x000663c8        0x0 C:/SysGCC/m68k-elf/m68k-elf/lib/m68000\liblvgl.a(lv_observer.o)
 .data          0x000663c8        0x0 C:/SysGCC/m68k-elf/m68k-elf/lib/m68000\liblvgl.a(lv_refr.o)
 .data          0x000663c8        0x0 C:/SysGCC/m68k-elf/m68k-elf/lib/m68000\liblvgl.a(lv_display.o)
 .data          0x000663c8        0x0 C:/SysGCC/m68k-elf/m68k-elf/lib/m68000\liblvgl.a(lv_draw.o)
 .data          0x000663c8        0x0 C:/SysGCC/m68k-elf/m68k-elf/lib/m68000\liblvgl.a(lv_draw_arc.o)
 .data          0x000663c8        0x0 C:/SysGCC/m68k-elf/m68k-elf/lib/m68000\liblvgl.a(lv_draw_blur.o)
 .data          0x000663c8        0x0 C:/SysGCC/m68k-elf/m68k-elf/lib/m68000\liblvgl.a(lv_draw_buf.o)
 .data          0x000663c8        0x0 C:/SysGCC/m68k-elf/m68k-elf/lib/m68000\liblvgl.a(lv_draw_image.o)
 .data          0x000663c8        0x0 C:/SysGCC/m68k-elf/m68k-elf/lib/m68000\liblvgl.a(lv_draw_label.o)
 .data          0x000663c8        0x0 C:/SysGCC/m68k-elf/m68k-elf/lib/m68000\liblvgl.a(lv_draw_line.o)
 .data          0x000663c8        0x0 C:/SysGCC/m68k-elf/m68k-elf/lib/m68000\liblvgl.a(lv_draw_mask.o)
 .data          0x000663c8        0x0 C:/SysGCC/m68k-elf/m68k-elf/lib/m68000\liblvgl.a(lv_draw_rect.o)
 .data          0x000663c8        0x0 C:/SysGCC/m68k-elf/m68k-elf/lib/m68000\liblvgl.a(lv_image_decoder.o)
 .data          0x000663c8        0x0 C:/SysGCC/m68k-elf/m68k-elf/lib/m68000\liblvgl.a(lv_draw_sw.o)
 .data          0x000663c8        0x0 C:/SysGCC/m68k-elf/m68k-elf/lib/m68000\liblvgl.a(lv_draw_sw_arc.o)
 .data          0x000663c8        0x0 C:/SysGCC/m68k-elf/m68k-elf/lib/m68000\liblvgl.a(lv_draw_sw_blur.o)
 .data          0x000663c8        0x0 C:/SysGCC/m68k-elf/m68k-elf/lib/m68000\liblvgl.a(lv_draw_sw_border.o)
 .data          0x000663c8        0x0 C:/SysGCC/m68k-elf/m68k-elf/lib/m68000\liblvgl.a(lv_draw_sw_box_shadow.o)
 .data          0x000663c8        0x0 C:/SysGCC/m68k-elf/m68k-elf/lib/m68000\liblvgl.a(lv_draw_sw_fill.o)
 .data          0x000663c8        0x0 C:/SysGCC/m68k-elf/m68k-elf/lib/m68000\liblvgl.a(lv_draw_sw_grad.o)
 .data          0x000663c8        0x0 C:/SysGCC/m68k-elf/m68k-elf/lib/m68000\liblvgl.a(lv_draw_sw_img.o)
 .data          0x000663c8        0x0 C:/SysGCC/m68k-elf/m68k-elf/lib/m68000\liblvgl.a(lv_draw_sw_letter.o)
 .data          0x000663c8        0x0 C:/SysGCC/m68k-elf/m68k-elf/lib/m68000\liblvgl.a(lv_draw_sw_line.o)
 .data          0x000663c8        0x0 C:/SysGCC/m68k-elf/m68k-elf/lib/m68000\liblvgl.a(lv_draw_sw_mask.o)
 .data          0x000663c8        0x0 C:/SysGCC/m68k-elf/m68k-elf/lib/m68000\liblvgl.a(lv_draw_sw_mask_rect.o)
 .data          0x000663c8        0x0 C:/SysGCC/m68k-elf/m68k-elf/lib/m68000\liblvgl.a(lv_draw_sw_transform.o)
 .data          0x000663c8        0x0 C:/SysGCC/m68k-elf/m68k-elf/lib/m68000\liblvgl.a(lv_draw_sw_triangle.o)
 .data          0x000663c8        0x0 C:/SysGCC/m68k-elf/m68k-elf/lib/m68000\liblvgl.a(lv_font.o)
 .data          0x000663c8        0x0 C:/SysGCC/m68k-elf/m68k-elf/lib/m68000\liblvgl.a(lv_font_montserrat_12.o)
 .data          0x000663c8        0x0 C:/SysGCC/m68k-elf/m68k-elf/lib/m68000\liblvgl.a(lv_indev.o)
 .data          0x000663c8        0x0 C:/SysGCC/m68k-elf/m68k-elf/lib/m68000\liblvgl.a(lv_indev_scroll.o)
 .data          0x000663c8        0x0 C:/SysGCC/m68k-elf/m68k-elf/lib/m68000\liblvgl.a(lv_flex.o)
 .data          0x000663c8        0x0 C:/SysGCC/m68k-elf/m68k-elf/lib/m68000\liblvgl.a(lv_layout.o)
 .data          0x000663c8        0x0 C:/SysGCC/m68k-elf/m68k-elf/lib/m68000\liblvgl.a(lv_bin_decoder.o)
 .data          0x000663c8        0x0 C:/SysGCC/m68k-elf/m68k-elf/lib/m68000\liblvgl.a(lv_image_cache.o)
 .data          0x000663c8        0x0 C:/SysGCC/m68k-elf/m68k-elf/lib/m68000\liblvgl.a(lv_image_header_cache.o)
 .data          0x000663c8        0x0 C:/SysGCC/m68k-elf/m68k-elf/lib/m68000\liblvgl.a(lv_cache.o)
 .data          0x000663c8        0x0 C:/SysGCC/m68k-elf/m68k-elf/lib/m68000\liblvgl.a(lv_cache_entry.o)
 .data          0x000663c8        0x0 C:/SysGCC/m68k-elf/m68k-elf/lib/m68000\liblvgl.a(lv_anim_timeline.o)
 .data          0x000663c8        0x0 C:/SysGCC/m68k-elf/m68k-elf/lib/m68000\liblvgl.a(lv_area.o)
 .data          0x000663c8        0x0 C:/SysGCC/m68k-elf/m68k-elf/lib/m68000\liblvgl.a(lv_async.o)
 .data          0x000663c8        0x0 C:/SysGCC/m68k-elf/m68k-elf/lib/m68000\liblvgl.a(lv_color.o)
 .data          0x000663c8        0x0 C:/SysGCC/m68k-elf/m68k-elf/lib/m68000\liblvgl.a(lv_color_op.o)
 .data          0x000663c8        0x0 C:/SysGCC/m68k-elf/m68k-elf/lib/m68000\liblvgl.a(lv_event.o)
 .data          0x000663c8        0x0 C:/SysGCC/m68k-elf/m68k-elf/lib/m68000\liblvgl.a(lv_iter.o)
 .data          0x000663c8        0x0 C:/SysGCC/m68k-elf/m68k-elf/lib/m68000\liblvgl.a(lv_palette.o)
 .data          0x000663c8        0x0 C:/SysGCC/m68k-elf/m68k-elf/lib/m68000\liblvgl.a(lv_style.o)
 .data          0x000663c8        0x0 C:/SysGCC/m68k-elf/m68k-elf/lib/m68000\liblvgl.a(lv_style_gen.o)
 .data          0x000663c8        0x0 C:/SysGCC/m68k-elf/m68k-elf/lib/m68000\liblvgl.a(lv_text.o)
 .data          0x000663c8        0x0 C:/SysGCC/m68k-elf/m68k-elf/lib/m68000\liblvgl.a(lv_theme.o)
 .data          0x000663c8        0x0 C:/SysGCC/m68k-elf/m68k-elf/lib/m68000\liblvgl.a(lv_image.o)
 .data          0x000663c8        0x0 C:/SysGCC/m68k-elf/m68k-elf/lib/m68000\liblvgl.a(lv_draw_buf_convert.o)
 .data          0x000663c8        0x0 C:/SysGCC/m68k-elf/m68k-elf/lib/m68000\liblvgl.a(lv_draw_sw_blend.o)
 .data          0x000663c8        0x0 C:/SysGCC/m68k-elf/m68k-elf/lib/m68000\liblvgl.a(lv_draw_sw_blend_to_a8.o)
 .data          0x000663c8        0x0 C:/SysGCC/m68k-elf/m68k-elf/lib/m68000\liblvgl.a(lv_draw_sw_blend_to_al88.o)
 .data          0x000663c8        0x0 C:/SysGCC/m68k-elf/m68k-elf/lib/m68000\liblvgl.a(lv_draw_sw_blend_to_argb8888.o)
 .data          0x000663c8        0x0 C:/SysGCC/m68k-elf/m68k-elf/lib/m68000\liblvgl.a(lv_draw_sw_blend_to_argb8888_premultiplied.o)
 .data          0x000663c8        0x0 C:/SysGCC/m68k-elf/m68k-elf/lib/m68000\liblvgl.a(lv_draw_sw_blend_to_i1.o)
 .data          0x000663c8        0x0 C:/SysGCC/m68k-elf/m68k-elf/lib/m68000\liblvgl.a(lv_draw_sw_blend_to_l8.o)
 .data          0x000663c8        0x0 C:/SysGCC/m68k-elf/m68k-elf/lib/m68000\liblvgl.a(lv_draw_sw_blend_to_rgb565.o)
 .data          0x000663c8        0x0 C:/SysGCC/m68k-elf/m68k-elf/lib/m68000\liblvgl.a(lv_draw_sw_blend_to_rgb565_swapped.o)
 .data          0x000663c8        0x0 C:/SysGCC/m68k-elf/m68k-elf/lib/m68000\liblvgl.a(lv_draw_sw_blend_to_rgb888.o)
 .data          0x000663c8        0x0 C:/SysGCC/m68k-elf/m68k-elf/lib/m68000\liblvgl.a(lv_draw_sw_utils.o)
 .data          0x000663c8        0x0 C:/SysGCC/m68k-elf/m68k-elf/lib/m68000\liblvgl.a(lv_font_fmt_txt.o)
 .data          0x000663c8        0x0 C:/SysGCC/m68k-elf/m68k-elf/lib/m68000\liblvgl.a(lv_grid.o)
 .data          0x000663c8        0x0 C:/SysGCC/m68k-elf/m68k-elf/lib/m68000\liblvgl.a(lv_cache_lru_rb.o)
 .data          0x000663c8        0x0 C:/SysGCC/m68k-elf/m68k-elf/lib/m68000\liblvgl.a(lv_array.o)
 .data          0x000663c8        0x0 C:/SysGCC/m68k-elf/m68k-elf/lib/m68000\liblvgl.a(lv_circle_buf.o)
 .data          0x000663c8        0x0 C:/SysGCC/m68k-elf/m68k-elf/lib/m68000\liblvgl.a(lv_rb.o)
 .data          0x000663c8        0x0 C:/SysGCC/m68k-elf/m68k-elf/lib/m68000\liblvgl.a(lv_utils.o)
 .data          0x000663c8        0x0 c:/sysgcc/m68k-elf/bin/../lib/gcc/m68k-elf/4.8.0/m68000\libgcc.a(_mulsi3.o)
 .data          0x000663c8        0x0 c:/sysgcc/m68k-elf/bin/../lib/gcc/m68k-elf/4.8.0/m68000\libgcc.a(_udivsi3.o)
 .data          0x000663c8        0x0 c:/sysgcc/m68k-elf/bin/../lib/gcc/m68k-elf/4.8.0/m68000\libgcc.a(_divsi3.o)
 .data          0x000663c8        0x0 c:/sysgcc/m68k-elf/bin/../lib/gcc/m68k-elf/4.8.0/m68000\libgcc.a(_umodsi3.o)
 .data          0x000663c8        0x0 c:/sysgcc/m68k-elf/bin/../lib/gcc/m68k-elf/4.8.0/m68000\libgcc.a(_modsi3.o)
 .data          0x000663c8        0x0 c:/sysgcc/m68k-elf/bin/../lib/gcc/m68k-elf/4.8.0/m68000\libgcc.a(_muldi3.o)
 .data          0x000663c8        0x0 c:/sysgcc/m68k-elf/bin/../lib/gcc/m68k-elf/4.8.0/m68000\libgcc.a(_ffssi2.o)
 .data          0x000663c8        0x0 c:/sysgcc/m68k-elf/bin/../lib/gcc/m68k-elf/4.8.0/m68000\libgcc.a(_clz.o)
 .data          0x000663c8        0x0 c:/sysgcc/m68k-elf/bin/../lib/gcc/m68k-elf/4.8.0/m68000\libgcc.a(_clzsi2.o)
 .data          0x000663c8        0x0 c:/sysgcc/m68k-elf/bin/../lib/gcc/m68k-elf/4.8.0/m68000\libgcc.a(_divdi3.o)
 .data          0x000663c8        0x0 c:/sysgcc/m68k-elf/bin/../lib/gcc/m68k-elf/4.8.0/m68000\libgcc.a(_udivdi3.o)
 .data          0x000663c8        0x0 c:/sysgcc/m68k-elf/bin/../lib/gcc/m68k-elf/4.8.0/m68000\libgcc.a(_umoddi3.o)
 .data          0x000663c8        0x4 C:/SysGCC/m68k-elf/m68k-elf/lib/m68000\libc.a(lib_a-environ.o)
                0x000663c8                environ
 .data          0x000663cc        0x0 C:/SysGCC/m68k-elf/m68k-elf/lib/m68000\libc.a(lib_a-findfp.o)
 .data          0x000663cc        0x0 C:/SysGCC/m68k-elf/m68k-elf/lib/m68000\libc.a(lib_a-fwalk.o)
 .data          0x000663cc        0x0 C:/SysGCC/m68k-elf/m68k-elf/lib/m68000\libc.a(lib_a-getenv.o)
 .data          0x000663cc        0x0 C:/SysGCC/m68k-elf/m68k-elf/lib/m68000\libc.a(lib_a-getenv_r.o)
 .data          0x000663cc      0x426 C:/SysGCC/m68k-elf/m68k-elf/lib/m68000\libc.a(lib_a-impure.o)
                0x000663cc                _impure_ptr
 *fill*         0x000667f2        0x2 
 .data          0x000667f4      0x410 C:/SysGCC/m68k-elf/m68k-elf/lib/m68000\libc.a(lib_a-mallocr.o)
                0x000667f4                __malloc_sbrk_base
                0x000667f8                __malloc_trim_threshold
                0x000667fc                __malloc_av_
 .data          0x00066c04        0x0 C:/SysGCC/m68k-elf/m68k-elf/lib/m68000\libc.a(lib_a-memcpy.o)
 .data          0x00066c04        0x0 C:/SysGCC/m68k-elf/m68k-elf/lib/m68000\libc.a(lib_a-memset.o)
 .data          0x00066c04        0x0 C:/SysGCC/m68k-elf/m68k-elf/lib/m68000\libc.a(lib_a-mlock.o)
 .data          0x00066c04        0x0 C:/SysGCC/m68k-elf/m68k-elf/lib/m68000\libc.a(lib_a-printf.o)
 .data          0x00066c04        0x0 C:/SysGCC/m68k-elf/m68k-elf/lib/m68000\libc.a(lib_a-puts.o)
 .data          0x00066c04        0x0 C:/SysGCC/m68k-elf/m68k-elf/lib/m68000\libc.a(lib_a-sbrkr.o)
 .data          0x00066c04        0x0 C:/SysGCC/m68k-elf/m68k-elf/lib/m68000\libc.a(lib_a-stdio.o)
 .data          0x00066c04        0x0 C:/SysGCC/m68k-elf/m68k-elf/lib/m68000\libc.a(lib_a-strlen.o)
 .data          0x00066c04        0x0 C:/SysGCC/m68k-elf/m68k-elf/lib/m68000\libc.a(lib_a-strncmp.o)
 .data          0x00066c04        0x0 C:/SysGCC/m68k-elf/m68k-elf/lib/m68000\libc.a(lib_a-vfprintf.o)
 .data          0x00066c04        0x0 C:/SysGCC/m68k-elf/m68k-elf/lib/m68000\libc.a(lib_a-writer.o)
 .data          0x00066c04        0x0 C:/SysGCC/m68k-elf/m68k-elf/lib/m68000\libc.a(lib_a-wsetup.o)
 .data          0x00066c04        0x0 C:/SysGCC/m68k-elf/m68k-elf/lib/m68000\libc.a(lib_a-closer.o)
 .data          0x00066c04        0x0 C:/SysGCC/m68k-elf/m68k-elf/lib/m68000\libc.a(lib_a-dtoa.o)
 .data          0x00066c04        0x0 C:/SysGCC/m68k-elf/m68k-elf/lib/m68000\libc.a(lib_a-envlock.o)
 .data          0x00066c04        0x0 C:/SysGCC/m68k-elf/m68k-elf/lib/m68000\libc.a(lib_a-fclose.o)
 .data          0x00066c04        0x0 C:/SysGCC/m68k-elf/m68k-elf/lib/m68000\libc.a(lib_a-fflush.o)
 .data          0x00066c04        0x0 C:/SysGCC/m68k-elf/m68k-elf/lib/m68000\libc.a(lib_a-freer.o)
 .data          0x00066c04        0x0 C:/SysGCC/m68k-elf/m68k-elf/lib/m68000\libc.a(lib_a-fvwrite.o)
 .data          0x00066c04       0x7a C:/SysGCC/m68k-elf/m68k-elf/lib/m68000\libc.a(lib_a-locale.o)
                0x00066c7a                __mb_cur_max
 *fill*         0x00066c7e        0x2 
 .data          0x00066c80        0x0 C:/SysGCC/m68k-elf/m68k-elf/lib/m68000\libc.a(lib_a-lseekr.o)
 .data          0x00066c80        0x0 C:/SysGCC/m68k-elf/m68k-elf/lib/m68000\libc.a(lib_a-makebuf.o)
 .data          0x00066c80        0x0 C:/SysGCC/m68k-elf/m68k-elf/lib/m68000\libc.a(lib_a-memchr.o)
 .data          0x00066c80        0x0 C:/SysGCC/m68k-elf/m68k-elf/lib/m68000\libc.a(lib_a-memmove.o)
 .data          0x00066c80        0x0 C:/SysGCC/m68k-elf/m68k-elf/lib/m68000\libc.a(lib_a-mprec.o)
 .data          0x00066c80        0x0 C:/SysGCC/m68k-elf/m68k-elf/lib/m68000\libc.a(lib_a-readr.o)
 .data          0x00066c80        0x0 C:/SysGCC/m68k-elf/m68k-elf/lib/m68000\libc.a(lib_a-reallocr.o)
 .data          0x00066c80        0x0 C:/SysGCC/m68k-elf/m68k-elf/lib/m68000\libc.a(lib_a-s_fpclassify.o)
 .data          0x00066c80        0x0 C:/SysGCC/m68k-elf/m68k-elf/lib/m68000\libc.a(lib_a-strcmp.o)
 .data          0x00066c80        0x0 C:/SysGCC/m68k-elf/m68k-elf/lib/m68000\libc.a(lib_a-vfiprintf.o)
 .data          0x00066c80        0x0 C:/SysGCC/m68k-elf/m68k-elf/lib/m68000\libc.a(lib_a-callocr.o)
 .data          0x00066c80        0x0 C:/SysGCC/m68k-elf/m68k-elf/lib/m68000\libc.a(lib_a-fputwc.o)
 .data          0x00066c80        0x0 C:/SysGCC/m68k-elf/m68k-elf/lib/m68000\libc.a(lib_a-fstatr.o)
 .data          0x00066c80        0x0 C:/SysGCC/m68k-elf/m68k-elf/lib/m68000\libc.a(lib_a-isattyr.o)
 .data          0x00066c80        0x0 C:/SysGCC/m68k-elf/m68k-elf/lib/m68000\libc.a(lib_a-wbuf.o)
 .data          0x00066c80        0x0 C:/SysGCC/m68k-elf/m68k-elf/lib/m68000\libc.a(lib_a-wcrtomb.o)
 .data          0x00066c80        0x4 C:/SysGCC/m68k-elf/m68k-elf/lib/m68000\libc.a(lib_a-wctomb_r.o)
                0x00066c80                __wctomb
 .data          0x00066c84        0x0 c:/sysgcc/m68k-elf/bin/../lib/gcc/m68k-elf/4.8.0/m68000\libgcc.a(_double.o)
 .data          0x00066c84       0x1c c:/sysgcc/m68k-elf/bin/../lib/gcc/m68k-elf/4.8.0/m68000\libgcc.a(_floatex.o)
                0x00066c84                _fpCCR
 .data          0x00066ca0        0x0 c:/sysgcc/m68k-elf/bin/../lib/gcc/m68k-elf/4.8.0/m68000\libgcc.a(_eqdf2.o)
 .data          0x00066ca0        0x0 c:/sysgcc/m68k-elf/bin/../lib/gcc/m68k-elf/4.8.0/m68000\libgcc.a(_nedf2.o)
 .data          0x00066ca0        0x0 c:/sysgcc/m68k-elf/bin/../lib/gcc/m68k-elf/4.8.0/m68000\libgcc.a(_gtdf2.o)
 .data          0x00066ca0        0x0 c:/sysgcc/m68k-elf/bin/../lib/gcc/m68k-elf/4.8.0/m68000\libgcc.a(_gedf2.o)
 .data          0x00066ca0        0x0 c:/sysgcc/m68k-elf/bin/../lib/gcc/m68k-elf/4.8.0/m68000\libgcc.a(_ltdf2.o)
 .data          0x00066ca0        0x0 c:/sysgcc/m68k-elf/bin/../lib/gcc/m68k-elf/4.8.0/m68000\libgcc.a(fpgnulib.o)
 .data          0x00066ca0        0x0 c:/sysgcc/m68k-elf/bin/../lib/gcc/m68k-elf/4.8.0/m68000\libgcc.a(xfgnulib.o)
 .data          0x00066ca0       0x4c C:/SysGCC/m68k-elf/m68k-elf/lib/m68000\libnkc.a(newlib_stubs.o)
                0x00066ca0                _dev1
                0x00066cc4                _device_ary
 .data          0x00066cec        0xc C:/SysGCC/m68k-elf/m68k-elf/lib/m68000\libnkc.a(open.o)
                0x00066cec                _stderr_envname
                0x00066cf0                _stdout_envname
                0x00066cf4                _stdin_envname
 .data          0x00066cf8        0x0 C:/SysGCC/m68k-elf/m68k-elf/lib/m68000\libnkc.a(close.o)
 .data          0x00066cf8        0x0 C:/SysGCC/m68k-elf/m68k-elf/lib/m68000\libnkc.a(isatty.o)
 .data          0x00066cf8        0x0 C:/SysGCC/m68k-elf/m68k-elf/lib/m68000\libnkc.a(lseek.o)
 .data          0x00066cf8        0x0 C:/SysGCC/m68k-elf/m68k-elf/lib/m68000\libnkc.a(read.o)
 .data          0x00066cf8        0x0 C:/SysGCC/m68k-elf/m68k-elf/lib/m68000\libnkc.a(stat.o)
 .data          0x00066cf8        0x0 C:/SysGCC/m68k-elf/m68k-elf/lib/m68000\libnkc.a(write.o)
 .data          0x00066cf8        0x4 C:/SysGCC/m68k-elf/m68k-elf/lib/m68000\libc.a(lib_a-ctype_.o)
                0x00066cf8                __ctype_ptr__
 .data          0x00066cfc        0x0 C:/SysGCC/m68k-elf/m68k-elf/lib/m68000\libc.a(lib_a-errno.o)
 .data          0x00066cfc        0x0 C:/SysGCC/m68k-elf/m68k-elf/lib/m68000\libc.a(lib_a-mktime.o)
 .data          0x00066cfc        0x0 C:/SysGCC/m68k-elf/m68k-elf/lib/m68000\libc.a(lib_a-mktm_r.o)
 .data          0x00066cfc        0x0 C:/SysGCC/m68k-elf/m68k-elf/lib/m68000\libc.a(lib_a-signal.o)
 .data          0x00066cfc        0x0 C:/SysGCC/m68k-elf/m68k-elf/lib/m68000\libc.a(lib_a-signalr.o)
 .data          0x00066cfc        0x0 C:/SysGCC/m68k-elf/m68k-elf/lib/m68000\libc.a(lib_a-tzlock.o)
 .data          0x00066cfc        0x8 C:/SysGCC/m68k-elf/m68k-elf/lib/m68000\libc.a(lib_a-tzvars.o)
                0x00066cfc                _tzname
 .data          0x00066d04        0x0 C:/SysGCC/m68k-elf/m68k-elf/lib/m68000\libc.a(lib_a-div.o)
 .data          0x00066d04       0x3c C:/SysGCC/m68k-elf/m68k-elf/lib/m68000\libc.a(lib_a-gettzinfo.o)
                0x00066d40                _edata = .
                0x00066d40                copy_end = .
                0x00066d40                PROVIDE (copy_end, .)

.bss            0x00066d40      0xc7c
                0x00066d40                . = ALIGN (0x4)
                0x00066d40                __bss_start = .
 *(.shbss)
 *(.bss .bss.*)
 .bss           0x00066d40        0x0 obj/crt0.o
 .bss.stacksave
                0x00066d40        0x4 obj/crt0.o
 .bss.ram_top   0x00066d44        0x4 obj/crt0.o
                0x00066d44                ram_top
 .bss           0x00066d48        0x0 ./obj/lvgl_nkc.o
 .bss.ticks     0x00066d48        0x4 ./obj/lvgl_nkc.o
                0x00066d48                ticks
 .bss           0x00066d4c        0x0 C:/SysGCC/m68k-elf/m68k-elf/lib/m68000\liblvgl.a(lv_tick.o)
 .bss           0x00066d4c        0x0 C:/SysGCC/m68k-elf/m68k-elf/lib/m68000\liblvgl.a(lv_init.o)
 .bss           0x00066d4c        0x0 C:/SysGCC/m68k-elf/m68k-elf/lib/m68000\liblvgl.a(lv_anim.o)
 .bss           0x00066d4c        0x0 C:/SysGCC/m68k-elf/m68k-elf/lib/m68000\liblvgl.a(lv_fs.o)
 .bss           0x00066d4c        0x0 C:/SysGCC/m68k-elf/m68k-elf/lib/m68000\liblvgl.a(lv_ll.o)
 .bss           0x00066d4c        0x0 C:/SysGCC/m68k-elf/m68k-elf/lib/m68000\liblvgl.a(lv_math.o)
 .bss           0x00066d4c        0x0 C:/SysGCC/m68k-elf/m68k-elf/lib/m68000\liblvgl.a(lv_timer.o)
 .bss.last_tick.8079
                0x00066d4c        0x4 C:/SysGCC/m68k-elf/m68k-elf/lib/m68000\liblvgl.a(lv_timer.o)
 .bss           0x00066d50        0x0 C:/SysGCC/m68k-elf/m68k-elf/lib/m68000\liblvgl.a(lv_os.o)
 .bss           0x00066d50        0x0 C:/SysGCC/m68k-elf/m68k-elf/lib/m68000\liblvgl.a(lv_mem_core_builtin.o)
 .bss           0x00066d50        0x0 C:/SysGCC/m68k-elf/m68k-elf/lib/m68000\liblvgl.a(lv_sprintf_builtin.o)
 .bss           0x00066d50        0x0 C:/SysGCC/m68k-elf/m68k-elf/lib/m68000\liblvgl.a(lv_string_builtin.o)
 .bss           0x00066d50        0x0 C:/SysGCC/m68k-elf/m68k-elf/lib/m68000\liblvgl.a(lv_tlsf.o)
 .bss           0x00066d50        0x0 C:/SysGCC/m68k-elf/m68k-elf/lib/m68000\liblvgl.a(lv_mem.o)
 .bss           0x00066d50        0x0 C:/SysGCC/m68k-elf/m68k-elf/lib/m68000\liblvgl.a(lv_theme_mono.o)
 .bss           0x00066d50        0x0 C:/SysGCC/m68k-elf/m68k-elf/lib/m68000\liblvgl.a(lv_theme_simple.o)
 .bss           0x00066d50        0x0 C:/SysGCC/m68k-elf/m68k-elf/lib/m68000\liblvgl.a(lv_arc.o)
 .bss           0x00066d50        0x0 C:/SysGCC/m68k-elf/m68k-elf/lib/m68000\liblvgl.a(lv_bar.o)
 .bss           0x00066d50        0x0 C:/SysGCC/m68k-elf/m68k-elf/lib/m68000\liblvgl.a(lv_button.o)
 .bss           0x00066d50        0x0 C:/SysGCC/m68k-elf/m68k-elf/lib/m68000\liblvgl.a(lv_buttonmatrix.o)
 .bss           0x00066d50        0x0 C:/SysGCC/m68k-elf/m68k-elf/lib/m68000\liblvgl.a(lv_calendar.o)
 .bss           0x00066d50        0x0 C:/SysGCC/m68k-elf/m68k-elf/lib/m68000\liblvgl.a(lv_chart.o)
 .bss           0x00066d50        0x0 C:/SysGCC/m68k-elf/m68k-elf/lib/m68000\liblvgl.a(lv_checkbox.o)
 .bss           0x00066d50        0x0 C:/SysGCC/m68k-elf/m68k-elf/lib/m68000\liblvgl.a(lv_dropdown.o)
 .bss           0x00066d50        0x0 C:/SysGCC/m68k-elf/m68k-elf/lib/m68000\liblvgl.a(lv_keyboard.o)
 .bss           0x00066d50        0x0 C:/SysGCC/m68k-elf/m68k-elf/lib/m68000\liblvgl.a(lv_label.o)
 .bss           0x00066d50        0x0 C:/SysGCC/m68k-elf/m68k-elf/lib/m68000\liblvgl.a(lv_led.o)
 .bss           0x00066d50        0x0 C:/SysGCC/m68k-elf/m68k-elf/lib/m68000\liblvgl.a(lv_list.o)
 .bss           0x00066d50        0x0 C:/SysGCC/m68k-elf/m68k-elf/lib/m68000\liblvgl.a(lv_msgbox.o)
 .bss           0x00066d50        0x0 C:/SysGCC/m68k-elf/m68k-elf/lib/m68000\liblvgl.a(lv_roller.o)
 .bss           0x00066d50        0x0 C:/SysGCC/m68k-elf/m68k-elf/lib/m68000\liblvgl.a(lv_slider.o)
 .bss           0x00066d50        0x0 C:/SysGCC/m68k-elf/m68k-elf/lib/m68000\liblvgl.a(lv_span.o)
 .bss           0x00066d50        0x0 C:/SysGCC/m68k-elf/m68k-elf/lib/m68000\liblvgl.a(lv_spinbox.o)
 .bss           0x00066d50        0x0 C:/SysGCC/m68k-elf/m68k-elf/lib/m68000\liblvgl.a(lv_spinner.o)
 .bss           0x00066d50        0x0 C:/SysGCC/m68k-elf/m68k-elf/lib/m68000\liblvgl.a(lv_switch.o)
 .bss           0x00066d50        0x0 C:/SysGCC/m68k-elf/m68k-elf/lib/m68000\liblvgl.a(lv_table.o)
 .bss           0x00066d50        0x0 C:/SysGCC/m68k-elf/m68k-elf/lib/m68000\liblvgl.a(lv_tabview.o)
 .bss           0x00066d50        0x0 C:/SysGCC/m68k-elf/m68k-elf/lib/m68000\liblvgl.a(lv_textarea.o)
 .bss.ta_insert_replace
                0x00066d50        0x4 C:/SysGCC/m68k-elf/m68k-elf/lib/m68000\liblvgl.a(lv_textarea.o)
 .bss           0x00066d54        0x0 C:/SysGCC/m68k-elf/m68k-elf/lib/m68000\liblvgl.a(lv_tileview.o)
 .bss           0x00066d54        0x0 C:/SysGCC/m68k-elf/m68k-elf/lib/m68000\liblvgl.a(lv_win.o)
 .bss           0x00066d54        0x0 C:/SysGCC/m68k-elf/m68k-elf/lib/m68000\liblvgl.a(lv_group.o)
 .bss           0x00066d54        0x0 C:/SysGCC/m68k-elf/m68k-elf/lib/m68000\liblvgl.a(lv_obj.o)
 .bss           0x00066d54        0x0 C:/SysGCC/m68k-elf/m68k-elf/lib/m68000\liblvgl.a(lv_obj_class.o)
 .bss           0x00066d54        0x0 C:/SysGCC/m68k-elf/m68k-elf/lib/m68000\liblvgl.a(lv_obj_draw.o)
 .bss           0x00066d54        0x0 C:/SysGCC/m68k-elf/m68k-elf/lib/m68000\liblvgl.a(lv_obj_event.o)
 .bss           0x00066d54        0x0 C:/SysGCC/m68k-elf/m68k-elf/lib/m68000\liblvgl.a(lv_obj_pos.o)
 .bss           0x00066d54        0x0 C:/SysGCC/m68k-elf/m68k-elf/lib/m68000\liblvgl.a(lv_obj_scroll.o)
 .bss           0x00066d54        0x0 C:/SysGCC/m68k-elf/m68k-elf/lib/m68000\liblvgl.a(lv_obj_style.o)
 .bss           0x00066d54        0x0 C:/SysGCC/m68k-elf/m68k-elf/lib/m68000\liblvgl.a(lv_obj_style_gen.o)
 .bss           0x00066d54        0x0 C:/SysGCC/m68k-elf/m68k-elf/lib/m68000\liblvgl.a(lv_obj_tree.o)
 .bss           0x00066d54        0x0 C:/SysGCC/m68k-elf/m68k-elf/lib/m68000\liblvgl.a(lv_observer.o)
 .bss           0x00066d54        0x0 C:/SysGCC/m68k-elf/m68k-elf/lib/m68000\liblvgl.a(lv_refr.o)
 .bss           0x00066d54        0x0 C:/SysGCC/m68k-elf/m68k-elf/lib/m68000\liblvgl.a(lv_display.o)
 .bss           0x00066d54        0x0 C:/SysGCC/m68k-elf/m68k-elf/lib/m68000\liblvgl.a(lv_draw.o)
 .bss           0x00066d54        0x0 C:/SysGCC/m68k-elf/m68k-elf/lib/m68000\liblvgl.a(lv_draw_arc.o)
 .bss           0x00066d54        0x0 C:/SysGCC/m68k-elf/m68k-elf/lib/m68000\liblvgl.a(lv_draw_blur.o)
 .bss           0x00066d54        0x0 C:/SysGCC/m68k-elf/m68k-elf/lib/m68000\liblvgl.a(lv_draw_buf.o)
 .bss           0x00066d54        0x0 C:/SysGCC/m68k-elf/m68k-elf/lib/m68000\liblvgl.a(lv_draw_image.o)
 .bss           0x00066d54        0x0 C:/SysGCC/m68k-elf/m68k-elf/lib/m68000\liblvgl.a(lv_draw_label.o)
 .bss           0x00066d54        0x0 C:/SysGCC/m68k-elf/m68k-elf/lib/m68000\liblvgl.a(lv_draw_line.o)
 .bss           0x00066d54        0x0 C:/SysGCC/m68k-elf/m68k-elf/lib/m68000\liblvgl.a(lv_draw_mask.o)
 .bss           0x00066d54        0x0 C:/SysGCC/m68k-elf/m68k-elf/lib/m68000\liblvgl.a(lv_draw_rect.o)
 .bss           0x00066d54        0x0 C:/SysGCC/m68k-elf/m68k-elf/lib/m68000\liblvgl.a(lv_image_decoder.o)
 .bss           0x00066d54        0x0 C:/SysGCC/m68k-elf/m68k-elf/lib/m68000\liblvgl.a(lv_draw_sw.o)
 .bss           0x00066d54        0x0 C:/SysGCC/m68k-elf/m68k-elf/lib/m68000\liblvgl.a(lv_draw_sw_arc.o)
 .bss           0x00066d54        0x0 C:/SysGCC/m68k-elf/m68k-elf/lib/m68000\liblvgl.a(lv_draw_sw_blur.o)
 .bss           0x00066d54        0x0 C:/SysGCC/m68k-elf/m68k-elf/lib/m68000\liblvgl.a(lv_draw_sw_border.o)
 .bss           0x00066d54        0x0 C:/SysGCC/m68k-elf/m68k-elf/lib/m68000\liblvgl.a(lv_draw_sw_box_shadow.o)
 .bss           0x00066d54        0x0 C:/SysGCC/m68k-elf/m68k-elf/lib/m68000\liblvgl.a(lv_draw_sw_fill.o)
 .bss           0x00066d54        0x0 C:/SysGCC/m68k-elf/m68k-elf/lib/m68000\liblvgl.a(lv_draw_sw_grad.o)
 .bss           0x00066d54        0x0 C:/SysGCC/m68k-elf/m68k-elf/lib/m68000\liblvgl.a(lv_draw_sw_img.o)
 .bss           0x00066d54        0x0 C:/SysGCC/m68k-elf/m68k-elf/lib/m68000\liblvgl.a(lv_draw_sw_letter.o)
 .bss           0x00066d54        0x0 C:/SysGCC/m68k-elf/m68k-elf/lib/m68000\liblvgl.a(lv_draw_sw_line.o)
 .bss           0x00066d54        0x0 C:/SysGCC/m68k-elf/m68k-elf/lib/m68000\liblvgl.a(lv_draw_sw_mask.o)
 .bss           0x00066d54        0x0 C:/SysGCC/m68k-elf/m68k-elf/lib/m68000\liblvgl.a(lv_draw_sw_mask_rect.o)
 .bss           0x00066d54        0x0 C:/SysGCC/m68k-elf/m68k-elf/lib/m68000\liblvgl.a(lv_draw_sw_transform.o)
 .bss           0x00066d54        0x0 C:/SysGCC/m68k-elf/m68k-elf/lib/m68000\liblvgl.a(lv_draw_sw_triangle.o)
 .bss           0x00066d54        0x0 C:/SysGCC/m68k-elf/m68k-elf/lib/m68000\liblvgl.a(lv_font.o)
 .bss           0x00066d54        0x0 C:/SysGCC/m68k-elf/m68k-elf/lib/m68000\liblvgl.a(lv_font_montserrat_12.o)
 .bss           0x00066d54        0x0 C:/SysGCC/m68k-elf/m68k-elf/lib/m68000\liblvgl.a(lv_indev.o)
 .bss           0x00066d54        0x0 C:/SysGCC/m68k-elf/m68k-elf/lib/m68000\liblvgl.a(lv_indev_scroll.o)
 .bss           0x00066d54        0x0 C:/SysGCC/m68k-elf/m68k-elf/lib/m68000\liblvgl.a(lv_flex.o)
 .bss           0x00066d54        0x0 C:/SysGCC/m68k-elf/m68k-elf/lib/m68000\liblvgl.a(lv_layout.o)
 .bss           0x00066d54        0x0 C:/SysGCC/m68k-elf/m68k-elf/lib/m68000\liblvgl.a(lv_bin_decoder.o)
 .bss           0x00066d54        0x0 C:/SysGCC/m68k-elf/m68k-elf/lib/m68000\liblvgl.a(lv_image_cache.o)
 .bss           0x00066d54        0x0 C:/SysGCC/m68k-elf/m68k-elf/lib/m68000\liblvgl.a(lv_image_header_cache.o)
 .bss           0x00066d54        0x0 C:/SysGCC/m68k-elf/m68k-elf/lib/m68000\liblvgl.a(lv_cache.o)
 .bss           0x00066d54        0x0 C:/SysGCC/m68k-elf/m68k-elf/lib/m68000\liblvgl.a(lv_cache_entry.o)
 .bss           0x00066d54        0x0 C:/SysGCC/m68k-elf/m68k-elf/lib/m68000\liblvgl.a(lv_anim_timeline.o)
 .bss           0x00066d54        0x0 C:/SysGCC/m68k-elf/m68k-elf/lib/m68000\liblvgl.a(lv_area.o)
 .bss           0x00066d54        0x0 C:/SysGCC/m68k-elf/m68k-elf/lib/m68000\liblvgl.a(lv_async.o)
 .bss           0x00066d54        0x0 C:/SysGCC/m68k-elf/m68k-elf/lib/m68000\liblvgl.a(lv_color.o)
 .bss           0x00066d54        0x0 C:/SysGCC/m68k-elf/m68k-elf/lib/m68000\liblvgl.a(lv_color_op.o)
 .bss           0x00066d54        0x0 C:/SysGCC/m68k-elf/m68k-elf/lib/m68000\liblvgl.a(lv_event.o)
 .bss           0x00066d54        0x0 C:/SysGCC/m68k-elf/m68k-elf/lib/m68000\liblvgl.a(lv_iter.o)
 .bss           0x00066d54        0x0 C:/SysGCC/m68k-elf/m68k-elf/lib/m68000\liblvgl.a(lv_palette.o)
 .bss           0x00066d54        0x0 C:/SysGCC/m68k-elf/m68k-elf/lib/m68000\liblvgl.a(lv_style.o)
 .bss           0x00066d54        0x0 C:/SysGCC/m68k-elf/m68k-elf/lib/m68000\liblvgl.a(lv_style_gen.o)
 .bss           0x00066d54        0x0 C:/SysGCC/m68k-elf/m68k-elf/lib/m68000\liblvgl.a(lv_text.o)
 .bss           0x00066d54        0x0 C:/SysGCC/m68k-elf/m68k-elf/lib/m68000\liblvgl.a(lv_theme.o)
 .bss           0x00066d54        0x0 C:/SysGCC/m68k-elf/m68k-elf/lib/m68000\liblvgl.a(lv_image.o)
 .bss           0x00066d54        0x0 C:/SysGCC/m68k-elf/m68k-elf/lib/m68000\liblvgl.a(lv_draw_buf_convert.o)
 .bss           0x00066d54        0x0 C:/SysGCC/m68k-elf/m68k-elf/lib/m68000\liblvgl.a(lv_draw_sw_blend.o)
 .bss           0x00066d54        0x0 C:/SysGCC/m68k-elf/m68k-elf/lib/m68000\liblvgl.a(lv_draw_sw_blend_to_a8.o)
 .bss           0x00066d54        0x0 C:/SysGCC/m68k-elf/m68k-elf/lib/m68000\liblvgl.a(lv_draw_sw_blend_to_al88.o)
 .bss           0x00066d54        0x0 C:/SysGCC/m68k-elf/m68k-elf/lib/m68000\liblvgl.a(lv_draw_sw_blend_to_argb8888.o)
 .bss           0x00066d54        0x0 C:/SysGCC/m68k-elf/m68k-elf/lib/m68000\liblvgl.a(lv_draw_sw_blend_to_argb8888_premultiplied.o)
 .bss           0x00066d54        0x0 C:/SysGCC/m68k-elf/m68k-elf/lib/m68000\liblvgl.a(lv_draw_sw_blend_to_i1.o)
 .bss           0x00066d54        0x0 C:/SysGCC/m68k-elf/m68k-elf/lib/m68000\liblvgl.a(lv_draw_sw_blend_to_l8.o)
 .bss           0x00066d54        0x0 C:/SysGCC/m68k-elf/m68k-elf/lib/m68000\liblvgl.a(lv_draw_sw_blend_to_rgb565.o)
 .bss           0x00066d54        0x0 C:/SysGCC/m68k-elf/m68k-elf/lib/m68000\liblvgl.a(lv_draw_sw_blend_to_rgb565_swapped.o)
 .bss           0x00066d54        0x0 C:/SysGCC/m68k-elf/m68k-elf/lib/m68000\liblvgl.a(lv_draw_sw_blend_to_rgb888.o)
 .bss           0x00066d54        0x0 C:/SysGCC/m68k-elf/m68k-elf/lib/m68000\liblvgl.a(lv_draw_sw_utils.o)
 .bss           0x00066d54        0x0 C:/SysGCC/m68k-elf/m68k-elf/lib/m68000\liblvgl.a(lv_font_fmt_txt.o)
 .bss           0x00066d54        0x0 C:/SysGCC/m68k-elf/m68k-elf/lib/m68000\liblvgl.a(lv_grid.o)
 .bss           0x00066d54        0x0 C:/SysGCC/m68k-elf/m68k-elf/lib/m68000\liblvgl.a(lv_cache_lru_rb.o)
 .bss           0x00066d54        0x0 C:/SysGCC/m68k-elf/m68k-elf/lib/m68000\liblvgl.a(lv_array.o)
 .bss           0x00066d54        0x0 C:/SysGCC/m68k-elf/m68k-elf/lib/m68000\liblvgl.a(lv_circle_buf.o)
 .bss           0x00066d54        0x0 C:/SysGCC/m68k-elf/m68k-elf/lib/m68000\liblvgl.a(lv_rb.o)
 .bss           0x00066d54        0x0 C:/SysGCC/m68k-elf/m68k-elf/lib/m68000\liblvgl.a(lv_utils.o)
 .bss           0x00066d54        0x0 c:/sysgcc/m68k-elf/bin/../lib/gcc/m68k-elf/4.8.0/m68000\libgcc.a(_mulsi3.o)
 .bss           0x00066d54        0x0 c:/sysgcc/m68k-elf/bin/../lib/gcc/m68k-elf/4.8.0/m68000\libgcc.a(_udivsi3.o)
 .bss           0x00066d54        0x0 c:/sysgcc/m68k-elf/bin/../lib/gcc/m68k-elf/4.8.0/m68000\libgcc.a(_divsi3.o)
 .bss           0x00066d54        0x0 c:/sysgcc/m68k-elf/bin/../lib/gcc/m68k-elf/4.8.0/m68000\libgcc.a(_umodsi3.o)
 .bss           0x00066d54        0x0 c:/sysgcc/m68k-elf/bin/../lib/gcc/m68k-elf/4.8.0/m68000\libgcc.a(_modsi3.o)
 .bss           0x00066d54        0x0 c:/sysgcc/m68k-elf/bin/../lib/gcc/m68k-elf/4.8.0/m68000\libgcc.a(_muldi3.o)
 .bss           0x00066d54        0x0 c:/sysgcc/m68k-elf/bin/../lib/gcc/m68k-elf/4.8.0/m68000\libgcc.a(_ffssi2.o)
 .bss           0x00066d54        0x0 c:/sysgcc/m68k-elf/bin/../lib/gcc/m68k-elf/4.8.0/m68000\libgcc.a(_clz.o)
 .bss           0x00066d54        0x0 c:/sysgcc/m68k-elf/bin/../lib/gcc/m68k-elf/4.8.0/m68000\libgcc.a(_clzsi2.o)
 .bss           0x00066d54        0x0 c:/sysgcc/m68k-elf/bin/../lib/gcc/m68k-elf/4.8.0/m68000\libgcc.a(_divdi3.o)
 .bss           0x00066d54        0x0 c:/sysgcc/m68k-elf/bin/../lib/gcc/m68k-elf/4.8.0/m68000\libgcc.a(_udivdi3.o)
 .bss           0x00066d54        0x0 c:/sysgcc/m68k-elf/bin/../lib/gcc/m68k-elf/4.8.0/m68000\libgcc.a(_umoddi3.o)
 .bss           0x00066d54        0x4 C:/SysGCC/m68k-elf/m68k-elf/lib/m68000\libc.a(lib_a-environ.o)
 .bss           0x00066d58        0x0 C:/SysGCC/m68k-elf/m68k-elf/lib/m68000\libc.a(lib_a-findfp.o)
 .bss           0x00066d58        0x0 C:/SysGCC/m68k-elf/m68k-elf/lib/m68000\libc.a(lib_a-fwalk.o)
 .bss           0x00066d58        0x0 C:/SysGCC/m68k-elf/m68k-elf/lib/m68000\libc.a(lib_a-getenv.o)
 .bss           0x00066d58        0x0 C:/SysGCC/m68k-elf/m68k-elf/lib/m68000\libc.a(lib_a-getenv_r.o)
 .bss           0x00066d58        0x0 C:/SysGCC/m68k-elf/m68k-elf/lib/m68000\libc.a(lib_a-impure.o)
 .bss           0x00066d58       0x34 C:/SysGCC/m68k-elf/m68k-elf/lib/m68000\libc.a(lib_a-mallocr.o)
                0x00066d58                __malloc_current_mallinfo
                0x00066d80                __malloc_max_total_mem
                0x00066d84                __malloc_max_sbrked_mem
                0x00066d88                __malloc_top_pad
 .bss           0x00066d8c        0x0 C:/SysGCC/m68k-elf/m68k-elf/lib/m68000\libc.a(lib_a-memcpy.o)
 .bss           0x00066d8c        0x0 C:/SysGCC/m68k-elf/m68k-elf/lib/m68000\libc.a(lib_a-memset.o)
 .bss           0x00066d8c        0x0 C:/SysGCC/m68k-elf/m68k-elf/lib/m68000\libc.a(lib_a-mlock.o)
 .bss           0x00066d8c        0x0 C:/SysGCC/m68k-elf/m68k-elf/lib/m68000\libc.a(lib_a-printf.o)
 .bss           0x00066d8c        0x0 C:/SysGCC/m68k-elf/m68k-elf/lib/m68000\libc.a(lib_a-puts.o)
 .bss           0x00066d8c        0x0 C:/SysGCC/m68k-elf/m68k-elf/lib/m68000\libc.a(lib_a-sbrkr.o)
 .bss           0x00066d8c        0x0 C:/SysGCC/m68k-elf/m68k-elf/lib/m68000\libc.a(lib_a-stdio.o)
 .bss           0x00066d8c        0x0 C:/SysGCC/m68k-elf/m68k-elf/lib/m68000\libc.a(lib_a-strlen.o)
 .bss           0x00066d8c        0x0 C:/SysGCC/m68k-elf/m68k-elf/lib/m68000\libc.a(lib_a-strncmp.o)
 .bss           0x00066d8c        0x0 C:/SysGCC/m68k-elf/m68k-elf/lib/m68000\libc.a(lib_a-vfprintf.o)
 .bss           0x00066d8c        0x0 C:/SysGCC/m68k-elf/m68k-elf/lib/m68000\libc.a(lib_a-writer.o)
 .bss           0x00066d8c        0x0 C:/SysGCC/m68k-elf/m68k-elf/lib/m68000\libc.a(lib_a-wsetup.o)
 .bss           0x00066d8c        0x0 C:/SysGCC/m68k-elf/m68k-elf/lib/m68000\libc.a(lib_a-closer.o)
 .bss           0x00066d8c        0x0 C:/SysGCC/m68k-elf/m68k-elf/lib/m68000\libc.a(lib_a-dtoa.o)
 .bss           0x00066d8c        0x0 C:/SysGCC/m68k-elf/m68k-elf/lib/m68000\libc.a(lib_a-envlock.o)
 .bss           0x00066d8c        0x0 C:/SysGCC/m68k-elf/m68k-elf/lib/m68000\libc.a(lib_a-fclose.o)
 .bss           0x00066d8c        0x0 C:/SysGCC/m68k-elf/m68k-elf/lib/m68000\libc.a(lib_a-fflush.o)
 .bss           0x00066d8c        0x0 C:/SysGCC/m68k-elf/m68k-elf/lib/m68000\libc.a(lib_a-freer.o)
 .bss           0x00066d8c        0x0 C:/SysGCC/m68k-elf/m68k-elf/lib/m68000\libc.a(lib_a-fvwrite.o)
 .bss           0x00066d8c        0xc C:/SysGCC/m68k-elf/m68k-elf/lib/m68000\libc.a(lib_a-locale.o)
                0x00066d8c                _PathLocale
                0x00066d90                __mlocale_changed
                0x00066d94                __nlocale_changed
 .bss           0x00066d98        0x0 C:/SysGCC/m68k-elf/m68k-elf/lib/m68000\libc.a(lib_a-lseekr.o)
 .bss           0x00066d98        0x0 C:/SysGCC/m68k-elf/m68k-elf/lib/m68000\libc.a(lib_a-makebuf.o)
 .bss           0x00066d98        0x0 C:/SysGCC/m68k-elf/m68k-elf/lib/m68000\libc.a(lib_a-memchr.o)
 .bss           0x00066d98        0x0 C:/SysGCC/m68k-elf/m68k-elf/lib/m68000\libc.a(lib_a-memmove.o)
 .bss           0x00066d98        0x0 C:/SysGCC/m68k-elf/m68k-elf/lib/m68000\libc.a(lib_a-mprec.o)
 .bss           0x00066d98        0x0 C:/SysGCC/m68k-elf/m68k-elf/lib/m68000\libc.a(lib_a-readr.o)
 .bss           0x00066d98        0x0 C:/SysGCC/m68k-elf/m68k-elf/lib/m68000\libc.a(lib_a-reallocr.o)
 .bss           0x00066d98        0x0 C:/SysGCC/m68k-elf/m68k-elf/lib/m68000\libc.a(lib_a-s_fpclassify.o)
 .bss           0x00066d98        0x0 C:/SysGCC/m68k-elf/m68k-elf/lib/m68000\libc.a(lib_a-strcmp.o)
 .bss           0x00066d98        0x0 C:/SysGCC/m68k-elf/m68k-elf/lib/m68000\libc.a(lib_a-vfiprintf.o)
 .bss           0x00066d98        0x0 C:/SysGCC/m68k-elf/m68k-elf/lib/m68000\libc.a(lib_a-callocr.o)
 .bss           0x00066d98        0x0 C:/SysGCC/m68k-elf/m68k-elf/lib/m68000\libc.a(lib_a-fputwc.o)
 .bss           0x00066d98        0x0 C:/SysGCC/m68k-elf/m68k-elf/lib/m68000\libc.a(lib_a-fstatr.o)
 .bss           0x00066d98        0x0 C:/SysGCC/m68k-elf/m68k-elf/lib/m68000\libc.a(lib_a-isattyr.o)
 .bss           0x00066d98        0x0 C:/SysGCC/m68k-elf/m68k-elf/lib/m68000\libc.a(lib_a-wbuf.o)
 .bss           0x00066d98        0x0 C:/SysGCC/m68k-elf/m68k-elf/lib/m68000\libc.a(lib_a-wcrtomb.o)
 .bss           0x00066d98        0x0 C:/SysGCC/m68k-elf/m68k-elf/lib/m68000\libc.a(lib_a-wctomb_r.o)
 .bss           0x00066d98        0x0 c:/sysgcc/m68k-elf/bin/../lib/gcc/m68k-elf/4.8.0/m68000\libgcc.a(_double.o)
 .bss           0x00066d98        0x0 c:/sysgcc/m68k-elf/bin/../lib/gcc/m68k-elf/4.8.0/m68000\libgcc.a(_floatex.o)
 .bss           0x00066d98        0x0 c:/sysgcc/m68k-elf/bin/../lib/gcc/m68k-elf/4.8.0/m68000\libgcc.a(_eqdf2.o)
 .bss           0x00066d98        0x0 c:/sysgcc/m68k-elf/bin/../lib/gcc/m68k-elf/4.8.0/m68000\libgcc.a(_nedf2.o)
 .bss           0x00066d98        0x0 c:/sysgcc/m68k-elf/bin/../lib/gcc/m68k-elf/4.8.0/m68000\libgcc.a(_gtdf2.o)
 .bss           0x00066d98        0x0 c:/sysgcc/m68k-elf/bin/../lib/gcc/m68k-elf/4.8.0/m68000\libgcc.a(_gedf2.o)
 .bss           0x00066d98        0x0 c:/sysgcc/m68k-elf/bin/../lib/gcc/m68k-elf/4.8.0/m68000\libgcc.a(_ltdf2.o)
 .bss           0x00066d98        0x0 c:/sysgcc/m68k-elf/bin/../lib/gcc/m68k-elf/4.8.0/m68000\libgcc.a(fpgnulib.o)
 .bss           0x00066d98        0x0 c:/sysgcc/m68k-elf/bin/../lib/gcc/m68k-elf/4.8.0/m68000\libgcc.a(xfgnulib.o)
 .bss           0x00066d98      0x120 C:/SysGCC/m68k-elf/m68k-elf/lib/m68000\libnkc.a(newlib_stubs.o)
                0x00066d98                _clock_value
                0x00066d9c                _clock_installed
                0x00066d9e                _clock_fu
                0x00066da2                _serexcept_char
                0x00066da4                _serexcept_fu
 .bss           0x00066eb8        0x0 C:/SysGCC/m68k-elf/m68k-elf/lib/m68000\libnkc.a(open.o)
 .bss           0x00066eb8        0x0 C:/SysGCC/m68k-elf/m68k-elf/lib/m68000\libnkc.a(close.o)
 .bss           0x00066eb8        0x0 C:/SysGCC/m68k-elf/m68k-elf/lib/m68000\libnkc.a(isatty.o)
 .bss           0x00066eb8        0x0 C:/SysGCC/m68k-elf/m68k-elf/lib/m68000\libnkc.a(lseek.o)
 .bss           0x00066eb8        0x0 C:/SysGCC/m68k-elf/m68k-elf/lib/m68000\libnkc.a(read.o)
 .bss           0x00066eb8        0x0 C:/SysGCC/m68k-elf/m68k-elf/lib/m68000\libnkc.a(stat.o)
 .bss           0x00066eb8        0x0 C:/SysGCC/m68k-elf/m68k-elf/lib/m68000\libnkc.a(write.o)
 .bss           0x00066eb8        0x0 C:/SysGCC/m68k-elf/m68k-elf/lib/m68000\libc.a(lib_a-ctype_.o)
 .bss           0x00066eb8        0x0 C:/SysGCC/m68k-elf/m68k-elf/lib/m68000\libc.a(lib_a-errno.o)
 .bss           0x00066eb8        0x0 C:/SysGCC/m68k-elf/m68k-elf/lib/m68000\libc.a(lib_a-mktime.o)
 .bss           0x00066eb8        0x0 C:/SysGCC/m68k-elf/m68k-elf/lib/m68000\libc.a(lib_a-mktm_r.o)
 .bss           0x00066eb8        0x0 C:/SysGCC/m68k-elf/m68k-elf/lib/m68000\libc.a(lib_a-signal.o)
 .bss           0x00066eb8        0x0 C:/SysGCC/m68k-elf/m68k-elf/lib/m68000\libc.a(lib_a-signalr.o)
 .bss           0x00066eb8        0x0 C:/SysGCC/m68k-elf/m68k-elf/lib/m68000\libc.a(lib_a-tzlock.o)
 .bss           0x00066eb8        0x8 C:/SysGCC/m68k-elf/m68k-elf/lib/m68000\libc.a(lib_a-tzvars.o)
                0x00066eb8                _timezone
                0x00066ebc                _daylight
 .bss           0x00066ec0        0x0 C:/SysGCC/m68k-elf/m68k-elf/lib/m68000\libc.a(lib_a-div.o)
 .bss           0x00066ec0        0x0 C:/SysGCC/m68k-elf/m68k-elf/lib/m68000\libc.a(lib_a-gettzinfo.o)
 *(COMMON)
 COMMON         0x00066ec0       0x28 obj/crt0.o
                0x00066ec0                args
                0x00066ed4                errno
                0x00066ed8                _static_top
                0x00066edc                AYchannel
                0x00066ee0                _mem_top
                0x00066ee4                AYregister
 COMMON         0x00066ee8      0x1f4 C:/SysGCC/m68k-elf/m68k-elf/lib/m68000\liblvgl.a(lv_init.o)
                0x00066ee8                lv_global
 COMMON         0x000670dc      0x8e0 C:/SysGCC/m68k-elf/m68k-elf/lib/m68000\libnkc.a(open.o)
                0x000670dc                _path
                0x000679c0                _end = ALIGN (0x8)
                0x000679c0                __end = _end

.stab
 *(.stab)

.stabstr
 *(.stabstr)

.interrupt      0x000679bc       0x1c
                0x000679bc                . = ALIGN (0x4)
                0x000679bc                _int_handler_sta = .
 *(.int)
                0x000679bc                _int_end = ALIGN (0x4)
 .interrupt     0x000679bc       0x1c ./obj/lvgl_nkc.o
                0x000679bc                int_handler_func
OUTPUT(_out/lvgl_nkc.elf elf32-m68k)

.comment        0x00000000       0x11
 .comment       0x00000000       0x11 obj/crt0.o
                                 0x12 (size before relaxing)
 .comment       0x00000000       0x12 ./obj/lvgl_nkc.o
 .comment       0x00000000       0x12 C:/SysGCC/m68k-elf/m68k-elf/lib/m68000\liblvgl.a(lv_tick.o)
 .comment       0x00000000       0x12 C:/SysGCC/m68k-elf/m68k-elf/lib/m68000\liblvgl.a(lv_init.o)
 .comment       0x00000000       0x12 C:/SysGCC/m68k-elf/m68k-elf/lib/m68000\liblvgl.a(lv_anim.o)
 .comment       0x00000000       0x12 C:/SysGCC/m68k-elf/m68k-elf/lib/m68000\liblvgl.a(lv_fs.o)
 .comment       0x00000000       0x12 C:/SysGCC/m68k-elf/m68k-elf/lib/m68000\liblvgl.a(lv_ll.o)
 .comment       0x00000000       0x12 C:/SysGCC/m68k-elf/m68k-elf/lib/m68000\liblvgl.a(lv_math.o)
 .comment       0x00000000       0x12 C:/SysGCC/m68k-elf/m68k-elf/lib/m68000\liblvgl.a(lv_timer.o)
 .comment       0x00000000       0x12 C:/SysGCC/m68k-elf/m68k-elf/lib/m68000\liblvgl.a(lv_os.o)
 .comment       0x00000000       0x12 C:/SysGCC/m68k-elf/m68k-elf/lib/m68000\liblvgl.a(lv_mem_core_builtin.o)
 .comment       0x00000000       0x12 C:/SysGCC/m68k-elf/m68k-elf/lib/m68000\liblvgl.a(lv_sprintf_builtin.o)
 .comment       0x00000000       0x12 C:/SysGCC/m68k-elf/m68k-elf/lib/m68000\liblvgl.a(lv_string_builtin.o)
 .comment       0x00000000       0x12 C:/SysGCC/m68k-elf/m68k-elf/lib/m68000\liblvgl.a(lv_tlsf.o)
 .comment       0x00000000       0x12 C:/SysGCC/m68k-elf/m68k-elf/lib/m68000\liblvgl.a(lv_mem.o)
 .comment       0x00000000       0x12 C:/SysGCC/m68k-elf/m68k-elf/lib/m68000\liblvgl.a(lv_theme_mono.o)
 .comment       0x00000000       0x12 C:/SysGCC/m68k-elf/m68k-elf/lib/m68000\liblvgl.a(lv_theme_simple.o)
 .comment       0x00000000       0x12 C:/SysGCC/m68k-elf/m68k-elf/lib/m68000\liblvgl.a(lv_arc.o)
 .comment       0x00000000       0x12 C:/SysGCC/m68k-elf/m68k-elf/lib/m68000\liblvgl.a(lv_bar.o)
 .comment       0x00000000       0x12 C:/SysGCC/m68k-elf/m68k-elf/lib/m68000\liblvgl.a(lv_button.o)
 .comment       0x00000000       0x12 C:/SysGCC/m68k-elf/m68k-elf/lib/m68000\liblvgl.a(lv_buttonmatrix.o)
 .comment       0x00000000       0x12 C:/SysGCC/m68k-elf/m68k-elf/lib/m68000\liblvgl.a(lv_calendar.o)
 .comment       0x00000000       0x12 C:/SysGCC/m68k-elf/m68k-elf/lib/m68000\liblvgl.a(lv_chart.o)
 .comment       0x00000000       0x12 C:/SysGCC/m68k-elf/m68k-elf/lib/m68000\liblvgl.a(lv_checkbox.o)
 .comment       0x00000000       0x12 C:/SysGCC/m68k-elf/m68k-elf/lib/m68000\liblvgl.a(lv_dropdown.o)
 .comment       0x00000000       0x12 C:/SysGCC/m68k-elf/m68k-elf/lib/m68000\liblvgl.a(lv_keyboard.o)
 .comment       0x00000000       0x12 C:/SysGCC/m68k-elf/m68k-elf/lib/m68000\liblvgl.a(lv_label.o)
 .comment       0x00000000       0x12 C:/SysGCC/m68k-elf/m68k-elf/lib/m68000\liblvgl.a(lv_led.o)
 .comment       0x00000000       0x12 C:/SysGCC/m68k-elf/m68k-elf/lib/m68000\liblvgl.a(lv_list.o)
 .comment       0x00000000       0x12 C:/SysGCC/m68k-elf/m68k-elf/lib/m68000\liblvgl.a(lv_msgbox.o)
 .comment       0x00000000       0x12 C:/SysGCC/m68k-elf/m68k-elf/lib/m68000\liblvgl.a(lv_roller.o)
 .comment       0x00000000       0x12 C:/SysGCC/m68k-elf/m68k-elf/lib/m68000\liblvgl.a(lv_slider.o)
 .comment       0x00000000       0x12 C:/SysGCC/m68k-elf/m68k-elf/lib/m68000\liblvgl.a(lv_span.o)
 .comment       0x00000000       0x12 C:/SysGCC/m68k-elf/m68k-elf/lib/m68000\liblvgl.a(lv_spinbox.o)
 .comment       0x00000000       0x12 C:/SysGCC/m68k-elf/m68k-elf/lib/m68000\liblvgl.a(lv_spinner.o)
 .comment       0x00000000       0x12 C:/SysGCC/m68k-elf/m68k-elf/lib/m68000\liblvgl.a(lv_switch.o)
 .comment       0x00000000       0x12 C:/SysGCC/m68k-elf/m68k-elf/lib/m68000\liblvgl.a(lv_table.o)
 .comment       0x00000000       0x12 C:/SysGCC/m68k-elf/m68k-elf/lib/m68000\liblvgl.a(lv_tabview.o)
 .comment       0x00000000       0x12 C:/SysGCC/m68k-elf/m68k-elf/lib/m68000\liblvgl.a(lv_textarea.o)
 .comment       0x00000000       0x12 C:/SysGCC/m68k-elf/m68k-elf/lib/m68000\liblvgl.a(lv_tileview.o)
 .comment       0x00000000       0x12 C:/SysGCC/m68k-elf/m68k-elf/lib/m68000\liblvgl.a(lv_win.o)
 .comment       0x00000000       0x12 C:/SysGCC/m68k-elf/m68k-elf/lib/m68000\liblvgl.a(lv_group.o)
 .comment       0x00000000       0x12 C:/SysGCC/m68k-elf/m68k-elf/lib/m68000\liblvgl.a(lv_obj.o)
 .comment       0x00000000       0x12 C:/SysGCC/m68k-elf/m68k-elf/lib/m68000\liblvgl.a(lv_obj_class.o)
 .comment       0x00000000       0x12 C:/SysGCC/m68k-elf/m68k-elf/lib/m68000\liblvgl.a(lv_obj_draw.o)
 .comment       0x00000000       0x12 C:/SysGCC/m68k-elf/m68k-elf/lib/m68000\liblvgl.a(lv_obj_event.o)
 .comment       0x00000000       0x12 C:/SysGCC/m68k-elf/m68k-elf/lib/m68000\liblvgl.a(lv_obj_pos.o)
 .comment       0x00000000       0x12 C:/SysGCC/m68k-elf/m68k-elf/lib/m68000\liblvgl.a(lv_obj_scroll.o)
 .comment       0x00000000       0x12 C:/SysGCC/m68k-elf/m68k-elf/lib/m68000\liblvgl.a(lv_obj_style.o)
 .comment       0x00000000       0x12 C:/SysGCC/m68k-elf/m68k-elf/lib/m68000\liblvgl.a(lv_obj_style_gen.o)
 .comment       0x00000000       0x12 C:/SysGCC/m68k-elf/m68k-elf/lib/m68000\liblvgl.a(lv_obj_tree.o)
 .comment       0x00000000       0x12 C:/SysGCC/m68k-elf/m68k-elf/lib/m68000\liblvgl.a(lv_observer.o)
 .comment       0x00000000       0x12 C:/SysGCC/m68k-elf/m68k-elf/lib/m68000\liblvgl.a(lv_refr.o)
 .comment       0x00000000       0x12 C:/SysGCC/m68k-elf/m68k-elf/lib/m68000\liblvgl.a(lv_display.o)
 .comment       0x00000000       0x12 C:/SysGCC/m68k-elf/m68k-elf/lib/m68000\liblvgl.a(lv_draw.o)
 .comment       0x00000000       0x12 C:/SysGCC/m68k-elf/m68k-elf/lib/m68000\liblvgl.a(lv_draw_arc.o)
 .comment       0x00000000       0x12 C:/SysGCC/m68k-elf/m68k-elf/lib/m68000\liblvgl.a(lv_draw_blur.o)
 .comment       0x00000000       0x12 C:/SysGCC/m68k-elf/m68k-elf/lib/m68000\liblvgl.a(lv_draw_buf.o)
 .comment       0x00000000       0x12 C:/SysGCC/m68k-elf/m68k-elf/lib/m68000\liblvgl.a(lv_draw_image.o)
 .comment       0x00000000       0x12 C:/SysGCC/m68k-elf/m68k-elf/lib/m68000\liblvgl.a(lv_draw_label.o)
 .comment       0x00000000       0x12 C:/SysGCC/m68k-elf/m68k-elf/lib/m68000\liblvgl.a(lv_draw_line.o)
 .comment       0x00000000       0x12 C:/SysGCC/m68k-elf/m68k-elf/lib/m68000\liblvgl.a(lv_draw_mask.o)
 .comment       0x00000000       0x12 C:/SysGCC/m68k-elf/m68k-elf/lib/m68000\liblvgl.a(lv_draw_rect.o)
 .comment       0x00000000       0x12 C:/SysGCC/m68k-elf/m68k-elf/lib/m68000\liblvgl.a(lv_image_decoder.o)
 .comment       0x00000000       0x12 C:/SysGCC/m68k-elf/m68k-elf/lib/m68000\liblvgl.a(lv_draw_sw.o)
 .comment       0x00000000       0x12 C:/SysGCC/m68k-elf/m68k-elf/lib/m68000\liblvgl.a(lv_draw_sw_arc.o)
 .comment       0x00000000       0x12 C:/SysGCC/m68k-elf/m68k-elf/lib/m68000\liblvgl.a(lv_draw_sw_blur.o)
 .comment       0x00000000       0x12 C:/SysGCC/m68k-elf/m68k-elf/lib/m68000\liblvgl.a(lv_draw_sw_border.o)
 .comment       0x00000000       0x12 C:/SysGCC/m68k-elf/m68k-elf/lib/m68000\liblvgl.a(lv_draw_sw_box_shadow.o)
 .comment       0x00000000       0x12 C:/SysGCC/m68k-elf/m68k-elf/lib/m68000\liblvgl.a(lv_draw_sw_fill.o)
 .comment       0x00000000       0x12 C:/SysGCC/m68k-elf/m68k-elf/lib/m68000\liblvgl.a(lv_draw_sw_grad.o)
 .comment       0x00000000       0x12 C:/SysGCC/m68k-elf/m68k-elf/lib/m68000\liblvgl.a(lv_draw_sw_img.o)
 .comment       0x00000000       0x12 C:/SysGCC/m68k-elf/m68k-elf/lib/m68000\liblvgl.a(lv_draw_sw_letter.o)
 .comment       0x00000000       0x12 C:/SysGCC/m68k-elf/m68k-elf/lib/m68000\liblvgl.a(lv_draw_sw_line.o)
 .comment       0x00000000       0x12 C:/SysGCC/m68k-elf/m68k-elf/lib/m68000\liblvgl.a(lv_draw_sw_mask.o)
 .comment       0x00000000       0x12 C:/SysGCC/m68k-elf/m68k-elf/lib/m68000\liblvgl.a(lv_draw_sw_mask_rect.o)
 .comment       0x00000000       0x12 C:/SysGCC/m68k-elf/m68k-elf/lib/m68000\liblvgl.a(lv_draw_sw_transform.o)
 .comment       0x00000000       0x12 C:/SysGCC/m68k-elf/m68k-elf/lib/m68000\liblvgl.a(lv_draw_sw_triangle.o)
 .comment       0x00000000       0x12 C:/SysGCC/m68k-elf/m68k-elf/lib/m68000\liblvgl.a(lv_font.o)
 .comment       0x00000000       0x12 C:/SysGCC/m68k-elf/m68k-elf/lib/m68000\liblvgl.a(lv_font_montserrat_12.o)
 .comment       0x00000000       0x12 C:/SysGCC/m68k-elf/m68k-elf/lib/m68000\liblvgl.a(lv_indev.o)
 .comment       0x00000000       0x12 C:/SysGCC/m68k-elf/m68k-elf/lib/m68000\liblvgl.a(lv_indev_scroll.o)
 .comment       0x00000000       0x12 C:/SysGCC/m68k-elf/m68k-elf/lib/m68000\liblvgl.a(lv_flex.o)
 .comment       0x00000000       0x12 C:/SysGCC/m68k-elf/m68k-elf/lib/m68000\liblvgl.a(lv_layout.o)
 .comment       0x00000000       0x12 C:/SysGCC/m68k-elf/m68k-elf/lib/m68000\liblvgl.a(lv_bin_decoder.o)
 .comment       0x00000000       0x12 C:/SysGCC/m68k-elf/m68k-elf/lib/m68000\liblvgl.a(lv_image_cache.o)
 .comment       0x00000000       0x12 C:/SysGCC/m68k-elf/m68k-elf/lib/m68000\liblvgl.a(lv_image_header_cache.o)
 .comment       0x00000000       0x12 C:/SysGCC/m68k-elf/m68k-elf/lib/m68000\liblvgl.a(lv_cache.o)
 .comment       0x00000000       0x12 C:/SysGCC/m68k-elf/m68k-elf/lib/m68000\liblvgl.a(lv_cache_entry.o)
 .comment       0x00000000       0x12 C:/SysGCC/m68k-elf/m68k-elf/lib/m68000\liblvgl.a(lv_anim_timeline.o)
 .comment       0x00000000       0x12 C:/SysGCC/m68k-elf/m68k-elf/lib/m68000\liblvgl.a(lv_area.o)
 .comment       0x00000000       0x12 C:/SysGCC/m68k-elf/m68k-elf/lib/m68000\liblvgl.a(lv_async.o)
 .comment       0x00000000       0x12 C:/SysGCC/m68k-elf/m68k-elf/lib/m68000\liblvgl.a(lv_color.o)
 .comment       0x00000000       0x12 C:/SysGCC/m68k-elf/m68k-elf/lib/m68000\liblvgl.a(lv_color_op.o)
 .comment       0x00000000       0x12 C:/SysGCC/m68k-elf/m68k-elf/lib/m68000\liblvgl.a(lv_event.o)
 .comment       0x00000000       0x12 C:/SysGCC/m68k-elf/m68k-elf/lib/m68000\liblvgl.a(lv_iter.o)
 .comment       0x00000000       0x12 C:/SysGCC/m68k-elf/m68k-elf/lib/m68000\liblvgl.a(lv_palette.o)
 .comment       0x00000000       0x12 C:/SysGCC/m68k-elf/m68k-elf/lib/m68000\liblvgl.a(lv_style.o)
 .comment       0x00000000       0x12 C:/SysGCC/m68k-elf/m68k-elf/lib/m68000\liblvgl.a(lv_style_gen.o)
 .comment       0x00000000       0x12 C:/SysGCC/m68k-elf/m68k-elf/lib/m68000\liblvgl.a(lv_text.o)
 .comment       0x00000000       0x12 C:/SysGCC/m68k-elf/m68k-elf/lib/m68000\liblvgl.a(lv_theme.o)
 .comment       0x00000000       0x12 C:/SysGCC/m68k-elf/m68k-elf/lib/m68000\liblvgl.a(lv_image.o)
 .comment       0x00000000       0x12 C:/SysGCC/m68k-elf/m68k-elf/lib/m68000\liblvgl.a(lv_draw_buf_convert.o)
 .comment       0x00000000       0x12 C:/SysGCC/m68k-elf/m68k-elf/lib/m68000\liblvgl.a(lv_draw_sw_blend.o)
 .comment       0x00000000       0x12 C:/SysGCC/m68k-elf/m68k-elf/lib/m68000\liblvgl.a(lv_draw_sw_blend_to_a8.o)
 .comment       0x00000000       0x12 C:/SysGCC/m68k-elf/m68k-elf/lib/m68000\liblvgl.a(lv_draw_sw_blend_to_al88.o)
 .comment       0x00000000       0x12 C:/SysGCC/m68k-elf/m68k-elf/lib/m68000\liblvgl.a(lv_draw_sw_blend_to_argb8888.o)
 .comment       0x00000000       0x12 C:/SysGCC/m68k-elf/m68k-elf/lib/m68000\liblvgl.a(lv_draw_sw_blend_to_argb8888_premultiplied.o)
 .comment       0x00000000       0x12 C:/SysGCC/m68k-elf/m68k-elf/lib/m68000\liblvgl.a(lv_draw_sw_blend_to_i1.o)
 .comment       0x00000000       0x12 C:/SysGCC/m68k-elf/m68k-elf/lib/m68000\liblvgl.a(lv_draw_sw_blend_to_l8.o)
 .comment       0x00000000       0x12 C:/SysGCC/m68k-elf/m68k-elf/lib/m68000\liblvgl.a(lv_draw_sw_blend_to_rgb565.o)
 .comment       0x00000000       0x12 C:/SysGCC/m68k-elf/m68k-elf/lib/m68000\liblvgl.a(lv_draw_sw_blend_to_rgb565_swapped.o)
 .comment       0x00000000       0x12 C:/SysGCC/m68k-elf/m68k-elf/lib/m68000\liblvgl.a(lv_draw_sw_blend_to_rgb888.o)
 .comment       0x00000000       0x12 C:/SysGCC/m68k-elf/m68k-elf/lib/m68000\liblvgl.a(lv_draw_sw_utils.o)
 .comment       0x00000000       0x12 C:/SysGCC/m68k-elf/m68k-elf/lib/m68000\liblvgl.a(lv_font_fmt_txt.o)
 .comment       0x00000000       0x12 C:/SysGCC/m68k-elf/m68k-elf/lib/m68000\liblvgl.a(lv_grid.o)
 .comment       0x00000000       0x12 C:/SysGCC/m68k-elf/m68k-elf/lib/m68000\liblvgl.a(lv_cache_lru_rb.o)
 .comment       0x00000000       0x12 C:/SysGCC/m68k-elf/m68k-elf/lib/m68000\liblvgl.a(lv_array.o)
 .comment       0x00000000       0x12 C:/SysGCC/m68k-elf/m68k-elf/lib/m68000\liblvgl.a(lv_circle_buf.o)
 .comment       0x00000000       0x12 C:/SysGCC/m68k-elf/m68k-elf/lib/m68000\liblvgl.a(lv_rb.o)
 .comment       0x00000000       0x12 C:/SysGCC/m68k-elf/m68k-elf/lib/m68000\liblvgl.a(lv_utils.o)
 .comment       0x00000000       0x12 c:/sysgcc/m68k-elf/bin/../lib/gcc/m68k-elf/4.8.0/m68000\libgcc.a(_muldi3.o)
 .comment       0x00000000       0x12 c:/sysgcc/m68k-elf/bin/../lib/gcc/m68k-elf/4.8.0/m68000\libgcc.a(_ffssi2.o)
 .comment       0x00000000       0x12 c:/sysgcc/m68k-elf/bin/../lib/gcc/m68k-elf/4.8.0/m68000\libgcc.a(_clz.o)
 .comment       0x00000000       0x12 c:/sysgcc/m68k-elf/bin/../lib/gcc/m68k-elf/4.8.0/m68000\libgcc.a(_clzsi2.o)
 .comment       0x00000000       0x12 c:/sysgcc/m68k-elf/bin/../lib/gcc/m68k-elf/4.8.0/m68000\libgcc.a(_divdi3.o)
 .comment       0x00000000       0x12 c:/sysgcc/m68k-elf/bin/../lib/gcc/m68k-elf/4.8.0/m68000\libgcc.a(_udivdi3.o)
 .comment       0x00000000       0x12 c:/sysgcc/m68k-elf/bin/../lib/gcc/m68k-elf/4.8.0/m68000\libgcc.a(_umoddi3.o)
 .comment       0x00000000       0x12 C:/SysGCC/m68k-elf/m68k-elf/lib/m68000\libc.a(lib_a-environ.o)
 .comment       0x00000000       0x12 C:/SysGCC/m68k-elf/m68k-elf/lib/m68000\libc.a(lib_a-findfp.o)
 .comment       0x00000000       0x12 C:/SysGCC/m68k-elf/m68k-elf/lib/m68000\libc.a(lib_a-fwalk.o)
 .comment       0x00000000       0x12 C:/SysGCC/m68k-elf/m68k-elf/lib/m68000\libc.a(lib_a-getenv.o)
 .comment       0x00000000       0x12 C:/SysGCC/m68k-elf/m68k-elf/lib/m68000\libc.a(lib_a-getenv_r.o)
 .comment       0x00000000       0x12 C:/SysGCC/m68k-elf/m68k-elf/lib/m68000\libc.a(lib_a-impure.o)
 .comment       0x00000000       0x12 C:/SysGCC/m68k-elf/m68k-elf/lib/m68000\libc.a(lib_a-mallocr.o)
 .comment       0x00000000       0x12 C:/SysGCC/m68k-elf/m68k-elf/lib/m68000\libc.a(lib_a-mlock.o)
 .comment       0x00000000       0x12 C:/SysGCC/m68k-elf/m68k-elf/lib/m68000\libc.a(lib_a-printf.o)
 .comment       0x00000000       0x12 C:/SysGCC/m68k-elf/m68k-elf/lib/m68000\libc.a(lib_a-puts.o)
 .comment       0x00000000       0x12 C:/SysGCC/m68k-elf/m68k-elf/lib/m68000\libc.a(lib_a-sbrkr.o)
 .comment       0x00000000       0x12 C:/SysGCC/m68k-elf/m68k-elf/lib/m68000\libc.a(lib_a-stdio.o)
 .comment       0x00000000       0x12 C:/SysGCC/m68k-elf/m68k-elf/lib/m68000\libc.a(lib_a-strlen.o)
 .comment       0x00000000       0x12 C:/SysGCC/m68k-elf/m68k-elf/lib/m68000\libc.a(lib_a-strncmp.o)
 .comment       0x00000000       0x12 C:/SysGCC/m68k-elf/m68k-elf/lib/m68000\libc.a(lib_a-vfprintf.o)
 .comment       0x00000000       0x12 C:/SysGCC/m68k-elf/m68k-elf/lib/m68000\libc.a(lib_a-writer.o)
 .comment       0x00000000       0x12 C:/SysGCC/m68k-elf/m68k-elf/lib/m68000\libc.a(lib_a-wsetup.o)
 .comment       0x00000000       0x12 C:/SysGCC/m68k-elf/m68k-elf/lib/m68000\libc.a(lib_a-closer.o)
 .comment       0x00000000       0x12 C:/SysGCC/m68k-elf/m68k-elf/lib/m68000\libc.a(lib_a-dtoa.o)
 .comment       0x00000000       0x12 C:/SysGCC/m68k-elf/m68k-elf/lib/m68000\libc.a(lib_a-envlock.o)
 .comment       0x00000000       0x12 C:/SysGCC/m68k-elf/m68k-elf/lib/m68000\libc.a(lib_a-fclose.o)
 .comment       0x00000000       0x12 C:/SysGCC/m68k-elf/m68k-elf/lib/m68000\libc.a(lib_a-fflush.o)
 .comment       0x00000000       0x12 C:/SysGCC/m68k-elf/m68k-elf/lib/m68000\libc.a(lib_a-freer.o)
 .comment       0x00000000       0x12 C:/SysGCC/m68k-elf/m68k-elf/lib/m68000\libc.a(lib_a-fvwrite.o)
 .comment       0x00000000       0x12 C:/SysGCC/m68k-elf/m68k-elf/lib/m68000\libc.a(lib_a-locale.o)
 .comment       0x00000000       0x12 C:/SysGCC/m68k-elf/m68k-elf/lib/m68000\libc.a(lib_a-lseekr.o)
 .comment       0x00000000       0x12 C:/SysGCC/m68k-elf/m68k-elf/lib/m68000\libc.a(lib_a-makebuf.o)
 .comment       0x00000000       0x12 C:/SysGCC/m68k-elf/m68k-elf/lib/m68000\libc.a(lib_a-memchr.o)
 .comment       0x00000000       0x12 C:/SysGCC/m68k-elf/m68k-elf/lib/m68000\libc.a(lib_a-memmove.o)
 .comment       0x00000000       0x12 C:/SysGCC/m68k-elf/m68k-elf/lib/m68000\libc.a(lib_a-mprec.o)
 .comment       0x00000000       0x12 C:/SysGCC/m68k-elf/m68k-elf/lib/m68000\libc.a(lib_a-readr.o)
 .comment       0x00000000       0x12 C:/SysGCC/m68k-elf/m68k-elf/lib/m68000\libc.a(lib_a-reallocr.o)
 .comment       0x00000000       0x12 C:/SysGCC/m68k-elf/m68k-elf/lib/m68000\libc.a(lib_a-s_fpclassify.o)
 .comment       0x00000000       0x12 C:/SysGCC/m68k-elf/m68k-elf/lib/m68000\libc.a(lib_a-strcmp.o)
 .comment       0x00000000       0x12 C:/SysGCC/m68k-elf/m68k-elf/lib/m68000\libc.a(lib_a-vfiprintf.o)
 .comment       0x00000000       0x12 C:/SysGCC/m68k-elf/m68k-elf/lib/m68000\libc.a(lib_a-callocr.o)
 .comment       0x00000000       0x12 C:/SysGCC/m68k-elf/m68k-elf/lib/m68000\libc.a(lib_a-fputwc.o)
 .comment       0x00000000       0x12 C:/SysGCC/m68k-elf/m68k-elf/lib/m68000\libc.a(lib_a-fstatr.o)
 .comment       0x00000000       0x12 C:/SysGCC/m68k-elf/m68k-elf/lib/m68000\libc.a(lib_a-isattyr.o)
 .comment       0x00000000       0x12 C:/SysGCC/m68k-elf/m68k-elf/lib/m68000\libc.a(lib_a-wbuf.o)
 .comment       0x00000000       0x12 C:/SysGCC/m68k-elf/m68k-elf/lib/m68000\libc.a(lib_a-wcrtomb.o)
 .comment       0x00000000       0x12 C:/SysGCC/m68k-elf/m68k-elf/lib/m68000\libc.a(lib_a-wctomb_r.o)
 .comment       0x00000000       0x12 c:/sysgcc/m68k-elf/bin/../lib/gcc/m68k-elf/4.8.0/m68000\libgcc.a(fpgnulib.o)
 .comment       0x00000000       0x12 c:/sysgcc/m68k-elf/bin/../lib/gcc/m68k-elf/4.8.0/m68000\libgcc.a(xfgnulib.o)
 .comment       0x00000000       0x12 C:/SysGCC/m68k-elf/m68k-elf/lib/m68000\libnkc.a(newlib_stubs.o)
 .comment       0x00000000       0x12 C:/SysGCC/m68k-elf/m68k-elf/lib/m68000\libnkc.a(open.o)
 .comment       0x00000000       0x12 C:/SysGCC/m68k-elf/m68k-elf/lib/m68000\libnkc.a(close.o)
 .comment       0x00000000       0x12 C:/SysGCC/m68k-elf/m68k-elf/lib/m68000\libnkc.a(isatty.o)
 .comment       0x00000000       0x12 C:/SysGCC/m68k-elf/m68k-elf/lib/m68000\libnkc.a(lseek.o)
 .comment       0x00000000       0x12 C:/SysGCC/m68k-elf/m68k-elf/lib/m68000\libnkc.a(read.o)
 .comment       0x00000000       0x12 C:/SysGCC/m68k-elf/m68k-elf/lib/m68000\libnkc.a(stat.o)
 .comment       0x00000000       0x12 C:/SysGCC/m68k-elf/m68k-elf/lib/m68000\libnkc.a(write.o)
 .comment       0x00000000       0x12 C:/SysGCC/m68k-elf/m68k-elf/lib/m68000\libc.a(lib_a-ctype_.o)
 .comment       0x00000000       0x12 C:/SysGCC/m68k-elf/m68k-elf/lib/m68000\libc.a(lib_a-errno.o)
 .comment       0x00000000       0x12 C:/SysGCC/m68k-elf/m68k-elf/lib/m68000\libc.a(lib_a-mktime.o)
 .comment       0x00000000       0x12 C:/SysGCC/m68k-elf/m68k-elf/lib/m68000\libc.a(lib_a-mktm_r.o)
 .comment       0x00000000       0x12 C:/SysGCC/m68k-elf/m68k-elf/lib/m68000\libc.a(lib_a-signal.o)
 .comment       0x00000000       0x12 C:/SysGCC/m68k-elf/m68k-elf/lib/m68000\libc.a(lib_a-signalr.o)
 .comment       0x00000000       0x12 C:/SysGCC/m68k-elf/m68k-elf/lib/m68000\libc.a(lib_a-tzlock.o)
 .comment       0x00000000       0x12 C:/SysGCC/m68k-elf/m68k-elf/lib/m68000\libc.a(lib_a-tzvars.o)
 .comment       0x00000000       0x12 C:/SysGCC/m68k-elf/m68k-elf/lib/m68000\libc.a(lib_a-div.o)
 .comment       0x00000000       0x12 C:/SysGCC/m68k-elf/m68k-elf/lib/m68000\libc.a(lib_a-gettzinfo.o)

.debug_line     0x00000000     0x824a
 .debug_line    0x00000000       0x6d c:/sysgcc/m68k-elf/bin/../lib/gcc/m68k-elf/4.8.0/m68000\libgcc.a(_mulsi3.o)
 .debug_line    0x0000006d       0x86 c:/sysgcc/m68k-elf/bin/../lib/gcc/m68k-elf/4.8.0/m68000\libgcc.a(_udivsi3.o)
 .debug_line    0x000000f3       0x75 c:/sysgcc/m68k-elf/bin/../lib/gcc/m68k-elf/4.8.0/m68000\libgcc.a(_divsi3.o)
 .debug_line    0x00000168       0x71 c:/sysgcc/m68k-elf/bin/../lib/gcc/m68k-elf/4.8.0/m68000\libgcc.a(_umodsi3.o)
 .debug_line    0x000001d9       0x71 c:/sysgcc/m68k-elf/bin/../lib/gcc/m68k-elf/4.8.0/m68000\libgcc.a(_modsi3.o)
 .debug_line    0x0000024a       0x69 c:/sysgcc/m68k-elf/bin/../lib/gcc/m68k-elf/4.8.0/m68000\libgcc.a(_muldi3.o)
 .debug_line    0x000002b3       0x88 c:/sysgcc/m68k-elf/bin/../lib/gcc/m68k-elf/4.8.0/m68000\libgcc.a(_ffssi2.o)
 .debug_line    0x0000033b       0x54 c:/sysgcc/m68k-elf/bin/../lib/gcc/m68k-elf/4.8.0/m68000\libgcc.a(_clz.o)
 .debug_line    0x0000038f       0x89 c:/sysgcc/m68k-elf/bin/../lib/gcc/m68k-elf/4.8.0/m68000\libgcc.a(_clzsi2.o)
 .debug_line    0x00000418      0x109 c:/sysgcc/m68k-elf/bin/../lib/gcc/m68k-elf/4.8.0/m68000\libgcc.a(_divdi3.o)
 .debug_line    0x00000521      0x10e c:/sysgcc/m68k-elf/bin/../lib/gcc/m68k-elf/4.8.0/m68000\libgcc.a(_udivdi3.o)
 .debug_line    0x0000062f      0x111 c:/sysgcc/m68k-elf/bin/../lib/gcc/m68k-elf/4.8.0/m68000\libgcc.a(_umoddi3.o)
 .debug_line    0x00000740       0x5c C:/SysGCC/m68k-elf/m68k-elf/lib/m68000\libc.a(lib_a-environ.o)
 .debug_line    0x0000079c      0x24e C:/SysGCC/m68k-elf/m68k-elf/lib/m68000\libc.a(lib_a-findfp.o)
 .debug_line    0x000009ea      0x19d C:/SysGCC/m68k-elf/m68k-elf/lib/m68000\libc.a(lib_a-fwalk.o)
 .debug_line    0x00000b87      0x17b C:/SysGCC/m68k-elf/m68k-elf/lib/m68000\libc.a(lib_a-getenv.o)
 .debug_line    0x00000d02      0x1ab C:/SysGCC/m68k-elf/m68k-elf/lib/m68000\libc.a(lib_a-getenv_r.o)
 .debug_line    0x00000ead      0x12a C:/SysGCC/m68k-elf/m68k-elf/lib/m68000\libc.a(lib_a-impure.o)
 .debug_line    0x00000fd7      0x32d C:/SysGCC/m68k-elf/m68k-elf/lib/m68000\libc.a(lib_a-mallocr.o)
 .debug_line    0x00001304       0x93 C:/SysGCC/m68k-elf/m68k-elf/lib/m68000\libc.a(lib_a-memcpy.o)
 .debug_line    0x00001397       0x97 C:/SysGCC/m68k-elf/m68k-elf/lib/m68000\libc.a(lib_a-memset.o)
 .debug_line    0x0000142e      0x13c C:/SysGCC/m68k-elf/m68k-elf/lib/m68000\libc.a(lib_a-mlock.o)
 .debug_line    0x0000156a      0x183 C:/SysGCC/m68k-elf/m68k-elf/lib/m68000\libc.a(lib_a-printf.o)
 .debug_line    0x000016ed      0x19f C:/SysGCC/m68k-elf/m68k-elf/lib/m68000\libc.a(lib_a-puts.o)
 .debug_line    0x0000188c      0x17a C:/SysGCC/m68k-elf/m68k-elf/lib/m68000\libc.a(lib_a-sbrkr.o)
 .debug_line    0x00001a06      0x1aa C:/SysGCC/m68k-elf/m68k-elf/lib/m68000\libc.a(lib_a-stdio.o)
 .debug_line    0x00001bb0      0x12f C:/SysGCC/m68k-elf/m68k-elf/lib/m68000\libc.a(lib_a-strlen.o)
 .debug_line    0x00001cdf      0x172 C:/SysGCC/m68k-elf/m68k-elf/lib/m68000\libc.a(lib_a-strncmp.o)
 .debug_line    0x00001e51      0x925 C:/SysGCC/m68k-elf/m68k-elf/lib/m68000\libc.a(lib_a-vfprintf.o)
 .debug_line    0x00002776      0x187 C:/SysGCC/m68k-elf/m68k-elf/lib/m68000\libc.a(lib_a-writer.o)
 .debug_line    0x000028fd      0x1f0 C:/SysGCC/m68k-elf/m68k-elf/lib/m68000\libc.a(lib_a-wsetup.o)
 .debug_line    0x00002aed      0x187 C:/SysGCC/m68k-elf/m68k-elf/lib/m68000\libc.a(lib_a-closer.o)
 .debug_line    0x00002c74      0x644 C:/SysGCC/m68k-elf/m68k-elf/lib/m68000\libc.a(lib_a-dtoa.o)
 .debug_line    0x000032b8      0x178 C:/SysGCC/m68k-elf/m68k-elf/lib/m68000\libc.a(lib_a-envlock.o)
 .debug_line    0x00003430      0x1d4 C:/SysGCC/m68k-elf/m68k-elf/lib/m68000\libc.a(lib_a-fclose.o)
 .debug_line    0x00003604      0x241 C:/SysGCC/m68k-elf/m68k-elf/lib/m68000\libc.a(lib_a-fflush.o)
 .debug_line    0x00003845      0x22d C:/SysGCC/m68k-elf/m68k-elf/lib/m68000\libc.a(lib_a-freer.o)
 .debug_line    0x00003a72      0x2b3 C:/SysGCC/m68k-elf/m68k-elf/lib/m68000\libc.a(lib_a-fvwrite.o)
 .debug_line    0x00003d25      0x1ab C:/SysGCC/m68k-elf/m68k-elf/lib/m68000\libc.a(lib_a-locale.o)
 .debug_line    0x00003ed0      0x192 C:/SysGCC/m68k-elf/m68k-elf/lib/m68000\libc.a(lib_a-lseekr.o)
 .debug_line    0x00004062      0x1eb C:/SysGCC/m68k-elf/m68k-elf/lib/m68000\libc.a(lib_a-makebuf.o)
 .debug_line    0x0000424d      0x14f C:/SysGCC/m68k-elf/m68k-elf/lib/m68000\libc.a(lib_a-memchr.o)
 .debug_line    0x0000439c      0x159 C:/SysGCC/m68k-elf/m68k-elf/lib/m68000\libc.a(lib_a-memmove.o)
 .debug_line    0x000044f5      0x502 C:/SysGCC/m68k-elf/m68k-elf/lib/m68000\libc.a(lib_a-mprec.o)
 .debug_line    0x000049f7      0x186 C:/SysGCC/m68k-elf/m68k-elf/lib/m68000\libc.a(lib_a-readr.o)
 .debug_line    0x00004b7d      0x2d2 C:/SysGCC/m68k-elf/m68k-elf/lib/m68000\libc.a(lib_a-reallocr.o)
 .debug_line    0x00004e4f      0x121 C:/SysGCC/m68k-elf/m68k-elf/lib/m68000\libc.a(lib_a-s_fpclassify.o)
 .debug_line    0x00004f70       0xcc C:/SysGCC/m68k-elf/m68k-elf/lib/m68000\libc.a(lib_a-strcmp.o)
 .debug_line    0x0000503c      0x5ce C:/SysGCC/m68k-elf/m68k-elf/lib/m68000\libc.a(lib_a-vfiprintf.o)
 .debug_line    0x0000560a      0x16c C:/SysGCC/m68k-elf/m68k-elf/lib/m68000\libc.a(lib_a-callocr.o)
 .debug_line    0x00005776      0x1e6 C:/SysGCC/m68k-elf/m68k-elf/lib/m68000\libc.a(lib_a-fputwc.o)
 .debug_line    0x0000595c      0x190 C:/SysGCC/m68k-elf/m68k-elf/lib/m68000\libc.a(lib_a-fstatr.o)
 .debug_line    0x00005aec      0x188 C:/SysGCC/m68k-elf/m68k-elf/lib/m68000\libc.a(lib_a-isattyr.o)
 .debug_line    0x00005c74      0x1e4 C:/SysGCC/m68k-elf/m68k-elf/lib/m68000\libc.a(lib_a-wbuf.o)
 .debug_line    0x00005e58      0x1a5 C:/SysGCC/m68k-elf/m68k-elf/lib/m68000\libc.a(lib_a-wcrtomb.o)
 .debug_line    0x00005ffd      0x1a0 C:/SysGCC/m68k-elf/m68k-elf/lib/m68000\libc.a(lib_a-wctomb_r.o)
 .debug_line    0x0000619d      0x3e4 c:/sysgcc/m68k-elf/bin/../lib/gcc/m68k-elf/4.8.0/m68000\libgcc.a(_double.o)
 .debug_line    0x00006581       0x7c c:/sysgcc/m68k-elf/bin/../lib/gcc/m68k-elf/4.8.0/m68000\libgcc.a(_floatex.o)
 .debug_line    0x000065fd       0x6b c:/sysgcc/m68k-elf/bin/../lib/gcc/m68k-elf/4.8.0/m68000\libgcc.a(_eqdf2.o)
 .debug_line    0x00006668       0x6b c:/sysgcc/m68k-elf/bin/../lib/gcc/m68k-elf/4.8.0/m68000\libgcc.a(_nedf2.o)
 .debug_line    0x000066d3       0x6b c:/sysgcc/m68k-elf/bin/../lib/gcc/m68k-elf/4.8.0/m68000\libgcc.a(_gtdf2.o)
 .debug_line    0x0000673e       0x6b c:/sysgcc/m68k-elf/bin/../lib/gcc/m68k-elf/4.8.0/m68000\libgcc.a(_gedf2.o)
 .debug_line    0x000067a9       0x6b c:/sysgcc/m68k-elf/bin/../lib/gcc/m68k-elf/4.8.0/m68000\libgcc.a(_ltdf2.o)
 .debug_line    0x00006814      0x164 c:/sysgcc/m68k-elf/bin/../lib/gcc/m68k-elf/4.8.0/m68000\libgcc.a(fpgnulib.o)
 .debug_line    0x00006978       0xe0 c:/sysgcc/m68k-elf/bin/../lib/gcc/m68k-elf/4.8.0/m68000\libgcc.a(xfgnulib.o)
 .debug_line    0x00006a58      0x425 C:/SysGCC/m68k-elf/m68k-elf/lib/m68000\libnkc.a(newlib_stubs.o)
 .debug_line    0x00006e7d      0x183 C:/SysGCC/m68k-elf/m68k-elf/lib/m68000\libnkc.a(open.o)
 .debug_line    0x00007000       0xc5 C:/SysGCC/m68k-elf/m68k-elf/lib/m68000\libnkc.a(close.o)
 .debug_line    0x000070c5       0xba C:/SysGCC/m68k-elf/m68k-elf/lib/m68000\libnkc.a(isatty.o)
 .debug_line    0x0000717f       0x3f C:/SysGCC/m68k-elf/m68k-elf/lib/m68000\libnkc.a(lseek.o)
 .debug_line    0x000071be      0x1f7 C:/SysGCC/m68k-elf/m68k-elf/lib/m68000\libnkc.a(read.o)
 .debug_line    0x000073b5       0x9c C:/SysGCC/m68k-elf/m68k-elf/lib/m68000\libnkc.a(stat.o)
 .debug_line    0x00007451      0x12a C:/SysGCC/m68k-elf/m68k-elf/lib/m68000\libnkc.a(write.o)
 .debug_line    0x0000757b       0x55 C:/SysGCC/m68k-elf/m68k-elf/lib/m68000\libc.a(lib_a-ctype_.o)
 .debug_line    0x000075d0      0x144 C:/SysGCC/m68k-elf/m68k-elf/lib/m68000\libc.a(lib_a-errno.o)
 .debug_line    0x00007714      0x2a9 C:/SysGCC/m68k-elf/m68k-elf/lib/m68000\libc.a(lib_a-mktime.o)
 .debug_line    0x000079bd      0x289 C:/SysGCC/m68k-elf/m68k-elf/lib/m68000\libc.a(lib_a-mktm_r.o)
 .debug_line    0x00007c46      0x211 C:/SysGCC/m68k-elf/m68k-elf/lib/m68000\libc.a(lib_a-signal.o)
 .debug_line    0x00007e57      0x198 C:/SysGCC/m68k-elf/m68k-elf/lib/m68000\libc.a(lib_a-signalr.o)
 .debug_line    0x00007fef       0x6b C:/SysGCC/m68k-elf/m68k-elf/lib/m68000\libc.a(lib_a-tzlock.o)
 .debug_line    0x0000805a       0x54 C:/SysGCC/m68k-elf/m68k-elf/lib/m68000\libc.a(lib_a-tzvars.o)
 .debug_line    0x000080ae       0xbd C:/SysGCC/m68k-elf/m68k-elf/lib/m68000\libc.a(lib_a-div.o)
 .debug_line    0x0000816b       0xdf C:/SysGCC/m68k-elf/m68k-elf/lib/m68000\libc.a(lib_a-gettzinfo.o)

.debug_info     0x00000000    0x20624
 .debug_info    0x00000000       0xc9 c:/sysgcc/m68k-elf/bin/../lib/gcc/m68k-elf/4.8.0/m68000\libgcc.a(_mulsi3.o)
 .debug_info    0x000000c9       0xc9 c:/sysgcc/m68k-elf/bin/../lib/gcc/m68k-elf/4.8.0/m68000\libgcc.a(_udivsi3.o)
 .debug_info    0x00000192       0xc9 c:/sysgcc/m68k-elf/bin/../lib/gcc/m68k-elf/4.8.0/m68000\libgcc.a(_divsi3.o)
 .debug_info    0x0000025b       0xc9 c:/sysgcc/m68k-elf/bin/../lib/gcc/m68k-elf/4.8.0/m68000\libgcc.a(_umodsi3.o)
 .debug_info    0x00000324       0xc9 c:/sysgcc/m68k-elf/bin/../lib/gcc/m68k-elf/4.8.0/m68000\libgcc.a(_modsi3.o)
 .debug_info    0x000003ed      0x19c c:/sysgcc/m68k-elf/bin/../lib/gcc/m68k-elf/4.8.0/m68000\libgcc.a(_muldi3.o)
 .debug_info    0x00000589      0x15e c:/sysgcc/m68k-elf/bin/../lib/gcc/m68k-elf/4.8.0/m68000\libgcc.a(_ffssi2.o)
 .debug_info    0x000006e7       0xce c:/sysgcc/m68k-elf/bin/../lib/gcc/m68k-elf/4.8.0/m68000\libgcc.a(_clz.o)
 .debug_info    0x000007b5      0x13f c:/sysgcc/m68k-elf/bin/../lib/gcc/m68k-elf/4.8.0/m68000\libgcc.a(_clzsi2.o)
 .debug_info    0x000008f4      0x6c0 c:/sysgcc/m68k-elf/bin/../lib/gcc/m68k-elf/4.8.0/m68000\libgcc.a(_divdi3.o)
 .debug_info    0x00000fb4      0x690 c:/sysgcc/m68k-elf/bin/../lib/gcc/m68k-elf/4.8.0/m68000\libgcc.a(_udivdi3.o)
 .debug_info    0x00001644      0x69b c:/sysgcc/m68k-elf/bin/../lib/gcc/m68k-elf/4.8.0/m68000\libgcc.a(_umoddi3.o)
 .debug_info    0x00001cdf       0x6a C:/SysGCC/m68k-elf/m68k-elf/lib/m68000\libc.a(lib_a-environ.o)
 .debug_info    0x00001d49      0xc45 C:/SysGCC/m68k-elf/m68k-elf/lib/m68000\libc.a(lib_a-findfp.o)
 .debug_info    0x0000298e      0x97c C:/SysGCC/m68k-elf/m68k-elf/lib/m68000\libc.a(lib_a-fwalk.o)
 .debug_info    0x0000330a      0x90d C:/SysGCC/m68k-elf/m68k-elf/lib/m68000\libc.a(lib_a-getenv.o)
 .debug_info    0x00003c17      0x982 C:/SysGCC/m68k-elf/m68k-elf/lib/m68000\libc.a(lib_a-getenv_r.o)
 .debug_info    0x00004599      0x894 C:/SysGCC/m68k-elf/m68k-elf/lib/m68000\libc.a(lib_a-impure.o)
 .debug_info    0x00004e2d      0xcc2 C:/SysGCC/m68k-elf/m68k-elf/lib/m68000\libc.a(lib_a-mallocr.o)
 .debug_info    0x00005aef       0xef C:/SysGCC/m68k-elf/m68k-elf/lib/m68000\libc.a(lib_a-memcpy.o)
 .debug_info    0x00005bde       0xef C:/SysGCC/m68k-elf/m68k-elf/lib/m68000\libc.a(lib_a-memset.o)
 .debug_info    0x00005ccd      0x8b6 C:/SysGCC/m68k-elf/m68k-elf/lib/m68000\libc.a(lib_a-mlock.o)
 .debug_info    0x00006583      0x978 C:/SysGCC/m68k-elf/m68k-elf/lib/m68000\libc.a(lib_a-printf.o)
 .debug_info    0x00006efb      0x9f3 C:/SysGCC/m68k-elf/m68k-elf/lib/m68000\libc.a(lib_a-puts.o)
 .debug_info    0x000078ee      0x8ea C:/SysGCC/m68k-elf/m68k-elf/lib/m68000\libc.a(lib_a-sbrkr.o)
 .debug_info    0x000081d8      0xb22 C:/SysGCC/m68k-elf/m68k-elf/lib/m68000\libc.a(lib_a-stdio.o)
 .debug_info    0x00008cfa       0xcf C:/SysGCC/m68k-elf/m68k-elf/lib/m68000\libc.a(lib_a-strlen.o)
 .debug_info    0x00008dc9       0xf5 C:/SysGCC/m68k-elf/m68k-elf/lib/m68000\libc.a(lib_a-strncmp.o)
 .debug_info    0x00008ebe     0x13ad C:/SysGCC/m68k-elf/m68k-elf/lib/m68000\libc.a(lib_a-vfprintf.o)
 .debug_info    0x0000a26b      0x90c C:/SysGCC/m68k-elf/m68k-elf/lib/m68000\libc.a(lib_a-writer.o)
 .debug_info    0x0000ab77      0x908 C:/SysGCC/m68k-elf/m68k-elf/lib/m68000\libc.a(lib_a-wsetup.o)
 .debug_info    0x0000b47f      0x8c9 C:/SysGCC/m68k-elf/m68k-elf/lib/m68000\libc.a(lib_a-closer.o)
 .debug_info    0x0000bd48      0xfe1 C:/SysGCC/m68k-elf/m68k-elf/lib/m68000\libc.a(lib_a-dtoa.o)
 .debug_info    0x0000cd29      0x8b6 C:/SysGCC/m68k-elf/m68k-elf/lib/m68000\libc.a(lib_a-envlock.o)
 .debug_info    0x0000d5df      0x97d C:/SysGCC/m68k-elf/m68k-elf/lib/m68000\libc.a(lib_a-fclose.o)
 .debug_info    0x0000df5c      0xa19 C:/SysGCC/m68k-elf/m68k-elf/lib/m68000\libc.a(lib_a-fflush.o)
 .debug_info    0x0000e975      0xb82 C:/SysGCC/m68k-elf/m68k-elf/lib/m68000\libc.a(lib_a-freer.o)
 .debug_info    0x0000f4f7      0xb46 C:/SysGCC/m68k-elf/m68k-elf/lib/m68000\libc.a(lib_a-fvwrite.o)
 .debug_info    0x0001003d      0xb6f C:/SysGCC/m68k-elf/m68k-elf/lib/m68000\libc.a(lib_a-locale.o)
 .debug_info    0x00010bac      0x8fa C:/SysGCC/m68k-elf/m68k-elf/lib/m68000\libc.a(lib_a-lseekr.o)
 .debug_info    0x000114a6      0xab9 C:/SysGCC/m68k-elf/m68k-elf/lib/m68000\libc.a(lib_a-makebuf.o)
 .debug_info    0x00011f5f      0x126 C:/SysGCC/m68k-elf/m68k-elf/lib/m68000\libc.a(lib_a-memchr.o)
 .debug_info    0x00012085      0x131 C:/SysGCC/m68k-elf/m68k-elf/lib/m68000\libc.a(lib_a-memmove.o)
 .debug_info    0x000121b6     0x1513 C:/SysGCC/m68k-elf/m68k-elf/lib/m68000\libc.a(lib_a-mprec.o)
 .debug_info    0x000136c9      0x905 C:/SysGCC/m68k-elf/m68k-elf/lib/m68000\libc.a(lib_a-readr.o)
 .debug_info    0x00013fce      0xc5a C:/SysGCC/m68k-elf/m68k-elf/lib/m68000\libc.a(lib_a-reallocr.o)
 .debug_info    0x00014c28      0x13d C:/SysGCC/m68k-elf/m68k-elf/lib/m68000\libc.a(lib_a-s_fpclassify.o)
 .debug_info    0x00014d65       0xdd C:/SysGCC/m68k-elf/m68k-elf/lib/m68000\libc.a(lib_a-strcmp.o)
 .debug_info    0x00014e42     0x1346 C:/SysGCC/m68k-elf/m68k-elf/lib/m68000\libc.a(lib_a-vfiprintf.o)
 .debug_info    0x00016188      0x9c9 C:/SysGCC/m68k-elf/m68k-elf/lib/m68000\libc.a(lib_a-callocr.o)
 .debug_info    0x00016b51      0xa45 C:/SysGCC/m68k-elf/m68k-elf/lib/m68000\libc.a(lib_a-fputwc.o)
 .debug_info    0x00017596      0xa44 C:/SysGCC/m68k-elf/m68k-elf/lib/m68000\libc.a(lib_a-fstatr.o)
 .debug_info    0x00017fda      0x8c9 C:/SysGCC/m68k-elf/m68k-elf/lib/m68000\libc.a(lib_a-isattyr.o)
 .debug_info    0x000188a3      0x971 C:/SysGCC/m68k-elf/m68k-elf/lib/m68000\libc.a(lib_a-wbuf.o)
 .debug_info    0x00019214      0x9e1 C:/SysGCC/m68k-elf/m68k-elf/lib/m68000\libc.a(lib_a-wcrtomb.o)
 .debug_info    0x00019bf5      0x999 C:/SysGCC/m68k-elf/m68k-elf/lib/m68000\libc.a(lib_a-wctomb_r.o)
 .debug_info    0x0001a58e       0xc9 c:/sysgcc/m68k-elf/bin/../lib/gcc/m68k-elf/4.8.0/m68000\libgcc.a(_double.o)
 .debug_info    0x0001a657       0xc9 c:/sysgcc/m68k-elf/bin/../lib/gcc/m68k-elf/4.8.0/m68000\libgcc.a(_floatex.o)
 .debug_info    0x0001a720       0xc9 c:/sysgcc/m68k-elf/bin/../lib/gcc/m68k-elf/4.8.0/m68000\libgcc.a(_eqdf2.o)
 .debug_info    0x0001a7e9       0xc9 c:/sysgcc/m68k-elf/bin/../lib/gcc/m68k-elf/4.8.0/m68000\libgcc.a(_nedf2.o)
 .debug_info    0x0001a8b2       0xc9 c:/sysgcc/m68k-elf/bin/../lib/gcc/m68k-elf/4.8.0/m68000\libgcc.a(_gtdf2.o)
 .debug_info    0x0001a97b       0xc9 c:/sysgcc/m68k-elf/bin/../lib/gcc/m68k-elf/4.8.0/m68000\libgcc.a(_gedf2.o)
 .debug_info    0x0001aa44       0xc9 c:/sysgcc/m68k-elf/bin/../lib/gcc/m68k-elf/4.8.0/m68000\libgcc.a(_ltdf2.o)
 .debug_info    0x0001ab0d      0x3c6 c:/sysgcc/m68k-elf/bin/../lib/gcc/m68k-elf/4.8.0/m68000\libgcc.a(fpgnulib.o)
 .debug_info    0x0001aed3      0x786 c:/sysgcc/m68k-elf/bin/../lib/gcc/m68k-elf/4.8.0/m68000\libgcc.a(xfgnulib.o)
 .debug_info    0x0001b659     0x10d0 C:/SysGCC/m68k-elf/m68k-elf/lib/m68000\libnkc.a(newlib_stubs.o)
 .debug_info    0x0001c729      0x3fd C:/SysGCC/m68k-elf/m68k-elf/lib/m68000\libnkc.a(open.o)
 .debug_info    0x0001cb26      0x30b C:/SysGCC/m68k-elf/m68k-elf/lib/m68000\libnkc.a(close.o)
 .debug_info    0x0001ce31      0x2dd C:/SysGCC/m68k-elf/m68k-elf/lib/m68000\libnkc.a(isatty.o)
 .debug_info    0x0001d10e       0x78 C:/SysGCC/m68k-elf/m68k-elf/lib/m68000\libnkc.a(lseek.o)
 .debug_info    0x0001d186      0x4f8 C:/SysGCC/m68k-elf/m68k-elf/lib/m68000\libnkc.a(read.o)
 .debug_info    0x0001d67e      0x27a C:/SysGCC/m68k-elf/m68k-elf/lib/m68000\libnkc.a(stat.o)
 .debug_info    0x0001d8f8      0x3a8 C:/SysGCC/m68k-elf/m68k-elf/lib/m68000\libnkc.a(write.o)
 .debug_info    0x0001dca0       0x6f C:/SysGCC/m68k-elf/m68k-elf/lib/m68000\libc.a(lib_a-ctype_.o)
 .debug_info    0x0001dd0f      0x889 C:/SysGCC/m68k-elf/m68k-elf/lib/m68000\libc.a(lib_a-errno.o)
 .debug_info    0x0001e598      0x432 C:/SysGCC/m68k-elf/m68k-elf/lib/m68000\libc.a(lib_a-mktime.o)
 .debug_info    0x0001e9ca      0x473 C:/SysGCC/m68k-elf/m68k-elf/lib/m68000\libc.a(lib_a-mktm_r.o)
 .debug_info    0x0001ee3d      0xb04 C:/SysGCC/m68k-elf/m68k-elf/lib/m68000\libc.a(lib_a-signal.o)
 .debug_info    0x0001f941      0x93b C:/SysGCC/m68k-elf/m68k-elf/lib/m68000\libc.a(lib_a-signalr.o)
 .debug_info    0x0002027c       0xa8 C:/SysGCC/m68k-elf/m68k-elf/lib/m68000\libc.a(lib_a-tzlock.o)
 .debug_info    0x00020324       0xbb C:/SysGCC/m68k-elf/m68k-elf/lib/m68000\libc.a(lib_a-tzvars.o)
 .debug_info    0x000203df       0xe5 C:/SysGCC/m68k-elf/m68k-elf/lib/m68000\libc.a(lib_a-div.o)
 .debug_info    0x000204c4      0x160 C:/SysGCC/m68k-elf/m68k-elf/lib/m68000\libc.a(lib_a-gettzinfo.o)

.debug_abbrev   0x00000000     0x7406
 .debug_abbrev  0x00000000       0x14 c:/sysgcc/m68k-elf/bin/../lib/gcc/m68k-elf/4.8.0/m68000\libgcc.a(_mulsi3.o)
 .debug_abbrev  0x00000014       0x14 c:/sysgcc/m68k-elf/bin/../lib/gcc/m68k-elf/4.8.0/m68000\libgcc.a(_udivsi3.o)
 .debug_abbrev  0x00000028       0x14 c:/sysgcc/m68k-elf/bin/../lib/gcc/m68k-elf/4.8.0/m68000\libgcc.a(_divsi3.o)
 .debug_abbrev  0x0000003c       0x14 c:/sysgcc/m68k-elf/bin/../lib/gcc/m68k-elf/4.8.0/m68000\libgcc.a(_umodsi3.o)
 .debug_abbrev  0x00000050       0x14 c:/sysgcc/m68k-elf/bin/../lib/gcc/m68k-elf/4.8.0/m68000\libgcc.a(_modsi3.o)
 .debug_abbrev  0x00000064       0xe1 c:/sysgcc/m68k-elf/bin/../lib/gcc/m68k-elf/4.8.0/m68000\libgcc.a(_muldi3.o)
 .debug_abbrev  0x00000145       0xb1 c:/sysgcc/m68k-elf/bin/../lib/gcc/m68k-elf/4.8.0/m68000\libgcc.a(_ffssi2.o)
 .debug_abbrev  0x000001f6       0x5d c:/sysgcc/m68k-elf/bin/../lib/gcc/m68k-elf/4.8.0/m68000\libgcc.a(_clz.o)
 .debug_abbrev  0x00000253       0xbe c:/sysgcc/m68k-elf/bin/../lib/gcc/m68k-elf/4.8.0/m68000\libgcc.a(_clzsi2.o)
 .debug_abbrev  0x00000311      0x189 c:/sysgcc/m68k-elf/bin/../lib/gcc/m68k-elf/4.8.0/m68000\libgcc.a(_divdi3.o)
 .debug_abbrev  0x0000049a      0x185 c:/sysgcc/m68k-elf/bin/../lib/gcc/m68k-elf/4.8.0/m68000\libgcc.a(_udivdi3.o)
 .debug_abbrev  0x0000061f      0x196 c:/sysgcc/m68k-elf/bin/../lib/gcc/m68k-elf/4.8.0/m68000\libgcc.a(_umoddi3.o)
 .debug_abbrev  0x000007b5       0x56 C:/SysGCC/m68k-elf/m68k-elf/lib/m68000\libc.a(lib_a-environ.o)
 .debug_abbrev  0x0000080b      0x356 C:/SysGCC/m68k-elf/m68k-elf/lib/m68000\libc.a(lib_a-findfp.o)
 .debug_abbrev  0x00000b61      0x1ad C:/SysGCC/m68k-elf/m68k-elf/lib/m68000\libc.a(lib_a-fwalk.o)
 .debug_abbrev  0x00000d0e      0x1cd C:/SysGCC/m68k-elf/m68k-elf/lib/m68000\libc.a(lib_a-getenv.o)
 .debug_abbrev  0x00000edb      0x216 C:/SysGCC/m68k-elf/m68k-elf/lib/m68000\libc.a(lib_a-getenv_r.o)
 .debug_abbrev  0x000010f1      0x180 C:/SysGCC/m68k-elf/m68k-elf/lib/m68000\libc.a(lib_a-impure.o)
 .debug_abbrev  0x00001271      0x280 C:/SysGCC/m68k-elf/m68k-elf/lib/m68000\libc.a(lib_a-mallocr.o)
 .debug_abbrev  0x000014f1       0x14 C:/SysGCC/m68k-elf/m68k-elf/lib/m68000\libc.a(lib_a-memcpy.o)
 .debug_abbrev  0x00001505       0x14 C:/SysGCC/m68k-elf/m68k-elf/lib/m68000\libc.a(lib_a-memset.o)
 .debug_abbrev  0x00001519      0x19a C:/SysGCC/m68k-elf/m68k-elf/lib/m68000\libc.a(lib_a-mlock.o)
 .debug_abbrev  0x000016b3      0x208 C:/SysGCC/m68k-elf/m68k-elf/lib/m68000\libc.a(lib_a-printf.o)
 .debug_abbrev  0x000018bb      0x20e C:/SysGCC/m68k-elf/m68k-elf/lib/m68000\libc.a(lib_a-puts.o)
 .debug_abbrev  0x00001ac9      0x1f1 C:/SysGCC/m68k-elf/m68k-elf/lib/m68000\libc.a(lib_a-sbrkr.o)
 .debug_abbrev  0x00001cba      0x22d C:/SysGCC/m68k-elf/m68k-elf/lib/m68000\libc.a(lib_a-stdio.o)
 .debug_abbrev  0x00001ee7       0x7f C:/SysGCC/m68k-elf/m68k-elf/lib/m68000\libc.a(lib_a-strlen.o)
 .debug_abbrev  0x00001f66       0x81 C:/SysGCC/m68k-elf/m68k-elf/lib/m68000\libc.a(lib_a-strncmp.o)
 .debug_abbrev  0x00001fe7      0x3d4 C:/SysGCC/m68k-elf/m68k-elf/lib/m68000\libc.a(lib_a-vfprintf.o)
 .debug_abbrev  0x000023bb      0x1d2 C:/SysGCC/m68k-elf/m68k-elf/lib/m68000\libc.a(lib_a-writer.o)
 .debug_abbrev  0x0000258d      0x1cf C:/SysGCC/m68k-elf/m68k-elf/lib/m68000\libc.a(lib_a-wsetup.o)
 .debug_abbrev  0x0000275c      0x1cd C:/SysGCC/m68k-elf/m68k-elf/lib/m68000\libc.a(lib_a-closer.o)
 .debug_abbrev  0x00002929      0x2b5 C:/SysGCC/m68k-elf/m68k-elf/lib/m68000\libc.a(lib_a-dtoa.o)
 .debug_abbrev  0x00002bde      0x19c C:/SysGCC/m68k-elf/m68k-elf/lib/m68000\libc.a(lib_a-envlock.o)
 .debug_abbrev  0x00002d7a      0x22f C:/SysGCC/m68k-elf/m68k-elf/lib/m68000\libc.a(lib_a-fclose.o)
 .debug_abbrev  0x00002fa9      0x25f C:/SysGCC/m68k-elf/m68k-elf/lib/m68000\libc.a(lib_a-fflush.o)
 .debug_abbrev  0x00003208      0x257 C:/SysGCC/m68k-elf/m68k-elf/lib/m68000\libc.a(lib_a-freer.o)
 .debug_abbrev  0x0000345f      0x21a C:/SysGCC/m68k-elf/m68k-elf/lib/m68000\libc.a(lib_a-fvwrite.o)
 .debug_abbrev  0x00003679      0x291 C:/SysGCC/m68k-elf/m68k-elf/lib/m68000\libc.a(lib_a-locale.o)
 .debug_abbrev  0x0000390a      0x1dc C:/SysGCC/m68k-elf/m68k-elf/lib/m68000\libc.a(lib_a-lseekr.o)
 .debug_abbrev  0x00003ae6      0x1ed C:/SysGCC/m68k-elf/m68k-elf/lib/m68000\libc.a(lib_a-makebuf.o)
 .debug_abbrev  0x00003cd3       0xc9 C:/SysGCC/m68k-elf/m68k-elf/lib/m68000\libc.a(lib_a-memchr.o)
 .debug_abbrev  0x00003d9c       0xab C:/SysGCC/m68k-elf/m68k-elf/lib/m68000\libc.a(lib_a-memmove.o)
 .debug_abbrev  0x00003e47      0x3a8 C:/SysGCC/m68k-elf/m68k-elf/lib/m68000\libc.a(lib_a-mprec.o)
 .debug_abbrev  0x000041ef      0x1cd C:/SysGCC/m68k-elf/m68k-elf/lib/m68000\libc.a(lib_a-readr.o)
 .debug_abbrev  0x000043bc      0x262 C:/SysGCC/m68k-elf/m68k-elf/lib/m68000\libc.a(lib_a-reallocr.o)
 .debug_abbrev  0x0000461e       0xc8 C:/SysGCC/m68k-elf/m68k-elf/lib/m68000\libc.a(lib_a-s_fpclassify.o)
 .debug_abbrev  0x000046e6       0x74 C:/SysGCC/m68k-elf/m68k-elf/lib/m68000\libc.a(lib_a-strcmp.o)
 .debug_abbrev  0x0000475a      0x3c3 C:/SysGCC/m68k-elf/m68k-elf/lib/m68000\libc.a(lib_a-vfiprintf.o)
 .debug_abbrev  0x00004b1d      0x216 C:/SysGCC/m68k-elf/m68k-elf/lib/m68000\libc.a(lib_a-callocr.o)
 .debug_abbrev  0x00004d33      0x26d C:/SysGCC/m68k-elf/m68k-elf/lib/m68000\libc.a(lib_a-fputwc.o)
 .debug_abbrev  0x00004fa0      0x1dc C:/SysGCC/m68k-elf/m68k-elf/lib/m68000\libc.a(lib_a-fstatr.o)
 .debug_abbrev  0x0000517c      0x1cd C:/SysGCC/m68k-elf/m68k-elf/lib/m68000\libc.a(lib_a-isattyr.o)
 .debug_abbrev  0x00005349      0x220 C:/SysGCC/m68k-elf/m68k-elf/lib/m68000\libc.a(lib_a-wbuf.o)
 .debug_abbrev  0x00005569      0x1f9 C:/SysGCC/m68k-elf/m68k-elf/lib/m68000\libc.a(lib_a-wcrtomb.o)
 .debug_abbrev  0x00005762      0x1e8 C:/SysGCC/m68k-elf/m68k-elf/lib/m68000\libc.a(lib_a-wctomb_r.o)
 .debug_abbrev  0x0000594a       0x14 c:/sysgcc/m68k-elf/bin/../lib/gcc/m68k-elf/4.8.0/m68000\libgcc.a(_double.o)
 .debug_abbrev  0x0000595e       0x14 c:/sysgcc/m68k-elf/bin/../lib/gcc/m68k-elf/4.8.0/m68000\libgcc.a(_floatex.o)
 .debug_abbrev  0x00005972       0x14 c:/sysgcc/m68k-elf/bin/../lib/gcc/m68k-elf/4.8.0/m68000\libgcc.a(_eqdf2.o)
 .debug_abbrev  0x00005986       0x14 c:/sysgcc/m68k-elf/bin/../lib/gcc/m68k-elf/4.8.0/m68000\libgcc.a(_nedf2.o)
 .debug_abbrev  0x0000599a       0x14 c:/sysgcc/m68k-elf/bin/../lib/gcc/m68k-elf/4.8.0/m68000\libgcc.a(_gtdf2.o)
 .debug_abbrev  0x000059ae       0x14 c:/sysgcc/m68k-elf/bin/../lib/gcc/m68k-elf/4.8.0/m68000\libgcc.a(_gedf2.o)
 .debug_abbrev  0x000059c2       0x14 c:/sysgcc/m68k-elf/bin/../lib/gcc/m68k-elf/4.8.0/m68000\libgcc.a(_ltdf2.o)
 .debug_abbrev  0x000059d6      0x174 c:/sysgcc/m68k-elf/bin/../lib/gcc/m68k-elf/4.8.0/m68000\libgcc.a(fpgnulib.o)
 .debug_abbrev  0x00005b4a      0x13e c:/sysgcc/m68k-elf/bin/../lib/gcc/m68k-elf/4.8.0/m68000\libgcc.a(xfgnulib.o)
 .debug_abbrev  0x00005c88      0x4d8 C:/SysGCC/m68k-elf/m68k-elf/lib/m68000\libnkc.a(newlib_stubs.o)
 .debug_abbrev  0x00006160      0x15e C:/SysGCC/m68k-elf/m68k-elf/lib/m68000\libnkc.a(open.o)
 .debug_abbrev  0x000062be      0x10e C:/SysGCC/m68k-elf/m68k-elf/lib/m68000\libnkc.a(close.o)
 .debug_abbrev  0x000063cc       0xdf C:/SysGCC/m68k-elf/m68k-elf/lib/m68000\libnkc.a(isatty.o)
 .debug_abbrev  0x000064ab       0x55 C:/SysGCC/m68k-elf/m68k-elf/lib/m68000\libnkc.a(lseek.o)
 .debug_abbrev  0x00006500      0x1c0 C:/SysGCC/m68k-elf/m68k-elf/lib/m68000\libnkc.a(read.o)
 .debug_abbrev  0x000066c0       0xd6 C:/SysGCC/m68k-elf/m68k-elf/lib/m68000\libnkc.a(stat.o)
 .debug_abbrev  0x00006796      0x136 C:/SysGCC/m68k-elf/m68k-elf/lib/m68000\libnkc.a(write.o)
 .debug_abbrev  0x000068cc       0x4e C:/SysGCC/m68k-elf/m68k-elf/lib/m68000\libc.a(lib_a-ctype_.o)
 .debug_abbrev  0x0000691a      0x18f C:/SysGCC/m68k-elf/m68k-elf/lib/m68000\libc.a(lib_a-errno.o)
 .debug_abbrev  0x00006aa9      0x19f C:/SysGCC/m68k-elf/m68k-elf/lib/m68000\libc.a(lib_a-mktime.o)
 .debug_abbrev  0x00006c48      0x151 C:/SysGCC/m68k-elf/m68k-elf/lib/m68000\libc.a(lib_a-mktm_r.o)
 .debug_abbrev  0x00006d99      0x279 C:/SysGCC/m68k-elf/m68k-elf/lib/m68000\libc.a(lib_a-signal.o)
 .debug_abbrev  0x00007012      0x200 C:/SysGCC/m68k-elf/m68k-elf/lib/m68000\libc.a(lib_a-signalr.o)
 .debug_abbrev  0x00007212       0x51 C:/SysGCC/m68k-elf/m68k-elf/lib/m68000\libc.a(lib_a-tzlock.o)
 .debug_abbrev  0x00007263       0x52 C:/SysGCC/m68k-elf/m68k-elf/lib/m68000\libc.a(lib_a-tzvars.o)
 .debug_abbrev  0x000072b5       0xa9 C:/SysGCC/m68k-elf/m68k-elf/lib/m68000\libc.a(lib_a-div.o)
 .debug_abbrev  0x0000735e       0xa8 C:/SysGCC/m68k-elf/m68k-elf/lib/m68000\libc.a(lib_a-gettzinfo.o)

.debug_aranges  0x00000000      0xa38
 .debug_aranges
                0x00000000       0x20 c:/sysgcc/m68k-elf/bin/../lib/gcc/m68k-elf/4.8.0/m68000\libgcc.a(_mulsi3.o)
 .debug_aranges
                0x00000020       0x20 c:/sysgcc/m68k-elf/bin/../lib/gcc/m68k-elf/4.8.0/m68000\libgcc.a(_udivsi3.o)
 .debug_aranges
                0x00000040       0x20 c:/sysgcc/m68k-elf/bin/../lib/gcc/m68k-elf/4.8.0/m68000\libgcc.a(_divsi3.o)
 .debug_aranges
                0x00000060       0x20 c:/sysgcc/m68k-elf/bin/../lib/gcc/m68k-elf/4.8.0/m68000\libgcc.a(_umodsi3.o)
 .debug_aranges
                0x00000080       0x20 c:/sysgcc/m68k-elf/bin/../lib/gcc/m68k-elf/4.8.0/m68000\libgcc.a(_modsi3.o)
 .debug_aranges
                0x000000a0       0x20 c:/sysgcc/m68k-elf/bin/../lib/gcc/m68k-elf/4.8.0/m68000\libgcc.a(_muldi3.o)
 .debug_aranges
                0x000000c0       0x20 c:/sysgcc/m68k-elf/bin/../lib/gcc/m68k-elf/4.8.0/m68000\libgcc.a(_ffssi2.o)
 .debug_aranges
                0x000000e0       0x18 c:/sysgcc/m68k-elf/bin/../lib/gcc/m68k-elf/4.8.0/m68000\libgcc.a(_clz.o)
 .debug_aranges
                0x000000f8       0x20 c:/sysgcc/m68k-elf/bin/../lib/gcc/m68k-elf/4.8.0/m68000\libgcc.a(_clzsi2.o)
 .debug_aranges
                0x00000118       0x20 c:/sysgcc/m68k-elf/bin/../lib/gcc/m68k-elf/4.8.0/m68000\libgcc.a(_divdi3.o)
 .debug_aranges
                0x00000138       0x20 c:/sysgcc/m68k-elf/bin/../lib/gcc/m68k-elf/4.8.0/m68000\libgcc.a(_udivdi3.o)
 .debug_aranges
                0x00000158       0x20 c:/sysgcc/m68k-elf/bin/../lib/gcc/m68k-elf/4.8.0/m68000\libgcc.a(_umoddi3.o)
 .debug_aranges
                0x00000178       0x18 C:/SysGCC/m68k-elf/m68k-elf/lib/m68000\libc.a(lib_a-environ.o)
 .debug_aranges
                0x00000190       0x20 C:/SysGCC/m68k-elf/m68k-elf/lib/m68000\libc.a(lib_a-findfp.o)
 .debug_aranges
                0x000001b0       0x20 C:/SysGCC/m68k-elf/m68k-elf/lib/m68000\libc.a(lib_a-fwalk.o)
 .debug_aranges
                0x000001d0       0x20 C:/SysGCC/m68k-elf/m68k-elf/lib/m68000\libc.a(lib_a-getenv.o)
 .debug_aranges
                0x000001f0       0x20 C:/SysGCC/m68k-elf/m68k-elf/lib/m68000\libc.a(lib_a-getenv_r.o)
 .debug_aranges
                0x00000210       0x18 C:/SysGCC/m68k-elf/m68k-elf/lib/m68000\libc.a(lib_a-impure.o)
 .debug_aranges
                0x00000228       0x20 C:/SysGCC/m68k-elf/m68k-elf/lib/m68000\libc.a(lib_a-mallocr.o)
 .debug_aranges
                0x00000248       0x20 C:/SysGCC/m68k-elf/m68k-elf/lib/m68000\libc.a(lib_a-memcpy.o)
 .debug_aranges
                0x00000268       0x20 C:/SysGCC/m68k-elf/m68k-elf/lib/m68000\libc.a(lib_a-memset.o)
 .debug_aranges
                0x00000288       0x20 C:/SysGCC/m68k-elf/m68k-elf/lib/m68000\libc.a(lib_a-mlock.o)
 .debug_aranges
                0x000002a8       0x20 C:/SysGCC/m68k-elf/m68k-elf/lib/m68000\libc.a(lib_a-printf.o)
 .debug_aranges
                0x000002c8       0x20 C:/SysGCC/m68k-elf/m68k-elf/lib/m68000\libc.a(lib_a-puts.o)
 .debug_aranges
                0x000002e8       0x20 C:/SysGCC/m68k-elf/m68k-elf/lib/m68000\libc.a(lib_a-sbrkr.o)
 .debug_aranges
                0x00000308       0x20 C:/SysGCC/m68k-elf/m68k-elf/lib/m68000\libc.a(lib_a-stdio.o)
 .debug_aranges
                0x00000328       0x20 C:/SysGCC/m68k-elf/m68k-elf/lib/m68000\libc.a(lib_a-strlen.o)
 .debug_aranges
                0x00000348       0x20 C:/SysGCC/m68k-elf/m68k-elf/lib/m68000\libc.a(lib_a-strncmp.o)
 .debug_aranges
                0x00000368       0x20 C:/SysGCC/m68k-elf/m68k-elf/lib/m68000\libc.a(lib_a-vfprintf.o)
 .debug_aranges
                0x00000388       0x20 C:/SysGCC/m68k-elf/m68k-elf/lib/m68000\libc.a(lib_a-writer.o)
 .debug_aranges
                0x000003a8       0x20 C:/SysGCC/m68k-elf/m68k-elf/lib/m68000\libc.a(lib_a-wsetup.o)
 .debug_aranges
                0x000003c8       0x20 C:/SysGCC/m68k-elf/m68k-elf/lib/m68000\libc.a(lib_a-closer.o)
 .debug_aranges
                0x000003e8       0x20 C:/SysGCC/m68k-elf/m68k-elf/lib/m68000\libc.a(lib_a-dtoa.o)
 .debug_aranges
                0x00000408       0x20 C:/SysGCC/m68k-elf/m68k-elf/lib/m68000\libc.a(lib_a-envlock.o)
 .debug_aranges
                0x00000428       0x20 C:/SysGCC/m68k-elf/m68k-elf/lib/m68000\libc.a(lib_a-fclose.o)
 .debug_aranges
                0x00000448       0x20 C:/SysGCC/m68k-elf/m68k-elf/lib/m68000\libc.a(lib_a-fflush.o)
 .debug_aranges
                0x00000468       0x20 C:/SysGCC/m68k-elf/m68k-elf/lib/m68000\libc.a(lib_a-freer.o)
 .debug_aranges
                0x00000488       0x20 C:/SysGCC/m68k-elf/m68k-elf/lib/m68000\libc.a(lib_a-fvwrite.o)
 .debug_aranges
                0x000004a8       0x20 C:/SysGCC/m68k-elf/m68k-elf/lib/m68000\libc.a(lib_a-locale.o)
 .debug_aranges
                0x000004c8       0x20 C:/SysGCC/m68k-elf/m68k-elf/lib/m68000\libc.a(lib_a-lseekr.o)
 .debug_aranges
                0x000004e8       0x20 C:/SysGCC/m68k-elf/m68k-elf/lib/m68000\libc.a(lib_a-makebuf.o)
 .debug_aranges
                0x00000508       0x20 C:/SysGCC/m68k-elf/m68k-elf/lib/m68000\libc.a(lib_a-memchr.o)
 .debug_aranges
                0x00000528       0x20 C:/SysGCC/m68k-elf/m68k-elf/lib/m68000\libc.a(lib_a-memmove.o)
 .debug_aranges
                0x00000548       0x20 C:/SysGCC/m68k-elf/m68k-elf/lib/m68000\libc.a(lib_a-mprec.o)
 .debug_aranges
                0x00000568       0x20 C:/SysGCC/m68k-elf/m68k-elf/lib/m68000\libc.a(lib_a-readr.o)
 .debug_aranges
                0x00000588       0x20 C:/SysGCC/m68k-elf/m68k-elf/lib/m68000\libc.a(lib_a-reallocr.o)
 .debug_aranges
                0x000005a8       0x20 C:/SysGCC/m68k-elf/m68k-elf/lib/m68000\libc.a(lib_a-s_fpclassify.o)
 .debug_aranges
                0x000005c8       0x20 C:/SysGCC/m68k-elf/m68k-elf/lib/m68000\libc.a(lib_a-strcmp.o)
 .debug_aranges
                0x000005e8       0x20 C:/SysGCC/m68k-elf/m68k-elf/lib/m68000\libc.a(lib_a-vfiprintf.o)
 .debug_aranges
                0x00000608       0x20 C:/SysGCC/m68k-elf/m68k-elf/lib/m68000\libc.a(lib_a-callocr.o)
 .debug_aranges
                0x00000628       0x20 C:/SysGCC/m68k-elf/m68k-elf/lib/m68000\libc.a(lib_a-fputwc.o)
 .debug_aranges
                0x00000648       0x20 C:/SysGCC/m68k-elf/m68k-elf/lib/m68000\libc.a(lib_a-fstatr.o)
 .debug_aranges
                0x00000668       0x20 C:/SysGCC/m68k-elf/m68k-elf/lib/m68000\libc.a(lib_a-isattyr.o)
 .debug_aranges
                0x00000688       0x20 C:/SysGCC/m68k-elf/m68k-elf/lib/m68000\libc.a(lib_a-wbuf.o)
 .debug_aranges
                0x000006a8       0x20 C:/SysGCC/m68k-elf/m68k-elf/lib/m68000\libc.a(lib_a-wcrtomb.o)
 .debug_aranges
                0x000006c8       0x20 C:/SysGCC/m68k-elf/m68k-elf/lib/m68000\libc.a(lib_a-wctomb_r.o)
 .debug_aranges
                0x000006e8       0x20 c:/sysgcc/m68k-elf/bin/../lib/gcc/m68k-elf/4.8.0/m68000\libgcc.a(_double.o)
 .debug_aranges
                0x00000708       0x20 c:/sysgcc/m68k-elf/bin/../lib/gcc/m68k-elf/4.8.0/m68000\libgcc.a(_floatex.o)
 .debug_aranges
                0x00000728       0x20 c:/sysgcc/m68k-elf/bin/../lib/gcc/m68k-elf/4.8.0/m68000\libgcc.a(_eqdf2.o)
 .debug_aranges
                0x00000748       0x20 c:/sysgcc/m68k-elf/bin/../lib/gcc/m68k-elf/4.8.0/m68000\libgcc.a(_nedf2.o)
 .debug_aranges
                0x00000768       0x20 c:/sysgcc/m68k-elf/bin/../lib/gcc/m68k-elf/4.8.0/m68000\libgcc.a(_gtdf2.o)
 .debug_aranges
                0x00000788       0x20 c:/sysgcc/m68k-elf/bin/../lib/gcc/m68k-elf/4.8.0/m68000\libgcc.a(_gedf2.o)
 .debug_aranges
                0x000007a8       0x20 c:/sysgcc/m68k-elf/bin/../lib/gcc/m68k-elf/4.8.0/m68000\libgcc.a(_ltdf2.o)
 .debug_aranges
                0x000007c8       0x20 c:/sysgcc/m68k-elf/bin/../lib/gcc/m68k-elf/4.8.0/m68000\libgcc.a(fpgnulib.o)
 .debug_aranges
                0x000007e8       0x20 c:/sysgcc/m68k-elf/bin/../lib/gcc/m68k-elf/4.8.0/m68000\libgcc.a(xfgnulib.o)
 .debug_aranges
                0x00000808       0x20 C:/SysGCC/m68k-elf/m68k-elf/lib/m68000\libnkc.a(newlib_stubs.o)
 .debug_aranges
                0x00000828       0x20 C:/SysGCC/m68k-elf/m68k-elf/lib/m68000\libnkc.a(open.o)
 .debug_aranges
                0x00000848       0x20 C:/SysGCC/m68k-elf/m68k-elf/lib/m68000\libnkc.a(close.o)
 .debug_aranges
                0x00000868       0x20 C:/SysGCC/m68k-elf/m68k-elf/lib/m68000\libnkc.a(isatty.o)
 .debug_aranges
                0x00000888       0x20 C:/SysGCC/m68k-elf/m68k-elf/lib/m68000\libnkc.a(lseek.o)
 .debug_aranges
                0x000008a8       0x20 C:/SysGCC/m68k-elf/m68k-elf/lib/m68000\libnkc.a(read.o)
 .debug_aranges
                0x000008c8       0x20 C:/SysGCC/m68k-elf/m68k-elf/lib/m68000\libnkc.a(stat.o)
 .debug_aranges
                0x000008e8       0x20 C:/SysGCC/m68k-elf/m68k-elf/lib/m68000\libnkc.a(write.o)
 .debug_aranges
                0x00000908       0x18 C:/SysGCC/m68k-elf/m68k-elf/lib/m68000\libc.a(lib_a-ctype_.o)
 .debug_aranges
                0x00000920       0x20 C:/SysGCC/m68k-elf/m68k-elf/lib/m68000\libc.a(lib_a-errno.o)
 .debug_aranges
                0x00000940       0x20 C:/SysGCC/m68k-elf/m68k-elf/lib/m68000\libc.a(lib_a-mktime.o)
 .debug_aranges
                0x00000960       0x20 C:/SysGCC/m68k-elf/m68k-elf/lib/m68000\libc.a(lib_a-mktm_r.o)
 .debug_aranges
                0x00000980       0x20 C:/SysGCC/m68k-elf/m68k-elf/lib/m68000\libc.a(lib_a-signal.o)
 .debug_aranges
                0x000009a0       0x20 C:/SysGCC/m68k-elf/m68k-elf/lib/m68000\libc.a(lib_a-signalr.o)
 .debug_aranges
                0x000009c0       0x20 C:/SysGCC/m68k-elf/m68k-elf/lib/m68000\libc.a(lib_a-tzlock.o)
 .debug_aranges
                0x000009e0       0x18 C:/SysGCC/m68k-elf/m68k-elf/lib/m68000\libc.a(lib_a-tzvars.o)
 .debug_aranges
                0x000009f8       0x20 C:/SysGCC/m68k-elf/m68k-elf/lib/m68000\libc.a(lib_a-div.o)
 .debug_aranges
                0x00000a18       0x20 C:/SysGCC/m68k-elf/m68k-elf/lib/m68000\libc.a(lib_a-gettzinfo.o)

.debug_str      0x00000000     0x2db8
 .debug_str     0x00000000      0x1ae c:/sysgcc/m68k-elf/bin/../lib/gcc/m68k-elf/4.8.0/m68000\libgcc.a(_muldi3.o)
                                0x20e (size before relaxing)
 .debug_str     0x000001ae       0x30 c:/sysgcc/m68k-elf/bin/../lib/gcc/m68k-elf/4.8.0/m68000\libgcc.a(_ffssi2.o)
                                0x217 (size before relaxing)
 .debug_str     0x00000000      0x1eb c:/sysgcc/m68k-elf/bin/../lib/gcc/m68k-elf/4.8.0/m68000\libgcc.a(_clz.o)
 .debug_str     0x000001de        0x9 c:/sysgcc/m68k-elf/bin/../lib/gcc/m68k-elf/4.8.0/m68000\libgcc.a(_clzsi2.o)
                                0x208 (size before relaxing)
 .debug_str     0x000001e7       0xc7 c:/sysgcc/m68k-elf/bin/../lib/gcc/m68k-elf/4.8.0/m68000\libgcc.a(_divdi3.o)
                                0x27b (size before relaxing)
 .debug_str     0x000002ae        0xa c:/sysgcc/m68k-elf/bin/../lib/gcc/m68k-elf/4.8.0/m68000\libgcc.a(_udivdi3.o)
                                0x27c (size before relaxing)
 .debug_str     0x000002b8        0xa c:/sysgcc/m68k-elf/bin/../lib/gcc/m68k-elf/4.8.0/m68000\libgcc.a(_umoddi3.o)
                                0x27c (size before relaxing)
 .debug_str     0x000002c2       0xfd C:/SysGCC/m68k-elf/m68k-elf/lib/m68000\libc.a(lib_a-environ.o)
                                0x113 (size before relaxing)
 .debug_str     0x000003bf      0x510 C:/SysGCC/m68k-elf/m68k-elf/lib/m68000\libc.a(lib_a-findfp.o)
                                0x65a (size before relaxing)
 .debug_str     0x000008cf       0x55 C:/SysGCC/m68k-elf/m68k-elf/lib/m68000\libc.a(lib_a-fwalk.o)
                                0x566 (size before relaxing)
 .debug_str     0x00000924       0x56 C:/SysGCC/m68k-elf/m68k-elf/lib/m68000\libc.a(lib_a-getenv.o)
                                0x56b (size before relaxing)
 .debug_str     0x0000097a       0x73 C:/SysGCC/m68k-elf/m68k-elf/lib/m68000\libc.a(lib_a-getenv_r.o)
                                0x58f (size before relaxing)
 .debug_str     0x000009ed       0xc2 C:/SysGCC/m68k-elf/m68k-elf/lib/m68000\libc.a(lib_a-impure.o)
                                0x561 (size before relaxing)
 .debug_str     0x00000aaf      0x21a C:/SysGCC/m68k-elf/m68k-elf/lib/m68000\libc.a(lib_a-mallocr.o)
                                0x75e (size before relaxing)
 .debug_str     0x00000cc9       0x4f C:/SysGCC/m68k-elf/m68k-elf/lib/m68000\libc.a(lib_a-mlock.o)
                                0x56a (size before relaxing)
 .debug_str     0x00000d18       0x71 C:/SysGCC/m68k-elf/m68k-elf/lib/m68000\libc.a(lib_a-printf.o)
                                0x58d (size before relaxing)
 .debug_str     0x00000d89       0x95 C:/SysGCC/m68k-elf/m68k-elf/lib/m68000\libc.a(lib_a-puts.o)
                                0x5b0 (size before relaxing)
 .debug_str     0x00000e1e       0x55 C:/SysGCC/m68k-elf/m68k-elf/lib/m68000\libc.a(lib_a-sbrkr.o)
                                0x557 (size before relaxing)
 .debug_str     0x00000e73       0x99 C:/SysGCC/m68k-elf/m68k-elf/lib/m68000\libc.a(lib_a-stdio.o)
                                0x5b4 (size before relaxing)
 .debug_str     0x00000f0c       0xc7 C:/SysGCC/m68k-elf/m68k-elf/lib/m68000\libc.a(lib_a-strlen.o)
                                0x19f (size before relaxing)
 .debug_str     0x00000fd3       0xc1 C:/SysGCC/m68k-elf/m68k-elf/lib/m68000\libc.a(lib_a-strncmp.o)
                                0x192 (size before relaxing)
 .debug_str     0x00001094      0x2e6 C:/SysGCC/m68k-elf/m68k-elf/lib/m68000\libc.a(lib_a-vfprintf.o)
                                0x91c (size before relaxing)
 .debug_str     0x0000137a       0x3a C:/SysGCC/m68k-elf/m68k-elf/lib/m68000\libc.a(lib_a-writer.o)
                                0x55b (size before relaxing)
 .debug_str     0x000013b4       0x47 C:/SysGCC/m68k-elf/m68k-elf/lib/m68000\libc.a(lib_a-wsetup.o)
                                0x570 (size before relaxing)
 .debug_str     0x000013fb       0x3a C:/SysGCC/m68k-elf/m68k-elf/lib/m68000\libc.a(lib_a-closer.o)
                                0x54b (size before relaxing)
 .debug_str     0x00001435      0x150 C:/SysGCC/m68k-elf/m68k-elf/lib/m68000\libc.a(lib_a-dtoa.o)
                                0x6a5 (size before relaxing)
 .debug_str     0x00001585       0x4e C:/SysGCC/m68k-elf/m68k-elf/lib/m68000\libc.a(lib_a-envlock.o)
                                0x563 (size before relaxing)
 .debug_str     0x000015d3       0x4b C:/SysGCC/m68k-elf/m68k-elf/lib/m68000\libc.a(lib_a-fclose.o)
                                0x59d (size before relaxing)
 .debug_str     0x0000161e       0x5d C:/SysGCC/m68k-elf/m68k-elf/lib/m68000\libc.a(lib_a-fflush.o)
                                0x5ab (size before relaxing)
 .debug_str     0x0000167b       0x34 C:/SysGCC/m68k-elf/m68k-elf/lib/m68000\libc.a(lib_a-freer.o)
                                0x6a8 (size before relaxing)
 .debug_str     0x000016af       0x6c C:/SysGCC/m68k-elf/m68k-elf/lib/m68000\libc.a(lib_a-fvwrite.o)
                                0x5f3 (size before relaxing)
 .debug_str     0x0000171b      0x198 C:/SysGCC/m68k-elf/m68k-elf/lib/m68000\libc.a(lib_a-locale.o)
                                0x7b7 (size before relaxing)
 .debug_str     0x000018b3       0x40 C:/SysGCC/m68k-elf/m68k-elf/lib/m68000\libc.a(lib_a-lseekr.o)
                                0x558 (size before relaxing)
 .debug_str     0x000018f3      0x122 C:/SysGCC/m68k-elf/m68k-elf/lib/m68000\libc.a(lib_a-makebuf.o)
                                0x663 (size before relaxing)
 .debug_str     0x00001a15       0x4e C:/SysGCC/m68k-elf/m68k-elf/lib/m68000\libc.a(lib_a-memchr.o)
                                0x1aa (size before relaxing)
 .debug_str     0x00001a63       0x5d C:/SysGCC/m68k-elf/m68k-elf/lib/m68000\libc.a(lib_a-memmove.o)
                                0x1c3 (size before relaxing)
 .debug_str     0x00001ac0       0xb3 C:/SysGCC/m68k-elf/m68k-elf/lib/m68000\libc.a(lib_a-mprec.o)
                                0x66d (size before relaxing)
 .debug_str     0x00001b73       0x39 C:/SysGCC/m68k-elf/m68k-elf/lib/m68000\libc.a(lib_a-readr.o)
                                0x558 (size before relaxing)
 .debug_str     0x00001bac       0x4e C:/SysGCC/m68k-elf/m68k-elf/lib/m68000\libc.a(lib_a-reallocr.o)
                                0x642 (size before relaxing)
 .debug_str     0x00001bfa       0xee C:/SysGCC/m68k-elf/m68k-elf/lib/m68000\libc.a(lib_a-s_fpclassify.o)
                                0x1e2 (size before relaxing)
 .debug_str     0x00001ce8       0x42 C:/SysGCC/m68k-elf/m68k-elf/lib/m68000\libc.a(lib_a-strcmp.o)
                                0x189 (size before relaxing)
 .debug_str     0x00001d2a       0x1f C:/SysGCC/m68k-elf/m68k-elf/lib/m68000\libc.a(lib_a-vfiprintf.o)
                                0x712 (size before relaxing)
 .debug_str     0x00001d49        0xf C:/SysGCC/m68k-elf/m68k-elf/lib/m68000\libc.a(lib_a-callocr.o)
                                0x59a (size before relaxing)
 .debug_str     0x00001d58       0x58 C:/SysGCC/m68k-elf/m68k-elf/lib/m68000\libc.a(lib_a-fputwc.o)
                                0x5a1 (size before relaxing)
 .debug_str     0x00001db0       0x46 C:/SysGCC/m68k-elf/m68k-elf/lib/m68000\libc.a(lib_a-fstatr.o)
                                0x637 (size before relaxing)
 .debug_str     0x00001df6       0x42 C:/SysGCC/m68k-elf/m68k-elf/lib/m68000\libc.a(lib_a-isattyr.o)
                                0x54e (size before relaxing)
 .debug_str     0x00001e38       0x4a C:/SysGCC/m68k-elf/m68k-elf/lib/m68000\libc.a(lib_a-wbuf.o)
                                0x575 (size before relaxing)
 .debug_str     0x00001e82       0x54 C:/SysGCC/m68k-elf/m68k-elf/lib/m68000\libc.a(lib_a-wcrtomb.o)
                                0x592 (size before relaxing)
 .debug_str     0x00001ed6       0x5d C:/SysGCC/m68k-elf/m68k-elf/lib/m68000\libc.a(lib_a-wctomb_r.o)
                                0x5a1 (size before relaxing)
 .debug_str     0x00001f33       0xd9 c:/sysgcc/m68k-elf/bin/../lib/gcc/m68k-elf/4.8.0/m68000\libgcc.a(fpgnulib.o)
                                0x1fa (size before relaxing)
 .debug_str     0x0000200c       0xf7 c:/sysgcc/m68k-elf/bin/../lib/gcc/m68k-elf/4.8.0/m68000\libgcc.a(xfgnulib.o)
                                0x258 (size before relaxing)
 .debug_str     0x00002103      0x513 C:/SysGCC/m68k-elf/m68k-elf/lib/m68000\libnkc.a(newlib_stubs.o)
                                0x681 (size before relaxing)
 .debug_str     0x00002616       0xb3 C:/SysGCC/m68k-elf/m68k-elf/lib/m68000\libnkc.a(open.o)
                                0x241 (size before relaxing)
 .debug_str     0x000026c9        0xf C:/SysGCC/m68k-elf/m68k-elf/lib/m68000\libnkc.a(close.o)
                                0x1e5 (size before relaxing)
 .debug_str     0x000026d8       0x10 C:/SysGCC/m68k-elf/m68k-elf/lib/m68000\libnkc.a(isatty.o)
                                0x1df (size before relaxing)
 .debug_str     0x000026e8       0x26 C:/SysGCC/m68k-elf/m68k-elf/lib/m68000\libnkc.a(lseek.o)
                                 0x92 (size before relaxing)
 .debug_str     0x0000270e       0x36 C:/SysGCC/m68k-elf/m68k-elf/lib/m68000\libnkc.a(read.o)
                                0x35e (size before relaxing)
 .debug_str     0x00002744       0x1b C:/SysGCC/m68k-elf/m68k-elf/lib/m68000\libnkc.a(stat.o)
                                0x202 (size before relaxing)
 .debug_str     0x0000275f        0xf C:/SysGCC/m68k-elf/m68k-elf/lib/m68000\libnkc.a(write.o)
                                0x1fa (size before relaxing)
 .debug_str     0x0000276e       0xbe C:/SysGCC/m68k-elf/m68k-elf/lib/m68000\libc.a(lib_a-ctype_.o)
                                0x112 (size before relaxing)
 .debug_str     0x0000282c       0xb5 C:/SysGCC/m68k-elf/m68k-elf/lib/m68000\libc.a(lib_a-errno.o)
                                0x549 (size before relaxing)
 .debug_str     0x000028e1      0x1c7 C:/SysGCC/m68k-elf/m68k-elf/lib/m68000\libc.a(lib_a-mktime.o)
                                0x306 (size before relaxing)
 .debug_str     0x00002aa8       0xa2 C:/SysGCC/m68k-elf/m68k-elf/lib/m68000\libc.a(lib_a-mktm_r.o)
                                0x2ed (size before relaxing)
 .debug_str     0x00002b4a      0x124 C:/SysGCC/m68k-elf/m68k-elf/lib/m68000\libc.a(lib_a-signal.o)
                                0x5d7 (size before relaxing)
 .debug_str     0x00002c6e       0x3b C:/SysGCC/m68k-elf/m68k-elf/lib/m68000\libc.a(lib_a-signalr.o)
                                0x561 (size before relaxing)
 .debug_str     0x00002ca9       0x4a C:/SysGCC/m68k-elf/m68k-elf/lib/m68000\libc.a(lib_a-tzlock.o)
                                0x1a5 (size before relaxing)
 .debug_str     0x00002cf3       0x4b C:/SysGCC/m68k-elf/m68k-elf/lib/m68000\libc.a(lib_a-tzvars.o)
                                0x19a (size before relaxing)
 .debug_str     0x00002d3e       0x3e C:/SysGCC/m68k-elf/m68k-elf/lib/m68000\libc.a(lib_a-div.o)
                                0x190 (size before relaxing)
 .debug_str     0x00002d7c       0x3c C:/SysGCC/m68k-elf/m68k-elf/lib/m68000\libc.a(lib_a-gettzinfo.o)
                                0x201 (size before relaxing)

.debug_frame    0x00000000     0x1a40
 .debug_frame   0x00000000       0x3c c:/sysgcc/m68k-elf/bin/../lib/gcc/m68k-elf/4.8.0/m68000\libgcc.a(_muldi3.o)
 .debug_frame   0x0000003c       0x2c c:/sysgcc/m68k-elf/bin/../lib/gcc/m68k-elf/4.8.0/m68000\libgcc.a(_ffssi2.o)
 .debug_frame   0x00000068       0x30 c:/sysgcc/m68k-elf/bin/../lib/gcc/m68k-elf/4.8.0/m68000\libgcc.a(_clzsi2.o)
 .debug_frame   0x00000098      0x164 C:/SysGCC/m68k-elf/m68k-elf/lib/m68000\libc.a(lib_a-findfp.o)
 .debug_frame   0x000001fc       0x5c C:/SysGCC/m68k-elf/m68k-elf/lib/m68000\libc.a(lib_a-fwalk.o)
 .debug_frame   0x00000258       0x44 C:/SysGCC/m68k-elf/m68k-elf/lib/m68000\libc.a(lib_a-getenv.o)
 .debug_frame   0x0000029c       0x50 C:/SysGCC/m68k-elf/m68k-elf/lib/m68000\libc.a(lib_a-getenv_r.o)
 .debug_frame   0x000002ec       0x40 C:/SysGCC/m68k-elf/m68k-elf/lib/m68000\libc.a(lib_a-mallocr.o)
 .debug_frame   0x0000032c       0x44 C:/SysGCC/m68k-elf/m68k-elf/lib/m68000\libc.a(lib_a-mlock.o)
 .debug_frame   0x00000370       0x44 C:/SysGCC/m68k-elf/m68k-elf/lib/m68000\libc.a(lib_a-printf.o)
 .debug_frame   0x000003b4       0x48 C:/SysGCC/m68k-elf/m68k-elf/lib/m68000\libc.a(lib_a-puts.o)
 .debug_frame   0x000003fc       0x2c C:/SysGCC/m68k-elf/m68k-elf/lib/m68000\libc.a(lib_a-sbrkr.o)
 .debug_frame   0x00000428       0x9c C:/SysGCC/m68k-elf/m68k-elf/lib/m68000\libc.a(lib_a-stdio.o)
 .debug_frame   0x000004c4       0x2c C:/SysGCC/m68k-elf/m68k-elf/lib/m68000\libc.a(lib_a-strlen.o)
 .debug_frame   0x000004f0       0x34 C:/SysGCC/m68k-elf/m68k-elf/lib/m68000\libc.a(lib_a-strncmp.o)
 .debug_frame   0x00000524       0x78 C:/SysGCC/m68k-elf/m68k-elf/lib/m68000\libc.a(lib_a-vfprintf.o)
 .debug_frame   0x0000059c       0x2c C:/SysGCC/m68k-elf/m68k-elf/lib/m68000\libc.a(lib_a-writer.o)
 .debug_frame   0x000005c8       0x30 C:/SysGCC/m68k-elf/m68k-elf/lib/m68000\libc.a(lib_a-wsetup.o)
 .debug_frame   0x000005f8       0x2c C:/SysGCC/m68k-elf/m68k-elf/lib/m68000\libc.a(lib_a-closer.o)
 .debug_frame   0x00000624       0x6c C:/SysGCC/m68k-elf/m68k-elf/lib/m68000\libc.a(lib_a-dtoa.o)
 .debug_frame   0x00000690       0x44 C:/SysGCC/m68k-elf/m68k-elf/lib/m68000\libc.a(lib_a-envlock.o)
 .debug_frame   0x000006d4       0x4c C:/SysGCC/m68k-elf/m68k-elf/lib/m68000\libc.a(lib_a-fclose.o)
 .debug_frame   0x00000720       0x68 C:/SysGCC/m68k-elf/m68k-elf/lib/m68000\libc.a(lib_a-fflush.o)
 .debug_frame   0x00000788       0x54 C:/SysGCC/m68k-elf/m68k-elf/lib/m68000\libc.a(lib_a-freer.o)
 .debug_frame   0x000007dc       0x40 C:/SysGCC/m68k-elf/m68k-elf/lib/m68000\libc.a(lib_a-fvwrite.o)
 .debug_frame   0x0000081c       0xd8 C:/SysGCC/m68k-elf/m68k-elf/lib/m68000\libc.a(lib_a-locale.o)
 .debug_frame   0x000008f4       0x2c C:/SysGCC/m68k-elf/m68k-elf/lib/m68000\libc.a(lib_a-lseekr.o)
 .debug_frame   0x00000920       0x34 C:/SysGCC/m68k-elf/m68k-elf/lib/m68000\libc.a(lib_a-makebuf.o)
 .debug_frame   0x00000954       0x34 C:/SysGCC/m68k-elf/m68k-elf/lib/m68000\libc.a(lib_a-memchr.o)
 .debug_frame   0x00000988       0x3c C:/SysGCC/m68k-elf/m68k-elf/lib/m68000\libc.a(lib_a-memmove.o)
 .debug_frame   0x000009c4      0x294 C:/SysGCC/m68k-elf/m68k-elf/lib/m68000\libc.a(lib_a-mprec.o)
 .debug_frame   0x00000c58       0x2c C:/SysGCC/m68k-elf/m68k-elf/lib/m68000\libc.a(lib_a-readr.o)
 .debug_frame   0x00000c84       0x40 C:/SysGCC/m68k-elf/m68k-elf/lib/m68000\libc.a(lib_a-reallocr.o)
 .debug_frame   0x00000cc4       0x2c C:/SysGCC/m68k-elf/m68k-elf/lib/m68000\libc.a(lib_a-s_fpclassify.o)
 .debug_frame   0x00000cf0       0x30 C:/SysGCC/m68k-elf/m68k-elf/lib/m68000\libc.a(lib_a-strcmp.o)
 .debug_frame   0x00000d20       0xb8 C:/SysGCC/m68k-elf/m68k-elf/lib/m68000\libc.a(lib_a-vfiprintf.o)
 .debug_frame   0x00000dd8       0x30 C:/SysGCC/m68k-elf/m68k-elf/lib/m68000\libc.a(lib_a-callocr.o)
 .debug_frame   0x00000e08       0x54 C:/SysGCC/m68k-elf/m68k-elf/lib/m68000\libc.a(lib_a-fputwc.o)
 .debug_frame   0x00000e5c       0x2c C:/SysGCC/m68k-elf/m68k-elf/lib/m68000\libc.a(lib_a-fstatr.o)
 .debug_frame   0x00000e88       0x2c C:/SysGCC/m68k-elf/m68k-elf/lib/m68000\libc.a(lib_a-isattyr.o)
 .debug_frame   0x00000eb4       0x4c C:/SysGCC/m68k-elf/m68k-elf/lib/m68000\libc.a(lib_a-wbuf.o)
 .debug_frame   0x00000f00       0x54 C:/SysGCC/m68k-elf/m68k-elf/lib/m68000\libc.a(lib_a-wcrtomb.o)
 .debug_frame   0x00000f54       0x48 C:/SysGCC/m68k-elf/m68k-elf/lib/m68000\libc.a(lib_a-wctomb_r.o)
 .debug_frame   0x00000f9c      0x138 c:/sysgcc/m68k-elf/bin/../lib/gcc/m68k-elf/4.8.0/m68000\libgcc.a(fpgnulib.o)
 .debug_frame   0x000010d4      0x270 c:/sysgcc/m68k-elf/bin/../lib/gcc/m68k-elf/4.8.0/m68000\libgcc.a(xfgnulib.o)
 .debug_frame   0x00001344      0x27c C:/SysGCC/m68k-elf/m68k-elf/lib/m68000\libnkc.a(newlib_stubs.o)
 .debug_frame   0x000015c0       0x5c C:/SysGCC/m68k-elf/m68k-elf/lib/m68000\libnkc.a(open.o)
 .debug_frame   0x0000161c       0x34 C:/SysGCC/m68k-elf/m68k-elf/lib/m68000\libnkc.a(close.o)
 .debug_frame   0x00001650       0x24 C:/SysGCC/m68k-elf/m68k-elf/lib/m68000\libnkc.a(isatty.o)
 .debug_frame   0x00001674       0x24 C:/SysGCC/m68k-elf/m68k-elf/lib/m68000\libnkc.a(lseek.o)
 .debug_frame   0x00001698       0x74 C:/SysGCC/m68k-elf/m68k-elf/lib/m68000\libnkc.a(read.o)
 .debug_frame   0x0000170c       0x34 C:/SysGCC/m68k-elf/m68k-elf/lib/m68000\libnkc.a(stat.o)
 .debug_frame   0x00001740       0x3c C:/SysGCC/m68k-elf/m68k-elf/lib/m68000\libnkc.a(write.o)
 .debug_frame   0x0000177c       0x2c C:/SysGCC/m68k-elf/m68k-elf/lib/m68000\libc.a(lib_a-errno.o)
 .debug_frame   0x000017a8       0x64 C:/SysGCC/m68k-elf/m68k-elf/lib/m68000\libc.a(lib_a-mktime.o)
 .debug_frame   0x0000180c       0x68 C:/SysGCC/m68k-elf/m68k-elf/lib/m68000\libc.a(lib_a-mktm_r.o)
 .debug_frame   0x00001874       0xe4 C:/SysGCC/m68k-elf/m68k-elf/lib/m68000\libc.a(lib_a-signal.o)
 .debug_frame   0x00001958       0x44 C:/SysGCC/m68k-elf/m68k-elf/lib/m68000\libc.a(lib_a-signalr.o)
 .debug_frame   0x0000199c       0x44 C:/SysGCC/m68k-elf/m68k-elf/lib/m68000\libc.a(lib_a-tzlock.o)
 .debug_frame   0x000019e0       0x34 C:/SysGCC/m68k-elf/m68k-elf/lib/m68000\libc.a(lib_a-div.o)
 .debug_frame   0x00001a14       0x2c C:/SysGCC/m68k-elf/m68k-elf/lib/m68000\libc.a(lib_a-gettzinfo.o)

.debug_loc      0x00000000    0x11d7b
 .debug_loc     0x00000000      0x3e8 c:/sysgcc/m68k-elf/bin/../lib/gcc/m68k-elf/4.8.0/m68000\libgcc.a(_ffssi2.o)
 .debug_loc     0x000003e8      0x241 c:/sysgcc/m68k-elf/bin/../lib/gcc/m68k-elf/4.8.0/m68000\libgcc.a(_clzsi2.o)
 .debug_loc     0x00000629      0xd5b c:/sysgcc/m68k-elf/bin/../lib/gcc/m68k-elf/4.8.0/m68000\libgcc.a(_divdi3.o)
 .debug_loc     0x00001384     0x11ad c:/sysgcc/m68k-elf/bin/../lib/gcc/m68k-elf/4.8.0/m68000\libgcc.a(_udivdi3.o)
 .debug_loc     0x00002531     0x109c c:/sysgcc/m68k-elf/bin/../lib/gcc/m68k-elf/4.8.0/m68000\libgcc.a(_umoddi3.o)
 .debug_loc     0x000035cd      0x16a C:/SysGCC/m68k-elf/m68k-elf/lib/m68000\libc.a(lib_a-findfp.o)
 .debug_loc     0x00003737       0xc8 C:/SysGCC/m68k-elf/m68k-elf/lib/m68000\libc.a(lib_a-fwalk.o)
 .debug_loc     0x000037ff       0xab C:/SysGCC/m68k-elf/m68k-elf/lib/m68000\libc.a(lib_a-getenv_r.o)
 .debug_loc     0x000038aa      0xb56 C:/SysGCC/m68k-elf/m68k-elf/lib/m68000\libc.a(lib_a-mallocr.o)
 .debug_loc     0x00004400       0xb7 C:/SysGCC/m68k-elf/m68k-elf/lib/m68000\libc.a(lib_a-printf.o)
 .debug_loc     0x000044b7       0x54 C:/SysGCC/m68k-elf/m68k-elf/lib/m68000\libc.a(lib_a-puts.o)
 .debug_loc     0x0000450b      0x14a C:/SysGCC/m68k-elf/m68k-elf/lib/m68000\libc.a(lib_a-stdio.o)
 .debug_loc     0x00004655       0x33 C:/SysGCC/m68k-elf/m68k-elf/lib/m68000\libc.a(lib_a-strlen.o)
 .debug_loc     0x00004688      0x1a0 C:/SysGCC/m68k-elf/m68k-elf/lib/m68000\libc.a(lib_a-strncmp.o)
 .debug_loc     0x00004828     0x2c54 C:/SysGCC/m68k-elf/m68k-elf/lib/m68000\libc.a(lib_a-vfprintf.o)
 .debug_loc     0x0000747c     0x24fb C:/SysGCC/m68k-elf/m68k-elf/lib/m68000\libc.a(lib_a-dtoa.o)
 .debug_loc     0x00009977       0x34 C:/SysGCC/m68k-elf/m68k-elf/lib/m68000\libc.a(lib_a-fclose.o)
 .debug_loc     0x000099ab      0x149 C:/SysGCC/m68k-elf/m68k-elf/lib/m68000\libc.a(lib_a-fflush.o)
 .debug_loc     0x00009af4      0x44c C:/SysGCC/m68k-elf/m68k-elf/lib/m68000\libc.a(lib_a-freer.o)
 .debug_loc     0x00009f40      0x484 C:/SysGCC/m68k-elf/m68k-elf/lib/m68000\libc.a(lib_a-fvwrite.o)
 .debug_loc     0x0000a3c4       0xae C:/SysGCC/m68k-elf/m68k-elf/lib/m68000\libc.a(lib_a-makebuf.o)
 .debug_loc     0x0000a472      0x178 C:/SysGCC/m68k-elf/m68k-elf/lib/m68000\libc.a(lib_a-memchr.o)
 .debug_loc     0x0000a5ea      0x464 C:/SysGCC/m68k-elf/m68k-elf/lib/m68000\libc.a(lib_a-memmove.o)
 .debug_loc     0x0000aa4e     0x1924 C:/SysGCC/m68k-elf/m68k-elf/lib/m68000\libc.a(lib_a-mprec.o)
 .debug_loc     0x0000c372     0x160f C:/SysGCC/m68k-elf/m68k-elf/lib/m68000\libc.a(lib_a-reallocr.o)
 .debug_loc     0x0000d981      0x118 C:/SysGCC/m68k-elf/m68k-elf/lib/m68000\libc.a(lib_a-strcmp.o)
 .debug_loc     0x0000da99     0x1e2f C:/SysGCC/m68k-elf/m68k-elf/lib/m68000\libc.a(lib_a-vfiprintf.o)
 .debug_loc     0x0000f8c8      0x2fe C:/SysGCC/m68k-elf/m68k-elf/lib/m68000\libc.a(lib_a-callocr.o)
 .debug_loc     0x0000fbc6      0x38e C:/SysGCC/m68k-elf/m68k-elf/lib/m68000\libc.a(lib_a-fputwc.o)
 .debug_loc     0x0000ff54       0x8b C:/SysGCC/m68k-elf/m68k-elf/lib/m68000\libc.a(lib_a-wbuf.o)
 .debug_loc     0x0000ffdf       0x6c C:/SysGCC/m68k-elf/m68k-elf/lib/m68000\libc.a(lib_a-wcrtomb.o)
 .debug_loc     0x0001004b       0x4d C:/SysGCC/m68k-elf/m68k-elf/lib/m68000\libc.a(lib_a-wctomb_r.o)
 .debug_loc     0x00010098      0x620 c:/sysgcc/m68k-elf/bin/../lib/gcc/m68k-elf/4.8.0/m68000\libgcc.a(fpgnulib.o)
 .debug_loc     0x000106b8      0x129 c:/sysgcc/m68k-elf/bin/../lib/gcc/m68k-elf/4.8.0/m68000\libgcc.a(xfgnulib.o)
 .debug_loc     0x000107e1      0x647 C:/SysGCC/m68k-elf/m68k-elf/lib/m68000\libnkc.a(newlib_stubs.o)
 .debug_loc     0x00010e28       0xf9 C:/SysGCC/m68k-elf/m68k-elf/lib/m68000\libnkc.a(open.o)
 .debug_loc     0x00010f21       0x42 C:/SysGCC/m68k-elf/m68k-elf/lib/m68000\libnkc.a(close.o)
 .debug_loc     0x00010f63      0x182 C:/SysGCC/m68k-elf/m68k-elf/lib/m68000\libnkc.a(read.o)
 .debug_loc     0x000110e5      0x105 C:/SysGCC/m68k-elf/m68k-elf/lib/m68000\libnkc.a(write.o)
 .debug_loc     0x000111ea      0x4ee C:/SysGCC/m68k-elf/m68k-elf/lib/m68000\libc.a(lib_a-mktime.o)
 .debug_loc     0x000116d8      0x568 C:/SysGCC/m68k-elf/m68k-elf/lib/m68000\libc.a(lib_a-mktm_r.o)
 .debug_loc     0x00011c40       0x65 C:/SysGCC/m68k-elf/m68k-elf/lib/m68000\libc.a(lib_a-signal.o)
 .debug_loc     0x00011ca5       0xd6 C:/SysGCC/m68k-elf/m68k-elf/lib/m68000\libc.a(lib_a-div.o)

.debug_ranges   0x00000000      0x9d0
 .debug_ranges  0x00000000       0x20 c:/sysgcc/m68k-elf/bin/../lib/gcc/m68k-elf/4.8.0/m68000\libgcc.a(_ffssi2.o)
 .debug_ranges  0x00000020       0x28 c:/sysgcc/m68k-elf/bin/../lib/gcc/m68k-elf/4.8.0/m68000\libgcc.a(_clzsi2.o)
 .debug_ranges  0x00000048      0x120 c:/sysgcc/m68k-elf/bin/../lib/gcc/m68k-elf/4.8.0/m68000\libgcc.a(_divdi3.o)
 .debug_ranges  0x00000168      0x138 c:/sysgcc/m68k-elf/bin/../lib/gcc/m68k-elf/4.8.0/m68000\libgcc.a(_udivdi3.o)
 .debug_ranges  0x000002a0       0xf0 c:/sysgcc/m68k-elf/bin/../lib/gcc/m68k-elf/4.8.0/m68000\libgcc.a(_umoddi3.o)
 .debug_ranges  0x00000390       0x38 C:/SysGCC/m68k-elf/m68k-elf/lib/m68000\libc.a(lib_a-mallocr.o)
 .debug_ranges  0x000003c8      0x110 C:/SysGCC/m68k-elf/m68k-elf/lib/m68000\libc.a(lib_a-vfprintf.o)
 .debug_ranges  0x000004d8       0x20 C:/SysGCC/m68k-elf/m68k-elf/lib/m68000\libc.a(lib_a-fflush.o)
 .debug_ranges  0x000004f8       0x20 C:/SysGCC/m68k-elf/m68k-elf/lib/m68000\libc.a(lib_a-fvwrite.o)
 .debug_ranges  0x00000518      0x1a8 C:/SysGCC/m68k-elf/m68k-elf/lib/m68000\libc.a(lib_a-reallocr.o)
 .debug_ranges  0x000006c0      0x158 C:/SysGCC/m68k-elf/m68k-elf/lib/m68000\libc.a(lib_a-vfiprintf.o)
 .debug_ranges  0x00000818       0x48 C:/SysGCC/m68k-elf/m68k-elf/lib/m68000\libc.a(lib_a-callocr.o)
 .debug_ranges  0x00000860       0x28 C:/SysGCC/m68k-elf/m68k-elf/lib/m68000\libc.a(lib_a-fputwc.o)
 .debug_ranges  0x00000888       0x18 c:/sysgcc/m68k-elf/bin/../lib/gcc/m68k-elf/4.8.0/m68000\libgcc.a(fpgnulib.o)
 .debug_ranges  0x000008a0       0x50 C:/SysGCC/m68k-elf/m68k-elf/lib/m68000\libnkc.a(newlib_stubs.o)
 .debug_ranges  0x000008f0       0x18 C:/SysGCC/m68k-elf/m68k-elf/lib/m68000\libnkc.a(read.o)
 .debug_ranges  0x00000908       0x80 C:/SysGCC/m68k-elf/m68k-elf/lib/m68000\libc.a(lib_a-mktime.o)
 .debug_ranges  0x00000988       0x48 C:/SysGCC/m68k-elf/m68k-elf/lib/m68000\libc.a(lib_a-mktm_r.o)
